
/workspaces/snax_cluster/target/snitch_cluster/sw/math/build/libmath.a(__math_divzero.o):	file format elf32-littleriscv

Disassembly of section .strtab:

00000000 <.strtab>:
       0: 00 2e        	<unknown>
       2: 72 65        	<unknown>
       4: 6c 61        	<unknown>
       6: 2e 74        	<unknown>
       8: 65 78        	<unknown>
       a: 74 00        	<unknown>
       c: 2e 63        	<unknown>
       e: 6f 6d 6d 65  	jal	s10, 0xd6664 <.strtab+0xd6664>
      12: 6e 74        	<unknown>
      14: 00 2e        	<unknown>
      16: 72 69        	<unknown>
      18: 73 63 76 2e  	csrrsi	t1, 743, 12
      1c: 61 74        	<unknown>
      1e: 74 72        	<unknown>
      20: 69 62        	<unknown>
      22: 75 74        	<unknown>
      24: 65 73        	<unknown>
      26: 00 5f        	<unknown>
      28: 5f 6d 61 74  	<unknown>
      2c: 68 5f        	<unknown>
      2e: 64 69        	<unknown>
      30: 76 7a        	<unknown>
      32: 65 72        	<unknown>
      34: 6f 00 2e 6e  	j	0xe0716 <.strtab+0xe0716>
      38: 6f 74 65 2e  	jal	s0, 0x5731e <.strtab+0x5731e>
      3c: 47 4e 55 2d  	fmsub.h	ft8, fa0, fs5, ft5, rmm
      40: 73 74 61 63  	csrrci	s0, 1590, 2
      44: 6b 00 2e 6c  	<unknown>
      48: 6c 76        	<unknown>
      4a: 6d 5f        	<unknown>
      4c: 61 64        	<unknown>
      4e: 64 72        	<unknown>
      50: 73 69 67 00  	csrrsi	s2, 6, 14
      54: 5f 5f 6d 61  	<unknown>
      58: 74 68        	<unknown>
      5a: 5f 64 69 76  	<unknown>
      5e: 7a 65        	<unknown>
      60: 72 6f        	<unknown>
      62: 2e 63        	<unknown>
      64: 00 2e        	<unknown>
      66: 73 74 72 74  	csrrci	s0, mseccfg, 4
      6a: 61 62        	<unknown>
      6c: 00 2e        	<unknown>
      6e: 73 79 6d 74  	csrrci	s2, 1862, 26
      72: 61 62        	<unknown>
      74: 00 2e        	<unknown>
      76: 72 6f        	<unknown>
      78: 64 61        	<unknown>
      7a: 74 61        	<unknown>
      7c: 2e 63        	<unknown>
      7e: 73 74 31 36  	csrrci	s0, 867, 2
      82: 00 2e        	<unknown>
      84: 4c 70        	<unknown>
      86: 63 72 65 6c  	bgeu	a0, t1, 0x74a <.strtab+0x74a>
      8a: 5f 68 69 30  	<unknown>
      8e: 00 2e        	<unknown>
      90: 4c 43        	<unknown>
      92: 50 49        	<unknown>
      94: 30 5f        	<unknown>
      96: 30 00        	<unknown>

Disassembly of section .text:

00000000 <__math_divzero>:
       0: 13 01 01 ff  	addi	sp, sp, -16
       4: 13 35 15 00  	seqz	a0, a0
       8: 13 15 35 00  	slli	a0, a0, 3

0000000c <.Lpcrel_hi0>:
       c: 97 05 00 00  	auipc	a1, 0
      10: 93 85 05 00  	mv	a1, a1
      14: 33 85 a5 00  	add	a0, a1, a0
      18: 87 37 05 00  	fld	fa5, 0(a0)
      1c: 27 34 f1 00  	fsd	fa5, 8(sp)
      20: 87 37 81 00  	fld	fa5, 8(sp)
      24: 13 01 01 01  	addi	sp, sp, 16
      28: 67 80 00 00  	ret

Disassembly of section .rela.text:

00000000 <.rela.text>:
       0: 0c 00        	<unknown>
       2: 00 00        	<unknown>
       4: 17 02 00 00  	auipc	tp, 0
       8: 00 00        	<unknown>
       a: 00 00        	<unknown>
       c: 0c 00        	<unknown>
       e: 00 00        	<unknown>
      10: 33 00 00 00  	add	zero, zero, zero
      14: 00 00        	<unknown>
      16: 00 00        	<unknown>
      18: 10 00        	<unknown>
      1a: 00 00        	<unknown>
      1c: 18 03        	<unknown>
      1e: 00 00        	<unknown>
      20: 00 00        	<unknown>
      22: 00 00        	<unknown>
      24: 10 00        	<unknown>
      26: 00 00        	<unknown>
      28: 33 00 00 00  	add	zero, zero, zero
      2c: 00 00        	<unknown>
      2e: 00 00        	<unknown>

Disassembly of section .rodata.cst16:

00000000 <.LCPI0_0>:
       0: 00 00        	<unknown>
       2: 00 00        	<unknown>
       4: 00 00        	<unknown>
       6: f0 bf        	<unknown>
       8: 00 00        	<unknown>
       a: 00 00        	<unknown>
       c: 00 00        	<unknown>
       e: f0 3f        	<unknown>

Disassembly of section .comment:

00000000 <.comment>:
       0: 00 55        	<unknown>
       2: 62 75        	<unknown>
       4: 6e 74        	<unknown>
       6: 75 20        	<unknown>
       8: 63 6c 61 6e  	bltu	sp, t1, 0x700 <.comment+0x700>
       c: 67 20 76 65  	<unknown>
      10: 72 73        	<unknown>
      12: 69 6f        	<unknown>
      14: 6e 20        	<unknown>
      16: 31 37        	<unknown>
      18: 2e 30        	<unknown>
      1a: 2e 36        	<unknown>
      1c: 20 28        	<unknown>
      1e: 39 75        	<unknown>
      20: 62 75        	<unknown>
      22: 6e 74        	<unknown>
      24: 75 31        	<unknown>
      26: 29 00        	<unknown>

Disassembly of section .riscv.attributes:

00000000 <.riscv.attributes>:
       0: 41 3f        	<unknown>
       2: 00 00        	<unknown>
       4: 00 72        	<unknown>
       6: 69 73        	<unknown>
       8: 63 76 00 01  	bgeu	zero, a6, 0x14 <.riscv.attributes+0x14>
       c: 35 00        	<unknown>
       e: 00 00        	<unknown>
      10: 04 10        	<unknown>
      12: 05 72        	<unknown>
      14: 76 33        	<unknown>
      16: 32 69        	<unknown>
      18: 32 70        	<unknown>
      1a: 31 5f        	<unknown>
      1c: 6d 32        	<unknown>
      1e: 70 30        	<unknown>
      20: 5f 61 32 70  	<unknown>
      24: 31 5f        	<unknown>
      26: 66 32        	<unknown>
      28: 70 32        	<unknown>
      2a: 5f 64 32 70  	<unknown>
      2e: 32 5f        	<unknown>
      30: 7a 69        	<unknown>
      32: 63 73 72 32  	bgeu	tp, t2, 0x358 <.riscv.attributes+0x358>
      36: 70 30        	<unknown>
      38: 5f 7a 66 68  	<unknown>
      3c: 31 70        	<unknown>
      3e: 30 00        	<unknown>

Disassembly of section .symtab:

00000000 <.symtab>:
		...
      10: 54 00        	<unknown>
		...
      1a: 00 00        	<unknown>
      1c: 04 00        	<unknown>
      1e: f1 ff        	<unknown>
      20: 8f 00 00 00  	<unknown>
		...
      2c: 00 00        	<unknown>
      2e: 04 00        	<unknown>
      30: 83 00 00 00  	lb	ra, 0(zero)
      34: 0c 00        	<unknown>
		...
      3e: 02 00        	<unknown>
      40: 27 00 00 00  	<unknown>
      44: 00 00        	<unknown>
      46: 00 00        	<unknown>
      48: 2c 00        	<unknown>
      4a: 00 00        	<unknown>
      4c: 12 02        	<unknown>
      4e: 02 00        	<unknown>

/workspaces/snax_cluster/target/snitch_cluster/sw/math/build/libmath.a(__math_invalid.o):	file format elf32-littleriscv

Disassembly of section .strtab:

00000000 <.strtab>:
       0: 00 2e        	<unknown>
       2: 72 65        	<unknown>
       4: 6c 61        	<unknown>
       6: 2e 74        	<unknown>
       8: 65 78        	<unknown>
       a: 74 00        	<unknown>
       c: 2e 63        	<unknown>
       e: 6f 6d 6d 65  	jal	s10, 0xd6664 <.strtab+0xd6664>
      12: 6e 74        	<unknown>
      14: 00 2e        	<unknown>
      16: 72 69        	<unknown>
      18: 73 63 76 2e  	csrrsi	t1, 743, 12
      1c: 61 74        	<unknown>
      1e: 74 72        	<unknown>
      20: 69 62        	<unknown>
      22: 75 74        	<unknown>
      24: 65 73        	<unknown>
      26: 00 2e        	<unknown>
      28: 6e 6f        	<unknown>
      2a: 74 65        	<unknown>
      2c: 2e 47        	<unknown>
      2e: 4e 55        	<unknown>
      30: 2d 73        	<unknown>
      32: 74 61        	<unknown>
      34: 63 6b 00 2e  	bltu	zero, zero, 0x32a <.strtab+0x32a>
      38: 6c 6c        	<unknown>
      3a: 76 6d        	<unknown>
      3c: 5f 61 64 64  	<unknown>
      40: 72 73        	<unknown>
      42: 69 67        	<unknown>
      44: 00 5f        	<unknown>
      46: 5f 6d 61 74  	<unknown>
      4a: 68 5f        	<unknown>
      4c: 69 6e        	<unknown>
      4e: 76 61        	<unknown>
      50: 6c 69        	<unknown>
      52: 64 00        	<unknown>
      54: 5f 5f 6d 61  	<unknown>
      58: 74 68        	<unknown>
      5a: 5f 69 6e 76  	<unknown>
      5e: 61 6c        	<unknown>
      60: 69 64        	<unknown>
      62: 2e 63        	<unknown>
      64: 00 2e        	<unknown>
      66: 73 74 72 74  	csrrci	s0, mseccfg, 4
      6a: 61 62        	<unknown>
      6c: 00 2e        	<unknown>
      6e: 73 79 6d 74  	csrrci	s2, 1862, 26
      72: 61 62        	<unknown>
      74: 00 2e        	<unknown>
      76: 73 64 61 74  	csrrsi	s0, 1862, 2
      7a: 61 00        	<unknown>
      7c: 2e 4c        	<unknown>
      7e: 70 63        	<unknown>
      80: 72 65        	<unknown>
      82: 6c 5f        	<unknown>
      84: 68 69        	<unknown>
      86: 30 00        	<unknown>
      88: 2e 4c        	<unknown>
      8a: 43 50 49 30  	<unknown>
      8e: 5f           	<unknown>
      8f: 30 00        	<unknown>

Disassembly of section .text:

00000000 <__math_invalid>:
       0: 17 05 00 00  	auipc	a0, 0
       4: 07 35 05 00  	fld	fa0, 0(a0)
       8: 67 80 00 00  	ret

Disassembly of section .rela.text:

00000000 <.rela.text>:
       0: 00 00        	<unknown>
       2: 00 00        	<unknown>
       4: 17 02 00 00  	auipc	tp, 0
		...
      10: 33 00 00 00  	add	zero, zero, zero
      14: 00 00        	<unknown>
      16: 00 00        	<unknown>
      18: 04 00        	<unknown>
      1a: 00 00        	<unknown>
      1c: 18 03        	<unknown>
      1e: 00 00        	<unknown>
      20: 00 00        	<unknown>
      22: 00 00        	<unknown>
      24: 04 00        	<unknown>
      26: 00 00        	<unknown>
      28: 33 00 00 00  	add	zero, zero, zero
      2c: 00 00        	<unknown>
      2e: 00 00        	<unknown>

Disassembly of section .sdata:

00000000 <.LCPI0_0>:
       0: 00 00        	<unknown>
       2: 00 00        	<unknown>
       4: 00 00        	<unknown>
       6: f8 7f        	<unknown>

Disassembly of section .comment:

00000000 <.comment>:
       0: 00 55        	<unknown>
       2: 62 75        	<unknown>
       4: 6e 74        	<unknown>
       6: 75 20        	<unknown>
       8: 63 6c 61 6e  	bltu	sp, t1, 0x700 <.comment+0x700>
       c: 67 20 76 65  	<unknown>
      10: 72 73        	<unknown>
      12: 69 6f        	<unknown>
      14: 6e 20        	<unknown>
      16: 31 37        	<unknown>
      18: 2e 30        	<unknown>
      1a: 2e 36        	<unknown>
      1c: 20 28        	<unknown>
      1e: 39 75        	<unknown>
      20: 62 75        	<unknown>
      22: 6e 74        	<unknown>
      24: 75 31        	<unknown>
      26: 29 00        	<unknown>

Disassembly of section .riscv.attributes:

00000000 <.riscv.attributes>:
       0: 41 3f        	<unknown>
       2: 00 00        	<unknown>
       4: 00 72        	<unknown>
       6: 69 73        	<unknown>
       8: 63 76 00 01  	bgeu	zero, a6, 0x14 <.riscv.attributes+0x14>
       c: 35 00        	<unknown>
       e: 00 00        	<unknown>
      10: 04 10        	<unknown>
      12: 05 72        	<unknown>
      14: 76 33        	<unknown>
      16: 32 69        	<unknown>
      18: 32 70        	<unknown>
      1a: 31 5f        	<unknown>
      1c: 6d 32        	<unknown>
      1e: 70 30        	<unknown>
      20: 5f 61 32 70  	<unknown>
      24: 31 5f        	<unknown>
      26: 66 32        	<unknown>
      28: 70 32        	<unknown>
      2a: 5f 64 32 70  	<unknown>
      2e: 32 5f        	<unknown>
      30: 7a 69        	<unknown>
      32: 63 73 72 32  	bgeu	tp, t2, 0x358 <.riscv.attributes+0x358>
      36: 70 30        	<unknown>
      38: 5f 7a 66 68  	<unknown>
      3c: 31 70        	<unknown>
      3e: 30 00        	<unknown>

Disassembly of section .symtab:

00000000 <.symtab>:
		...
      10: 54 00        	<unknown>
		...
      1a: 00 00        	<unknown>
      1c: 04 00        	<unknown>
      1e: f1 ff        	<unknown>
      20: 88 00        	<unknown>
		...
      2e: 04 00        	<unknown>
      30: 7c 00        	<unknown>
		...
      3e: 02 00        	<unknown>
      40: 45 00        	<unknown>
      42: 00 00        	<unknown>
      44: 00 00        	<unknown>
      46: 00 00        	<unknown>
      48: 0c 00        	<unknown>
      4a: 00 00        	<unknown>
      4c: 12 02        	<unknown>
      4e: 02 00        	<unknown>

/workspaces/snax_cluster/target/snitch_cluster/sw/math/build/libmath.a(__math_invalidf.o):	file format elf32-littleriscv

Disassembly of section .strtab:

00000000 <.strtab>:
       0: 00 2e        	<unknown>
       2: 74 65        	<unknown>
       4: 78 74        	<unknown>
       6: 00 2e        	<unknown>
       8: 63 6f 6d 6d  	bltu	s10, s6, 0x6e6 <.strtab+0x6e6>
       c: 65 6e        	<unknown>
       e: 74 00        	<unknown>
      10: 2e 72        	<unknown>
      12: 69 73        	<unknown>
      14: 63 76 2e 61  	bgeu	t3, s2, 0x620 <.strtab+0x620>
      18: 74 74        	<unknown>
      1a: 72 69        	<unknown>
      1c: 62 75        	<unknown>
      1e: 74 65        	<unknown>
      20: 73 00 2e 6e  	<unknown>
      24: 6f 74 65 2e  	jal	s0, 0x5730a <.strtab+0x5730a>
      28: 47 4e 55 2d  	fmsub.h	ft8, fa0, fs5, ft5, rmm
      2c: 73 74 61 63  	csrrci	s0, 1590, 2
      30: 6b 00 2e 6c  	<unknown>
      34: 6c 76        	<unknown>
      36: 6d 5f        	<unknown>
      38: 61 64        	<unknown>
      3a: 64 72        	<unknown>
      3c: 73 69 67 00  	csrrsi	s2, 6, 14
      40: 5f 5f 6d 61  	<unknown>
      44: 74 68        	<unknown>
      46: 5f 69 6e 76  	<unknown>
      4a: 61 6c        	<unknown>
      4c: 69 64        	<unknown>
      4e: 66 00        	<unknown>
      50: 5f 5f 6d 61  	<unknown>
      54: 74 68        	<unknown>
      56: 5f 69 6e 76  	<unknown>
      5a: 61 6c        	<unknown>
      5c: 69 64        	<unknown>
      5e: 66 2e        	<unknown>
      60: 63 00 2e 73  	beq	t3, s2, 0x780 <.strtab+0x780>
      64: 74 72        	<unknown>
      66: 74 61        	<unknown>
      68: 62 00        	<unknown>
      6a: 2e 73        	<unknown>
      6c: 79 6d        	<unknown>
      6e: 74 61        	<unknown>
      70: 62 00        	<unknown>

Disassembly of section .text:

00000000 <__math_invalidf>:
       0: 37 05 c0 7f  	lui	a0, 523264
       4: 53 05 05 f0  	fmv.w.x	fa0, a0
       8: 67 80 00 00  	ret

Disassembly of section .comment:

00000000 <.comment>:
       0: 00 55        	<unknown>
       2: 62 75        	<unknown>
       4: 6e 74        	<unknown>
       6: 75 20        	<unknown>
       8: 63 6c 61 6e  	bltu	sp, t1, 0x700 <.comment+0x700>
       c: 67 20 76 65  	<unknown>
      10: 72 73        	<unknown>
      12: 69 6f        	<unknown>
      14: 6e 20        	<unknown>
      16: 31 37        	<unknown>
      18: 2e 30        	<unknown>
      1a: 2e 36        	<unknown>
      1c: 20 28        	<unknown>
      1e: 39 75        	<unknown>
      20: 62 75        	<unknown>
      22: 6e 74        	<unknown>
      24: 75 31        	<unknown>
      26: 29 00        	<unknown>

Disassembly of section .riscv.attributes:

00000000 <.riscv.attributes>:
       0: 41 3f        	<unknown>
       2: 00 00        	<unknown>
       4: 00 72        	<unknown>
       6: 69 73        	<unknown>
       8: 63 76 00 01  	bgeu	zero, a6, 0x14 <.riscv.attributes+0x14>
       c: 35 00        	<unknown>
       e: 00 00        	<unknown>
      10: 04 10        	<unknown>
      12: 05 72        	<unknown>
      14: 76 33        	<unknown>
      16: 32 69        	<unknown>
      18: 32 70        	<unknown>
      1a: 31 5f        	<unknown>
      1c: 6d 32        	<unknown>
      1e: 70 30        	<unknown>
      20: 5f 61 32 70  	<unknown>
      24: 31 5f        	<unknown>
      26: 66 32        	<unknown>
      28: 70 32        	<unknown>
      2a: 5f 64 32 70  	<unknown>
      2e: 32 5f        	<unknown>
      30: 7a 69        	<unknown>
      32: 63 73 72 32  	bgeu	tp, t2, 0x358 <.riscv.attributes+0x358>
      36: 70 30        	<unknown>
      38: 5f 7a 66 68  	<unknown>
      3c: 31 70        	<unknown>
      3e: 30 00        	<unknown>

Disassembly of section .symtab:

00000000 <.symtab>:
		...
      10: 50 00        	<unknown>
		...
      1a: 00 00        	<unknown>
      1c: 04 00        	<unknown>
      1e: f1 ff        	<unknown>
      20: 40 00        	<unknown>
      22: 00 00        	<unknown>
      24: 00 00        	<unknown>
      26: 00 00        	<unknown>
      28: 0c 00        	<unknown>
      2a: 00 00        	<unknown>
      2c: 12 02        	<unknown>
      2e: 02 00        	<unknown>

/workspaces/snax_cluster/target/snitch_cluster/sw/math/build/libmath.a(__math_invalidl.o):	file format elf32-littleriscv

Disassembly of section .strtab:

00000000 <.strtab>:
       0: 00 2e        	<unknown>
       2: 74 65        	<unknown>
       4: 78 74        	<unknown>
       6: 00 2e        	<unknown>
       8: 63 6f 6d 6d  	bltu	s10, s6, 0x6e6 <.strtab+0x6e6>
       c: 65 6e        	<unknown>
       e: 74 00        	<unknown>
      10: 2e 72        	<unknown>
      12: 69 73        	<unknown>
      14: 63 76 2e 61  	bgeu	t3, s2, 0x620 <.strtab+0x620>
      18: 74 74        	<unknown>
      1a: 72 69        	<unknown>
      1c: 62 75        	<unknown>
      1e: 74 65        	<unknown>
      20: 73 00 5f 5f  	<unknown>
      24: 6d 61        	<unknown>
      26: 74 68        	<unknown>
      28: 5f 69 6e 76  	<unknown>
      2c: 61 6c        	<unknown>
      2e: 69 64        	<unknown>
      30: 6c 00        	<unknown>
      32: 2e 6e        	<unknown>
      34: 6f 74 65 2e  	jal	s0, 0x5731a <.strtab+0x5731a>
      38: 47 4e 55 2d  	fmsub.h	ft8, fa0, fs5, ft5, rmm
      3c: 73 74 61 63  	csrrci	s0, 1590, 2
      40: 6b 00 2e 6c  	<unknown>
      44: 6c 76        	<unknown>
      46: 6d 5f        	<unknown>
      48: 61 64        	<unknown>
      4a: 64 72        	<unknown>
      4c: 73 69 67 00  	csrrsi	s2, 6, 14
      50: 5f 5f 6d 61  	<unknown>
      54: 74 68        	<unknown>
      56: 5f 69 6e 76  	<unknown>
      5a: 61 6c        	<unknown>
      5c: 69 64        	<unknown>
      5e: 6c 2e        	<unknown>
      60: 63 00 2e 73  	beq	t3, s2, 0x780 <.strtab+0x780>
      64: 74 72        	<unknown>
      66: 74 61        	<unknown>
      68: 62 00        	<unknown>
      6a: 2e 73        	<unknown>
      6c: 79 6d        	<unknown>
      6e: 74 61        	<unknown>
      70: 62 00        	<unknown>

Disassembly of section .text:

00000000 <__math_invalidl>:
       0: b7 85 ff 7f  	lui	a1, 524280
       4: 23 26 b5 00  	sw	a1, 12(a0)
       8: 23 24 05 00  	sw	zero, 8(a0)
       c: 23 22 05 00  	sw	zero, 4(a0)
      10: 23 20 05 00  	sw	zero, 0(a0)
      14: 67 80 00 00  	ret

Disassembly of section .comment:

00000000 <.comment>:
       0: 00 55        	<unknown>
       2: 62 75        	<unknown>
       4: 6e 74        	<unknown>
       6: 75 20        	<unknown>
       8: 63 6c 61 6e  	bltu	sp, t1, 0x700 <.comment+0x700>
       c: 67 20 76 65  	<unknown>
      10: 72 73        	<unknown>
      12: 69 6f        	<unknown>
      14: 6e 20        	<unknown>
      16: 31 37        	<unknown>
      18: 2e 30        	<unknown>
      1a: 2e 36        	<unknown>
      1c: 20 28        	<unknown>
      1e: 39 75        	<unknown>
      20: 62 75        	<unknown>
      22: 6e 74        	<unknown>
      24: 75 31        	<unknown>
      26: 29 00        	<unknown>

Disassembly of section .riscv.attributes:

00000000 <.riscv.attributes>:
       0: 41 3f        	<unknown>
       2: 00 00        	<unknown>
       4: 00 72        	<unknown>
       6: 69 73        	<unknown>
       8: 63 76 00 01  	bgeu	zero, a6, 0x14 <.riscv.attributes+0x14>
       c: 35 00        	<unknown>
       e: 00 00        	<unknown>
      10: 04 10        	<unknown>
      12: 05 72        	<unknown>
      14: 76 33        	<unknown>
      16: 32 69        	<unknown>
      18: 32 70        	<unknown>
      1a: 31 5f        	<unknown>
      1c: 6d 32        	<unknown>
      1e: 70 30        	<unknown>
      20: 5f 61 32 70  	<unknown>
      24: 31 5f        	<unknown>
      26: 66 32        	<unknown>
      28: 70 32        	<unknown>
      2a: 5f 64 32 70  	<unknown>
      2e: 32 5f        	<unknown>
      30: 7a 69        	<unknown>
      32: 63 73 72 32  	bgeu	tp, t2, 0x358 <.riscv.attributes+0x358>
      36: 70 30        	<unknown>
      38: 5f 7a 66 68  	<unknown>
      3c: 31 70        	<unknown>
      3e: 30 00        	<unknown>

Disassembly of section .symtab:

00000000 <.symtab>:
		...
      10: 50 00        	<unknown>
		...
      1a: 00 00        	<unknown>
      1c: 04 00        	<unknown>
      1e: f1 ff        	<unknown>
      20: 22 00        	<unknown>
      22: 00 00        	<unknown>
      24: 00 00        	<unknown>
      26: 00 00        	<unknown>
      28: 18 00        	<unknown>
      2a: 00 00        	<unknown>
      2c: 12 02        	<unknown>
      2e: 02 00        	<unknown>

/workspaces/snax_cluster/target/snitch_cluster/sw/math/build/libmath.a(__math_oflow.o):	file format elf32-littleriscv

Disassembly of section .strtab:

00000000 <.strtab>:
       0: 00 5f        	<unknown>
       2: 5f 6d 61 74  	<unknown>
       6: 68 5f        	<unknown>
       8: 78 66        	<unknown>
       a: 6c 6f        	<unknown>
       c: 77 00 5f 5f  	<unknown>
      10: 6d 61        	<unknown>
      12: 74 68        	<unknown>
      14: 5f 6f 66 6c  	<unknown>
      18: 6f 77 00 2e  	jal	a4, 0x72f8 <.strtab+0x72f8>
      1c: 72 65        	<unknown>
      1e: 6c 61        	<unknown>
      20: 2e 74        	<unknown>
      22: 65 78        	<unknown>
      24: 74 00        	<unknown>
      26: 2e 63        	<unknown>
      28: 6f 6d 6d 65  	jal	s10, 0xd667e <.strtab+0xd667e>
      2c: 6e 74        	<unknown>
      2e: 00 2e        	<unknown>
      30: 72 69        	<unknown>
      32: 73 63 76 2e  	csrrsi	t1, 743, 12
      36: 61 74        	<unknown>
      38: 74 72        	<unknown>
      3a: 69 62        	<unknown>
      3c: 75 74        	<unknown>
      3e: 65 73        	<unknown>
      40: 00 2e        	<unknown>
      42: 6e 6f        	<unknown>
      44: 74 65        	<unknown>
      46: 2e 47        	<unknown>
      48: 4e 55        	<unknown>
      4a: 2d 73        	<unknown>
      4c: 74 61        	<unknown>
      4e: 63 6b 00 2e  	bltu	zero, zero, 0x344 <.strtab+0x344>
      52: 6c 6c        	<unknown>
      54: 76 6d        	<unknown>
      56: 5f 61 64 64  	<unknown>
      5a: 72 73        	<unknown>
      5c: 69 67        	<unknown>
      5e: 00 5f        	<unknown>
      60: 5f 6d 61 74  	<unknown>
      64: 68 5f        	<unknown>
      66: 6f 66 6c 6f  	jal	a2, 0xc675c <.strtab+0xc675c>
      6a: 77 2e 63 00  	<unknown>
      6e: 2e 73        	<unknown>
      70: 74 72        	<unknown>
      72: 74 61        	<unknown>
      74: 62 00        	<unknown>
      76: 2e 73        	<unknown>
      78: 79 6d        	<unknown>
      7a: 74 61        	<unknown>
      7c: 62 00        	<unknown>
      7e: 2e 73        	<unknown>
      80: 64 61        	<unknown>
      82: 74 61        	<unknown>
      84: 00 2e        	<unknown>
      86: 4c 70        	<unknown>
      88: 63 72 65 6c  	bgeu	a0, t1, 0x74c <.strtab+0x74c>
      8c: 5f 68 69 30  	<unknown>
      90: 00 2e        	<unknown>
      92: 4c 43        	<unknown>
      94: 50 49        	<unknown>
      96: 30 5f        	<unknown>
      98: 30 00        	<unknown>

Disassembly of section .text:

00000000 <__math_oflow>:
       0: 97 05 00 00  	auipc	a1, 0
       4: 07 b5 05 00  	fld	fa0, 0(a1)
       8: 17 03 00 00  	auipc	t1, 0
       c: 67 00 03 00  	jr	t1

Disassembly of section .rela.text:

00000000 <.rela.text>:
       0: 00 00        	<unknown>
       2: 00 00        	<unknown>
       4: 17 02 00 00  	auipc	tp, 0
		...
      10: 33 00 00 00  	add	zero, zero, zero
      14: 00 00        	<unknown>
      16: 00 00        	<unknown>
      18: 04 00        	<unknown>
      1a: 00 00        	<unknown>
      1c: 18 03        	<unknown>
      1e: 00 00        	<unknown>
      20: 00 00        	<unknown>
      22: 00 00        	<unknown>
      24: 04 00        	<unknown>
      26: 00 00        	<unknown>
      28: 33 00 00 00  	add	zero, zero, zero
      2c: 00 00        	<unknown>
      2e: 00 00        	<unknown>
      30: 08 00        	<unknown>
      32: 00 00        	<unknown>
      34: 13 05 00 00  	li	a0, 0
      38: 00 00        	<unknown>
      3a: 00 00        	<unknown>
      3c: 08 00        	<unknown>
      3e: 00 00        	<unknown>
      40: 33 00 00 00  	add	zero, zero, zero
      44: 00 00        	<unknown>
      46: 00 00        	<unknown>

Disassembly of section .sdata:

00000000 <.LCPI0_0>:
       0: 00 00        	<unknown>
       2: 00 00        	<unknown>
       4: 00 00        	<unknown>
       6: 00 70        	<unknown>

Disassembly of section .comment:

00000000 <.comment>:
       0: 00 55        	<unknown>
       2: 62 75        	<unknown>
       4: 6e 74        	<unknown>
       6: 75 20        	<unknown>
       8: 63 6c 61 6e  	bltu	sp, t1, 0x700 <.comment+0x700>
       c: 67 20 76 65  	<unknown>
      10: 72 73        	<unknown>
      12: 69 6f        	<unknown>
      14: 6e 20        	<unknown>
      16: 31 37        	<unknown>
      18: 2e 30        	<unknown>
      1a: 2e 36        	<unknown>
      1c: 20 28        	<unknown>
      1e: 39 75        	<unknown>
      20: 62 75        	<unknown>
      22: 6e 74        	<unknown>
      24: 75 31        	<unknown>
      26: 29 00        	<unknown>

Disassembly of section .riscv.attributes:

00000000 <.riscv.attributes>:
       0: 41 3f        	<unknown>
       2: 00 00        	<unknown>
       4: 00 72        	<unknown>
       6: 69 73        	<unknown>
       8: 63 76 00 01  	bgeu	zero, a6, 0x14 <.riscv.attributes+0x14>
       c: 35 00        	<unknown>
       e: 00 00        	<unknown>
      10: 04 10        	<unknown>
      12: 05 72        	<unknown>
      14: 76 33        	<unknown>
      16: 32 69        	<unknown>
      18: 32 70        	<unknown>
      1a: 31 5f        	<unknown>
      1c: 6d 32        	<unknown>
      1e: 70 30        	<unknown>
      20: 5f 61 32 70  	<unknown>
      24: 31 5f        	<unknown>
      26: 66 32        	<unknown>
      28: 70 32        	<unknown>
      2a: 5f 64 32 70  	<unknown>
      2e: 32 5f        	<unknown>
      30: 7a 69        	<unknown>
      32: 63 73 72 32  	bgeu	tp, t2, 0x358 <.riscv.attributes+0x358>
      36: 70 30        	<unknown>
      38: 5f 7a 66 68  	<unknown>
      3c: 31 70        	<unknown>
      3e: 30 00        	<unknown>

Disassembly of section .symtab:

00000000 <.symtab>:
		...
      10: 5f 00 00 00  	<unknown>
		...
      1c: 04 00        	<unknown>
      1e: f1 ff        	<unknown>
      20: 91 00        	<unknown>
		...
      2e: 04 00        	<unknown>
      30: 85 00        	<unknown>
		...
      3e: 02 00        	<unknown>
      40: 0e 00        	<unknown>
      42: 00 00        	<unknown>
      44: 00 00        	<unknown>
      46: 00 00        	<unknown>
      48: 10 00        	<unknown>
      4a: 00 00        	<unknown>
      4c: 12 02        	<unknown>
      4e: 02 00        	<unknown>
      50: 01 00        	<unknown>
		...
      5a: 00 00        	<unknown>
      5c: 10 02        	<unknown>
      5e: 00 00        	<unknown>

/workspaces/snax_cluster/target/snitch_cluster/sw/math/build/libmath.a(__math_oflowf.o):	file format elf32-littleriscv

Disassembly of section .strtab:

00000000 <.strtab>:
       0: 00 2e        	<unknown>
       2: 72 65        	<unknown>
       4: 6c 61        	<unknown>
       6: 2e 74        	<unknown>
       8: 65 78        	<unknown>
       a: 74 00        	<unknown>
       c: 2e 63        	<unknown>
       e: 6f 6d 6d 65  	jal	s10, 0xd6664 <.strtab+0xd6664>
      12: 6e 74        	<unknown>
      14: 00 2e        	<unknown>
      16: 72 69        	<unknown>
      18: 73 63 76 2e  	csrrsi	t1, 743, 12
      1c: 61 74        	<unknown>
      1e: 74 72        	<unknown>
      20: 69 62        	<unknown>
      22: 75 74        	<unknown>
      24: 65 73        	<unknown>
      26: 00 2e        	<unknown>
      28: 6e 6f        	<unknown>
      2a: 74 65        	<unknown>
      2c: 2e 47        	<unknown>
      2e: 4e 55        	<unknown>
      30: 2d 73        	<unknown>
      32: 74 61        	<unknown>
      34: 63 6b 00 2e  	bltu	zero, zero, 0x32a <.strtab+0x32a>
      38: 6c 6c        	<unknown>
      3a: 76 6d        	<unknown>
      3c: 5f 61 64 64  	<unknown>
      40: 72 73        	<unknown>
      42: 69 67        	<unknown>
      44: 00 5f        	<unknown>
      46: 5f 6d 61 74  	<unknown>
      4a: 68 5f        	<unknown>
      4c: 78 66        	<unknown>
      4e: 6c 6f        	<unknown>
      50: 77 66 00 5f  	<unknown>
      54: 5f 6d 61 74  	<unknown>
      58: 68 5f        	<unknown>
      5a: 6f 66 6c 6f  	jal	a2, 0xc6750 <.strtab+0xc6750>
      5e: 77 66 00 5f  	<unknown>
      62: 5f 6d 61 74  	<unknown>
      66: 68 5f        	<unknown>
      68: 6f 66 6c 6f  	jal	a2, 0xc675e <.strtab+0xc675e>
      6c: 77 66 2e 63  	<unknown>
      70: 00 2e        	<unknown>
      72: 73 74 72 74  	csrrci	s0, mseccfg, 4
      76: 61 62        	<unknown>
      78: 00 2e        	<unknown>
      7a: 73 79 6d 74  	csrrci	s2, 1862, 26
      7e: 61 62        	<unknown>
      80: 00           	<unknown>

Disassembly of section .text:

00000000 <__math_oflowf>:
       0: b7 05 00 70  	lui	a1, 458752
       4: 53 85 05 f0  	fmv.w.x	fa0, a1
       8: 17 03 00 00  	auipc	t1, 0
       c: 67 00 03 00  	jr	t1

Disassembly of section .rela.text:

00000000 <.rela.text>:
       0: 08 00        	<unknown>
       2: 00 00        	<unknown>
       4: 13 03 00 00  	li	t1, 0
       8: 00 00        	<unknown>
       a: 00 00        	<unknown>
       c: 08 00        	<unknown>
       e: 00 00        	<unknown>
      10: 33 00 00 00  	add	zero, zero, zero
      14: 00 00        	<unknown>
      16: 00 00        	<unknown>

Disassembly of section .comment:

00000000 <.comment>:
       0: 00 55        	<unknown>
       2: 62 75        	<unknown>
       4: 6e 74        	<unknown>
       6: 75 20        	<unknown>
       8: 63 6c 61 6e  	bltu	sp, t1, 0x700 <.comment+0x700>
       c: 67 20 76 65  	<unknown>
      10: 72 73        	<unknown>
      12: 69 6f        	<unknown>
      14: 6e 20        	<unknown>
      16: 31 37        	<unknown>
      18: 2e 30        	<unknown>
      1a: 2e 36        	<unknown>
      1c: 20 28        	<unknown>
      1e: 39 75        	<unknown>
      20: 62 75        	<unknown>
      22: 6e 74        	<unknown>
      24: 75 31        	<unknown>
      26: 29 00        	<unknown>

Disassembly of section .riscv.attributes:

00000000 <.riscv.attributes>:
       0: 41 3f        	<unknown>
       2: 00 00        	<unknown>
       4: 00 72        	<unknown>
       6: 69 73        	<unknown>
       8: 63 76 00 01  	bgeu	zero, a6, 0x14 <.riscv.attributes+0x14>
       c: 35 00        	<unknown>
       e: 00 00        	<unknown>
      10: 04 10        	<unknown>
      12: 05 72        	<unknown>
      14: 76 33        	<unknown>
      16: 32 69        	<unknown>
      18: 32 70        	<unknown>
      1a: 31 5f        	<unknown>
      1c: 6d 32        	<unknown>
      1e: 70 30        	<unknown>
      20: 5f 61 32 70  	<unknown>
      24: 31 5f        	<unknown>
      26: 66 32        	<unknown>
      28: 70 32        	<unknown>
      2a: 5f 64 32 70  	<unknown>
      2e: 32 5f        	<unknown>
      30: 7a 69        	<unknown>
      32: 63 73 72 32  	bgeu	tp, t2, 0x358 <.riscv.attributes+0x358>
      36: 70 30        	<unknown>
      38: 5f 7a 66 68  	<unknown>
      3c: 31 70        	<unknown>
      3e: 30 00        	<unknown>

Disassembly of section .symtab:

00000000 <.symtab>:
		...
      10: 61 00        	<unknown>
		...
      1a: 00 00        	<unknown>
      1c: 04 00        	<unknown>
      1e: f1 ff        	<unknown>
      20: 53 00 00 00  	fadd.s	ft0, ft0, ft0, rne
      24: 00 00        	<unknown>
      26: 00 00        	<unknown>
      28: 10 00        	<unknown>
      2a: 00 00        	<unknown>
      2c: 12 02        	<unknown>
      2e: 02 00        	<unknown>
      30: 45 00        	<unknown>
		...
      3a: 00 00        	<unknown>
      3c: 10 02        	<unknown>
      3e: 00 00        	<unknown>

/workspaces/snax_cluster/target/snitch_cluster/sw/math/build/libmath.a(__math_uflow.o):	file format elf32-littleriscv

Disassembly of section .strtab:

00000000 <.strtab>:
       0: 00 5f        	<unknown>
       2: 5f 6d 61 74  	<unknown>
       6: 68 5f        	<unknown>
       8: 78 66        	<unknown>
       a: 6c 6f        	<unknown>
       c: 77 00 5f 5f  	<unknown>
      10: 6d 61        	<unknown>
      12: 74 68        	<unknown>
      14: 5f 75 66 6c  	<unknown>
      18: 6f 77 00 2e  	jal	a4, 0x72f8 <.strtab+0x72f8>
      1c: 72 65        	<unknown>
      1e: 6c 61        	<unknown>
      20: 2e 74        	<unknown>
      22: 65 78        	<unknown>
      24: 74 00        	<unknown>
      26: 2e 63        	<unknown>
      28: 6f 6d 6d 65  	jal	s10, 0xd667e <.strtab+0xd667e>
      2c: 6e 74        	<unknown>
      2e: 00 2e        	<unknown>
      30: 72 69        	<unknown>
      32: 73 63 76 2e  	csrrsi	t1, 743, 12
      36: 61 74        	<unknown>
      38: 74 72        	<unknown>
      3a: 69 62        	<unknown>
      3c: 75 74        	<unknown>
      3e: 65 73        	<unknown>
      40: 00 2e        	<unknown>
      42: 6e 6f        	<unknown>
      44: 74 65        	<unknown>
      46: 2e 47        	<unknown>
      48: 4e 55        	<unknown>
      4a: 2d 73        	<unknown>
      4c: 74 61        	<unknown>
      4e: 63 6b 00 2e  	bltu	zero, zero, 0x344 <.strtab+0x344>
      52: 6c 6c        	<unknown>
      54: 76 6d        	<unknown>
      56: 5f 61 64 64  	<unknown>
      5a: 72 73        	<unknown>
      5c: 69 67        	<unknown>
      5e: 00 5f        	<unknown>
      60: 5f 6d 61 74  	<unknown>
      64: 68 5f        	<unknown>
      66: 75 66        	<unknown>
      68: 6c 6f        	<unknown>
      6a: 77 2e 63 00  	<unknown>
      6e: 2e 73        	<unknown>
      70: 74 72        	<unknown>
      72: 74 61        	<unknown>
      74: 62 00        	<unknown>
      76: 2e 73        	<unknown>
      78: 79 6d        	<unknown>
      7a: 74 61        	<unknown>
      7c: 62 00        	<unknown>
      7e: 2e 73        	<unknown>
      80: 64 61        	<unknown>
      82: 74 61        	<unknown>
      84: 00 2e        	<unknown>
      86: 4c 70        	<unknown>
      88: 63 72 65 6c  	bgeu	a0, t1, 0x74c <.strtab+0x74c>
      8c: 5f 68 69 30  	<unknown>
      90: 00 2e        	<unknown>
      92: 4c 43        	<unknown>
      94: 50 49        	<unknown>
      96: 30 5f        	<unknown>
      98: 30 00        	<unknown>

Disassembly of section .text:

00000000 <__math_uflow>:
       0: 97 05 00 00  	auipc	a1, 0
       4: 07 b5 05 00  	fld	fa0, 0(a1)
       8: 17 03 00 00  	auipc	t1, 0
       c: 67 00 03 00  	jr	t1

Disassembly of section .rela.text:

00000000 <.rela.text>:
       0: 00 00        	<unknown>
       2: 00 00        	<unknown>
       4: 17 02 00 00  	auipc	tp, 0
		...
      10: 33 00 00 00  	add	zero, zero, zero
      14: 00 00        	<unknown>
      16: 00 00        	<unknown>
      18: 04 00        	<unknown>
      1a: 00 00        	<unknown>
      1c: 18 03        	<unknown>
      1e: 00 00        	<unknown>
      20: 00 00        	<unknown>
      22: 00 00        	<unknown>
      24: 04 00        	<unknown>
      26: 00 00        	<unknown>
      28: 33 00 00 00  	add	zero, zero, zero
      2c: 00 00        	<unknown>
      2e: 00 00        	<unknown>
      30: 08 00        	<unknown>
      32: 00 00        	<unknown>
      34: 13 05 00 00  	li	a0, 0
      38: 00 00        	<unknown>
      3a: 00 00        	<unknown>
      3c: 08 00        	<unknown>
      3e: 00 00        	<unknown>
      40: 33 00 00 00  	add	zero, zero, zero
      44: 00 00        	<unknown>
      46: 00 00        	<unknown>

Disassembly of section .sdata:

00000000 <.LCPI0_0>:
       0: 00 00        	<unknown>
       2: 00 00        	<unknown>
       4: 00 00        	<unknown>
       6: 00 10        	<unknown>

Disassembly of section .comment:

00000000 <.comment>:
       0: 00 55        	<unknown>
       2: 62 75        	<unknown>
       4: 6e 74        	<unknown>
       6: 75 20        	<unknown>
       8: 63 6c 61 6e  	bltu	sp, t1, 0x700 <.comment+0x700>
       c: 67 20 76 65  	<unknown>
      10: 72 73        	<unknown>
      12: 69 6f        	<unknown>
      14: 6e 20        	<unknown>
      16: 31 37        	<unknown>
      18: 2e 30        	<unknown>
      1a: 2e 36        	<unknown>
      1c: 20 28        	<unknown>
      1e: 39 75        	<unknown>
      20: 62 75        	<unknown>
      22: 6e 74        	<unknown>
      24: 75 31        	<unknown>
      26: 29 00        	<unknown>

Disassembly of section .riscv.attributes:

00000000 <.riscv.attributes>:
       0: 41 3f        	<unknown>
       2: 00 00        	<unknown>
       4: 00 72        	<unknown>
       6: 69 73        	<unknown>
       8: 63 76 00 01  	bgeu	zero, a6, 0x14 <.riscv.attributes+0x14>
       c: 35 00        	<unknown>
       e: 00 00        	<unknown>
      10: 04 10        	<unknown>
      12: 05 72        	<unknown>
      14: 76 33        	<unknown>
      16: 32 69        	<unknown>
      18: 32 70        	<unknown>
      1a: 31 5f        	<unknown>
      1c: 6d 32        	<unknown>
      1e: 70 30        	<unknown>
      20: 5f 61 32 70  	<unknown>
      24: 31 5f        	<unknown>
      26: 66 32        	<unknown>
      28: 70 32        	<unknown>
      2a: 5f 64 32 70  	<unknown>
      2e: 32 5f        	<unknown>
      30: 7a 69        	<unknown>
      32: 63 73 72 32  	bgeu	tp, t2, 0x358 <.riscv.attributes+0x358>
      36: 70 30        	<unknown>
      38: 5f 7a 66 68  	<unknown>
      3c: 31 70        	<unknown>
      3e: 30 00        	<unknown>

Disassembly of section .symtab:

00000000 <.symtab>:
		...
      10: 5f 00 00 00  	<unknown>
		...
      1c: 04 00        	<unknown>
      1e: f1 ff        	<unknown>
      20: 91 00        	<unknown>
		...
      2e: 04 00        	<unknown>
      30: 85 00        	<unknown>
		...
      3e: 02 00        	<unknown>
      40: 0e 00        	<unknown>
      42: 00 00        	<unknown>
      44: 00 00        	<unknown>
      46: 00 00        	<unknown>
      48: 10 00        	<unknown>
      4a: 00 00        	<unknown>
      4c: 12 02        	<unknown>
      4e: 02 00        	<unknown>
      50: 01 00        	<unknown>
		...
      5a: 00 00        	<unknown>
      5c: 10 02        	<unknown>
      5e: 00 00        	<unknown>

/workspaces/snax_cluster/target/snitch_cluster/sw/math/build/libmath.a(__math_uflowf.o):	file format elf32-littleriscv

Disassembly of section .strtab:

00000000 <.strtab>:
       0: 00 2e        	<unknown>
       2: 72 65        	<unknown>
       4: 6c 61        	<unknown>
       6: 2e 74        	<unknown>
       8: 65 78        	<unknown>
       a: 74 00        	<unknown>
       c: 2e 63        	<unknown>
       e: 6f 6d 6d 65  	jal	s10, 0xd6664 <.strtab+0xd6664>
      12: 6e 74        	<unknown>
      14: 00 2e        	<unknown>
      16: 72 69        	<unknown>
      18: 73 63 76 2e  	csrrsi	t1, 743, 12
      1c: 61 74        	<unknown>
      1e: 74 72        	<unknown>
      20: 69 62        	<unknown>
      22: 75 74        	<unknown>
      24: 65 73        	<unknown>
      26: 00 2e        	<unknown>
      28: 6e 6f        	<unknown>
      2a: 74 65        	<unknown>
      2c: 2e 47        	<unknown>
      2e: 4e 55        	<unknown>
      30: 2d 73        	<unknown>
      32: 74 61        	<unknown>
      34: 63 6b 00 2e  	bltu	zero, zero, 0x32a <.strtab+0x32a>
      38: 6c 6c        	<unknown>
      3a: 76 6d        	<unknown>
      3c: 5f 61 64 64  	<unknown>
      40: 72 73        	<unknown>
      42: 69 67        	<unknown>
      44: 00 5f        	<unknown>
      46: 5f 6d 61 74  	<unknown>
      4a: 68 5f        	<unknown>
      4c: 78 66        	<unknown>
      4e: 6c 6f        	<unknown>
      50: 77 66 00 5f  	<unknown>
      54: 5f 6d 61 74  	<unknown>
      58: 68 5f        	<unknown>
      5a: 75 66        	<unknown>
      5c: 6c 6f        	<unknown>
      5e: 77 66 00 5f  	<unknown>
      62: 5f 6d 61 74  	<unknown>
      66: 68 5f        	<unknown>
      68: 75 66        	<unknown>
      6a: 6c 6f        	<unknown>
      6c: 77 66 2e 63  	<unknown>
      70: 00 2e        	<unknown>
      72: 73 74 72 74  	csrrci	s0, mseccfg, 4
      76: 61 62        	<unknown>
      78: 00 2e        	<unknown>
      7a: 73 79 6d 74  	csrrci	s2, 1862, 26
      7e: 61 62        	<unknown>
      80: 00           	<unknown>

Disassembly of section .text:

00000000 <__math_uflowf>:
       0: b7 05 00 10  	lui	a1, 65536
       4: 53 85 05 f0  	fmv.w.x	fa0, a1
       8: 17 03 00 00  	auipc	t1, 0
       c: 67 00 03 00  	jr	t1

Disassembly of section .rela.text:

00000000 <.rela.text>:
       0: 08 00        	<unknown>
       2: 00 00        	<unknown>
       4: 13 03 00 00  	li	t1, 0
       8: 00 00        	<unknown>
       a: 00 00        	<unknown>
       c: 08 00        	<unknown>
       e: 00 00        	<unknown>
      10: 33 00 00 00  	add	zero, zero, zero
      14: 00 00        	<unknown>
      16: 00 00        	<unknown>

Disassembly of section .comment:

00000000 <.comment>:
       0: 00 55        	<unknown>
       2: 62 75        	<unknown>
       4: 6e 74        	<unknown>
       6: 75 20        	<unknown>
       8: 63 6c 61 6e  	bltu	sp, t1, 0x700 <.comment+0x700>
       c: 67 20 76 65  	<unknown>
      10: 72 73        	<unknown>
      12: 69 6f        	<unknown>
      14: 6e 20        	<unknown>
      16: 31 37        	<unknown>
      18: 2e 30        	<unknown>
      1a: 2e 36        	<unknown>
      1c: 20 28        	<unknown>
      1e: 39 75        	<unknown>
      20: 62 75        	<unknown>
      22: 6e 74        	<unknown>
      24: 75 31        	<unknown>
      26: 29 00        	<unknown>

Disassembly of section .riscv.attributes:

00000000 <.riscv.attributes>:
       0: 41 3f        	<unknown>
       2: 00 00        	<unknown>
       4: 00 72        	<unknown>
       6: 69 73        	<unknown>
       8: 63 76 00 01  	bgeu	zero, a6, 0x14 <.riscv.attributes+0x14>
       c: 35 00        	<unknown>
       e: 00 00        	<unknown>
      10: 04 10        	<unknown>
      12: 05 72        	<unknown>
      14: 76 33        	<unknown>
      16: 32 69        	<unknown>
      18: 32 70        	<unknown>
      1a: 31 5f        	<unknown>
      1c: 6d 32        	<unknown>
      1e: 70 30        	<unknown>
      20: 5f 61 32 70  	<unknown>
      24: 31 5f        	<unknown>
      26: 66 32        	<unknown>
      28: 70 32        	<unknown>
      2a: 5f 64 32 70  	<unknown>
      2e: 32 5f        	<unknown>
      30: 7a 69        	<unknown>
      32: 63 73 72 32  	bgeu	tp, t2, 0x358 <.riscv.attributes+0x358>
      36: 70 30        	<unknown>
      38: 5f 7a 66 68  	<unknown>
      3c: 31 70        	<unknown>
      3e: 30 00        	<unknown>

Disassembly of section .symtab:

00000000 <.symtab>:
		...
      10: 61 00        	<unknown>
		...
      1a: 00 00        	<unknown>
      1c: 04 00        	<unknown>
      1e: f1 ff        	<unknown>
      20: 53 00 00 00  	fadd.s	ft0, ft0, ft0, rne
      24: 00 00        	<unknown>
      26: 00 00        	<unknown>
      28: 10 00        	<unknown>
      2a: 00 00        	<unknown>
      2c: 12 02        	<unknown>
      2e: 02 00        	<unknown>
      30: 45 00        	<unknown>
		...
      3a: 00 00        	<unknown>
      3c: 10 02        	<unknown>
      3e: 00 00        	<unknown>

/workspaces/snax_cluster/target/snitch_cluster/sw/math/build/libmath.a(__math_xflow.o):	file format elf32-littleriscv

Disassembly of section .strtab:

00000000 <.strtab>:
       0: 00 5f        	<unknown>
       2: 5f 6d 61 74  	<unknown>
       6: 68 5f        	<unknown>
       8: 78 66        	<unknown>
       a: 6c 6f        	<unknown>
       c: 77 00 2e 72  	<unknown>
      10: 65 6c        	<unknown>
      12: 61 2e        	<unknown>
      14: 74 65        	<unknown>
      16: 78 74        	<unknown>
      18: 00 2e        	<unknown>
      1a: 63 6f 6d 6d  	bltu	s10, s6, 0x6f8 <.strtab+0x6f8>
      1e: 65 6e        	<unknown>
      20: 74 00        	<unknown>
      22: 2e 72        	<unknown>
      24: 69 73        	<unknown>
      26: 63 76 2e 61  	bgeu	t3, s2, 0x632 <.strtab+0x632>
      2a: 74 74        	<unknown>
      2c: 72 69        	<unknown>
      2e: 62 75        	<unknown>
      30: 74 65        	<unknown>
      32: 73 00 2e 6e  	<unknown>
      36: 6f 74 65 2e  	jal	s0, 0x5731c <.strtab+0x5731c>
      3a: 47 4e 55 2d  	fmsub.h	ft8, fa0, fs5, ft5, rmm
      3e: 73 74 61 63  	csrrci	s0, 1590, 2
      42: 6b 00 2e 6c  	<unknown>
      46: 6c 76        	<unknown>
      48: 6d 5f        	<unknown>
      4a: 61 64        	<unknown>
      4c: 64 72        	<unknown>
      4e: 73 69 67 00  	csrrsi	s2, 6, 14
      52: 5f 5f 6d 61  	<unknown>
      56: 74 68        	<unknown>
      58: 5f 78 66 6c  	<unknown>
      5c: 6f 77 2e 63  	jal	a4, 0xe768e <.strtab+0xe768e>
      60: 00 2e        	<unknown>
      62: 73 74 72 74  	csrrci	s0, mseccfg, 4
      66: 61 62        	<unknown>
      68: 00 2e        	<unknown>
      6a: 73 79 6d 74  	csrrci	s2, 1862, 26
      6e: 61 62        	<unknown>
      70: 00 2e        	<unknown>
      72: 4c 42        	<unknown>
      74: 42 30        	<unknown>
      76: 5f           	<unknown>
      77: 32 00        	<unknown>

Disassembly of section .text:

00000000 <__math_xflow>:
       0: d3 07 a5 22  	fmv.d	fa5, fa0
       4: 63 00 05 00  	beqz	a0, 0x4 <__math_xflow+0x4>
       8: d3 17 a5 22  	fneg.d	fa5, fa0

0000000c <.LBB0_2>:
       c: 13 01 01 ff  	addi	sp, sp, -16
      10: 27 34 f1 00  	fsd	fa5, 8(sp)
      14: 87 37 81 00  	fld	fa5, 8(sp)
      18: 53 f5 a7 12  	fmul.d	fa0, fa5, fa0
      1c: 13 01 01 01  	addi	sp, sp, 16
      20: 67 80 00 00  	ret

Disassembly of section .rela.text:

00000000 <.rela.text>:
       0: 04 00        	<unknown>
       2: 00 00        	<unknown>
       4: 10 02        	<unknown>
       6: 00 00        	<unknown>
       8: 00 00        	<unknown>
       a: 00 00        	<unknown>

Disassembly of section .comment:

00000000 <.comment>:
       0: 00 55        	<unknown>
       2: 62 75        	<unknown>
       4: 6e 74        	<unknown>
       6: 75 20        	<unknown>
       8: 63 6c 61 6e  	bltu	sp, t1, 0x700 <.comment+0x700>
       c: 67 20 76 65  	<unknown>
      10: 72 73        	<unknown>
      12: 69 6f        	<unknown>
      14: 6e 20        	<unknown>
      16: 31 37        	<unknown>
      18: 2e 30        	<unknown>
      1a: 2e 36        	<unknown>
      1c: 20 28        	<unknown>
      1e: 39 75        	<unknown>
      20: 62 75        	<unknown>
      22: 6e 74        	<unknown>
      24: 75 31        	<unknown>
      26: 29 00        	<unknown>

Disassembly of section .riscv.attributes:

00000000 <.riscv.attributes>:
       0: 41 3f        	<unknown>
       2: 00 00        	<unknown>
       4: 00 72        	<unknown>
       6: 69 73        	<unknown>
       8: 63 76 00 01  	bgeu	zero, a6, 0x14 <.riscv.attributes+0x14>
       c: 35 00        	<unknown>
       e: 00 00        	<unknown>
      10: 04 10        	<unknown>
      12: 05 72        	<unknown>
      14: 76 33        	<unknown>
      16: 32 69        	<unknown>
      18: 32 70        	<unknown>
      1a: 31 5f        	<unknown>
      1c: 6d 32        	<unknown>
      1e: 70 30        	<unknown>
      20: 5f 61 32 70  	<unknown>
      24: 31 5f        	<unknown>
      26: 66 32        	<unknown>
      28: 70 32        	<unknown>
      2a: 5f 64 32 70  	<unknown>
      2e: 32 5f        	<unknown>
      30: 7a 69        	<unknown>
      32: 63 73 72 32  	bgeu	tp, t2, 0x358 <.riscv.attributes+0x358>
      36: 70 30        	<unknown>
      38: 5f 7a 66 68  	<unknown>
      3c: 31 70        	<unknown>
      3e: 30 00        	<unknown>

Disassembly of section .symtab:

00000000 <.symtab>:
		...
      10: 52 00        	<unknown>
		...
      1a: 00 00        	<unknown>
      1c: 04 00        	<unknown>
      1e: f1 ff        	<unknown>
      20: 71 00        	<unknown>
      22: 00 00        	<unknown>
      24: 0c 00        	<unknown>
		...
      2e: 02 00        	<unknown>
      30: 01 00        	<unknown>
      32: 00 00        	<unknown>
      34: 00 00        	<unknown>
      36: 00 00        	<unknown>
      38: 24 00        	<unknown>
      3a: 00 00        	<unknown>
      3c: 12 02        	<unknown>
      3e: 02 00        	<unknown>

/workspaces/snax_cluster/target/snitch_cluster/sw/math/build/libmath.a(__math_xflowf.o):	file format elf32-littleriscv

Disassembly of section .strtab:

00000000 <.strtab>:
       0: 00 2e        	<unknown>
       2: 72 65        	<unknown>
       4: 6c 61        	<unknown>
       6: 2e 74        	<unknown>
       8: 65 78        	<unknown>
       a: 74 00        	<unknown>
       c: 2e 63        	<unknown>
       e: 6f 6d 6d 65  	jal	s10, 0xd6664 <.strtab+0xd6664>
      12: 6e 74        	<unknown>
      14: 00 2e        	<unknown>
      16: 72 69        	<unknown>
      18: 73 63 76 2e  	csrrsi	t1, 743, 12
      1c: 61 74        	<unknown>
      1e: 74 72        	<unknown>
      20: 69 62        	<unknown>
      22: 75 74        	<unknown>
      24: 65 73        	<unknown>
      26: 00 2e        	<unknown>
      28: 6e 6f        	<unknown>
      2a: 74 65        	<unknown>
      2c: 2e 47        	<unknown>
      2e: 4e 55        	<unknown>
      30: 2d 73        	<unknown>
      32: 74 61        	<unknown>
      34: 63 6b 00 2e  	bltu	zero, zero, 0x32a <.strtab+0x32a>
      38: 6c 6c        	<unknown>
      3a: 76 6d        	<unknown>
      3c: 5f 61 64 64  	<unknown>
      40: 72 73        	<unknown>
      42: 69 67        	<unknown>
      44: 00 5f        	<unknown>
      46: 5f 6d 61 74  	<unknown>
      4a: 68 5f        	<unknown>
      4c: 78 66        	<unknown>
      4e: 6c 6f        	<unknown>
      50: 77 66 00 5f  	<unknown>
      54: 5f 6d 61 74  	<unknown>
      58: 68 5f        	<unknown>
      5a: 78 66        	<unknown>
      5c: 6c 6f        	<unknown>
      5e: 77 66 2e 63  	<unknown>
      62: 00 2e        	<unknown>
      64: 73 74 72 74  	csrrci	s0, mseccfg, 4
      68: 61 62        	<unknown>
      6a: 00 2e        	<unknown>
      6c: 73 79 6d 74  	csrrci	s2, 1862, 26
      70: 61 62        	<unknown>
      72: 00 2e        	<unknown>
      74: 4c 42        	<unknown>
      76: 42 30        	<unknown>
      78: 5f           	<unknown>
      79: 32 00        	<unknown>

Disassembly of section .text:

00000000 <__math_xflowf>:
       0: d3 07 a5 20  	fmv.s	fa5, fa0
       4: 63 00 05 00  	beqz	a0, 0x4 <__math_xflowf+0x4>
       8: d3 17 a5 20  	fneg.s	fa5, fa0

0000000c <.LBB0_2>:
       c: 13 01 01 ff  	addi	sp, sp, -16
      10: 27 26 f1 00  	fsw	fa5, 12(sp)
      14: 87 27 c1 00  	flw	fa5, 12(sp)
      18: 53 f5 a7 10  	fmul.s	fa0, fa5, fa0
      1c: 13 01 01 01  	addi	sp, sp, 16
      20: 67 80 00 00  	ret

Disassembly of section .rela.text:

00000000 <.rela.text>:
       0: 04 00        	<unknown>
       2: 00 00        	<unknown>
       4: 10 02        	<unknown>
       6: 00 00        	<unknown>
       8: 00 00        	<unknown>
       a: 00 00        	<unknown>

Disassembly of section .comment:

00000000 <.comment>:
       0: 00 55        	<unknown>
       2: 62 75        	<unknown>
       4: 6e 74        	<unknown>
       6: 75 20        	<unknown>
       8: 63 6c 61 6e  	bltu	sp, t1, 0x700 <.comment+0x700>
       c: 67 20 76 65  	<unknown>
      10: 72 73        	<unknown>
      12: 69 6f        	<unknown>
      14: 6e 20        	<unknown>
      16: 31 37        	<unknown>
      18: 2e 30        	<unknown>
      1a: 2e 36        	<unknown>
      1c: 20 28        	<unknown>
      1e: 39 75        	<unknown>
      20: 62 75        	<unknown>
      22: 6e 74        	<unknown>
      24: 75 31        	<unknown>
      26: 29 00        	<unknown>

Disassembly of section .riscv.attributes:

00000000 <.riscv.attributes>:
       0: 41 3f        	<unknown>
       2: 00 00        	<unknown>
       4: 00 72        	<unknown>
       6: 69 73        	<unknown>
       8: 63 76 00 01  	bgeu	zero, a6, 0x14 <.riscv.attributes+0x14>
       c: 35 00        	<unknown>
       e: 00 00        	<unknown>
      10: 04 10        	<unknown>
      12: 05 72        	<unknown>
      14: 76 33        	<unknown>
      16: 32 69        	<unknown>
      18: 32 70        	<unknown>
      1a: 31 5f        	<unknown>
      1c: 6d 32        	<unknown>
      1e: 70 30        	<unknown>
      20: 5f 61 32 70  	<unknown>
      24: 31 5f        	<unknown>
      26: 66 32        	<unknown>
      28: 70 32        	<unknown>
      2a: 5f 64 32 70  	<unknown>
      2e: 32 5f        	<unknown>
      30: 7a 69        	<unknown>
      32: 63 73 72 32  	bgeu	tp, t2, 0x358 <.riscv.attributes+0x358>
      36: 70 30        	<unknown>
      38: 5f 7a 66 68  	<unknown>
      3c: 31 70        	<unknown>
      3e: 30 00        	<unknown>

Disassembly of section .symtab:

00000000 <.symtab>:
		...
      10: 53 00 00 00  	fadd.s	ft0, ft0, ft0, rne
		...
      1c: 04 00        	<unknown>
      1e: f1 ff        	<unknown>
      20: 73 00 00 00  	ecall
      24: 0c 00        	<unknown>
		...
      2e: 02 00        	<unknown>
      30: 45 00        	<unknown>
      32: 00 00        	<unknown>
      34: 00 00        	<unknown>
      36: 00 00        	<unknown>
      38: 24 00        	<unknown>
      3a: 00 00        	<unknown>
      3c: 12 02        	<unknown>
      3e: 02 00        	<unknown>

/workspaces/snax_cluster/target/snitch_cluster/sw/math/build/libmath.a(ceil.o):	file format elf32-littleriscv

Disassembly of section .strtab:

00000000 <.strtab>:
       0: 00 2e        	<unknown>
       2: 72 65        	<unknown>
       4: 6c 61        	<unknown>
       6: 2e 74        	<unknown>
       8: 65 78        	<unknown>
       a: 74 00        	<unknown>
       c: 2e 63        	<unknown>
       e: 6f 6d 6d 65  	jal	s10, 0xd6664 <.strtab+0xd6664>
      12: 6e 74        	<unknown>
      14: 00 2e        	<unknown>
      16: 72 69        	<unknown>
      18: 73 63 76 2e  	csrrsi	t1, 743, 12
      1c: 61 74        	<unknown>
      1e: 74 72        	<unknown>
      20: 69 62        	<unknown>
      22: 75 74        	<unknown>
      24: 65 73        	<unknown>
      26: 00 63        	<unknown>
      28: 65 69        	<unknown>
      2a: 6c 00        	<unknown>
      2c: 2e 6e        	<unknown>
      2e: 6f 74 65 2e  	jal	s0, 0x57314 <.strtab+0x57314>
      32: 47 4e 55 2d  	fmsub.h	ft8, fa0, fs5, ft5, rmm
      36: 73 74 61 63  	csrrci	s0, 1590, 2
      3a: 6b 00 2e 6c  	<unknown>
      3e: 6c 76        	<unknown>
      40: 6d 5f        	<unknown>
      42: 61 64        	<unknown>
      44: 64 72        	<unknown>
      46: 73 69 67 00  	csrrsi	s2, 6, 14
      4a: 63 65 69 6c  	bltu	s2, t1, 0x714 <.strtab+0x714>
      4e: 2e 63        	<unknown>
      50: 00 2e        	<unknown>
      52: 73 74 72 74  	csrrci	s0, mseccfg, 4
      56: 61 62        	<unknown>
      58: 00 2e        	<unknown>
      5a: 73 79 6d 74  	csrrci	s2, 1862, 26
      5e: 61 62        	<unknown>
      60: 00 2e        	<unknown>
      62: 73 64 61 74  	csrrsi	s0, 1862, 2
      66: 61 00        	<unknown>
      68: 2e 4c        	<unknown>
      6a: 42 42        	<unknown>
      6c: 30 5f        	<unknown>
      6e: 34 00        	<unknown>
      70: 2e 4c        	<unknown>
      72: 42 42        	<unknown>
      74: 30 5f        	<unknown>
      76: 33 00 2e 4c  	<unknown>
      7a: 70 63        	<unknown>
      7c: 72 65        	<unknown>
      7e: 6c 5f        	<unknown>
      80: 68 69        	<unknown>
      82: 30 00        	<unknown>
      84: 2e 4c        	<unknown>
      86: 43 50 49 30  	<unknown>
      8a: 5f           	<unknown>
      8b: 30 00        	<unknown>

Disassembly of section .text:

00000000 <ceil>:
       0: 13 01 01 ff  	addi	sp, sp, -16
       4: 27 30 a1 00  	fsd	fa0, 0(sp)
       8: 03 25 41 00  	lw	a0, 4(sp)
       c: d3 07 00 d2  	fcvt.d.w	fa5, zero
      10: d3 25 f5 a2  	feq.d	a1, fa0, fa5
      14: 93 c5 15 00  	xori	a1, a1, 1
      18: 13 16 15 00  	slli	a2, a0, 1
      1c: 13 56 56 01  	srli	a2, a2, 21
      20: 13 36 f6 3f  	sltiu	a2, a2, 1023
      24: b3 75 b6 00  	and	a1, a2, a1
      28: 63 80 05 00  	beqz	a1, 0x28 <ceil+0x28>
      2c: d3 07 00 d2  	fcvt.d.w	fa5, zero
      30: 27 34 f1 00  	fsd	fa5, 8(sp)
      34: 63 50 05 00  	bgez	a0, 0x34 <ceil+0x34>
      38: 53 95 f7 22  	fneg.d	fa0, fa5

0000003c <.LBB0_3>:
      3c: 13 01 01 01  	addi	sp, sp, 16
      40: 67 80 00 00  	ret

00000044 <.Lpcrel_hi0>:
      44: 17 05 00 00  	auipc	a0, 0
      48: 07 35 05 00  	fld	fa0, 0(a0)
      4c: 13 01 01 01  	addi	sp, sp, 16
      50: 67 80 00 00  	ret

Disassembly of section .rela.text:

00000000 <.rela.text>:
       0: 28 00        	<unknown>
       2: 00 00        	<unknown>
       4: 10 03        	<unknown>
       6: 00 00        	<unknown>
       8: 00 00        	<unknown>
       a: 00 00        	<unknown>
       c: 34 00        	<unknown>
       e: 00 00        	<unknown>
      10: 10 04        	<unknown>
      12: 00 00        	<unknown>
      14: 00 00        	<unknown>
      16: 00 00        	<unknown>
      18: 44 00        	<unknown>
      1a: 00 00        	<unknown>
      1c: 17 02 00 00  	auipc	tp, 0
      20: 00 00        	<unknown>
      22: 00 00        	<unknown>
      24: 44 00        	<unknown>
      26: 00 00        	<unknown>
      28: 33 00 00 00  	add	zero, zero, zero
      2c: 00 00        	<unknown>
      2e: 00 00        	<unknown>
      30: 48 00        	<unknown>
      32: 00 00        	<unknown>
      34: 18 05        	<unknown>
      36: 00 00        	<unknown>
      38: 00 00        	<unknown>
      3a: 00 00        	<unknown>
      3c: 48 00        	<unknown>
      3e: 00 00        	<unknown>
      40: 33 00 00 00  	add	zero, zero, zero
      44: 00 00        	<unknown>
      46: 00 00        	<unknown>

Disassembly of section .sdata:

00000000 <.LCPI0_0>:
       0: 00 00        	<unknown>
       2: 00 00        	<unknown>
       4: 00 00        	<unknown>
       6: f0 3f        	<unknown>

Disassembly of section .comment:

00000000 <.comment>:
       0: 00 55        	<unknown>
       2: 62 75        	<unknown>
       4: 6e 74        	<unknown>
       6: 75 20        	<unknown>
       8: 63 6c 61 6e  	bltu	sp, t1, 0x700 <.comment+0x700>
       c: 67 20 76 65  	<unknown>
      10: 72 73        	<unknown>
      12: 69 6f        	<unknown>
      14: 6e 20        	<unknown>
      16: 31 37        	<unknown>
      18: 2e 30        	<unknown>
      1a: 2e 36        	<unknown>
      1c: 20 28        	<unknown>
      1e: 39 75        	<unknown>
      20: 62 75        	<unknown>
      22: 6e 74        	<unknown>
      24: 75 31        	<unknown>
      26: 29 00        	<unknown>

Disassembly of section .riscv.attributes:

00000000 <.riscv.attributes>:
       0: 41 3f        	<unknown>
       2: 00 00        	<unknown>
       4: 00 72        	<unknown>
       6: 69 73        	<unknown>
       8: 63 76 00 01  	bgeu	zero, a6, 0x14 <.riscv.attributes+0x14>
       c: 35 00        	<unknown>
       e: 00 00        	<unknown>
      10: 04 10        	<unknown>
      12: 05 72        	<unknown>
      14: 76 33        	<unknown>
      16: 32 69        	<unknown>
      18: 32 70        	<unknown>
      1a: 31 5f        	<unknown>
      1c: 6d 32        	<unknown>
      1e: 70 30        	<unknown>
      20: 5f 61 32 70  	<unknown>
      24: 31 5f        	<unknown>
      26: 66 32        	<unknown>
      28: 70 32        	<unknown>
      2a: 5f 64 32 70  	<unknown>
      2e: 32 5f        	<unknown>
      30: 7a 69        	<unknown>
      32: 63 73 72 32  	bgeu	tp, t2, 0x358 <.riscv.attributes+0x358>
      36: 70 30        	<unknown>
      38: 5f 7a 66 68  	<unknown>
      3c: 31 70        	<unknown>
      3e: 30 00        	<unknown>

Disassembly of section .symtab:

00000000 <.symtab>:
		...
      10: 4a 00        	<unknown>
		...
      1a: 00 00        	<unknown>
      1c: 04 00        	<unknown>
      1e: f1 ff        	<unknown>
      20: 84 00        	<unknown>
		...
      2e: 04 00        	<unknown>
      30: 70 00        	<unknown>
      32: 00 00        	<unknown>
      34: 3c 00        	<unknown>
		...
      3e: 02 00        	<unknown>
      40: 68 00        	<unknown>
      42: 00 00        	<unknown>
      44: 44 00        	<unknown>
		...
      4e: 02 00        	<unknown>
      50: 78 00        	<unknown>
      52: 00 00        	<unknown>
      54: 44 00        	<unknown>
		...
      5e: 02 00        	<unknown>
      60: 27 00 00 00  	<unknown>
      64: 00 00        	<unknown>
      66: 00 00        	<unknown>
      68: 54 00        	<unknown>
      6a: 00 00        	<unknown>
      6c: 12 00        	<unknown>
      6e: 02 00        	<unknown>

/workspaces/snax_cluster/target/snitch_cluster/sw/math/build/libmath.a(ceilf.o):	file format elf32-littleriscv

Disassembly of section .strtab:

00000000 <.strtab>:
       0: 00 2e        	<unknown>
       2: 72 65        	<unknown>
       4: 6c 61        	<unknown>
       6: 2e 74        	<unknown>
       8: 65 78        	<unknown>
       a: 74 00        	<unknown>
       c: 2e 63        	<unknown>
       e: 6f 6d 6d 65  	jal	s10, 0xd6664 <.strtab+0xd6664>
      12: 6e 74        	<unknown>
      14: 00 2e        	<unknown>
      16: 72 69        	<unknown>
      18: 73 63 76 2e  	csrrsi	t1, 743, 12
      1c: 61 74        	<unknown>
      1e: 74 72        	<unknown>
      20: 69 62        	<unknown>
      22: 75 74        	<unknown>
      24: 65 73        	<unknown>
      26: 00 2e        	<unknown>
      28: 6e 6f        	<unknown>
      2a: 74 65        	<unknown>
      2c: 2e 47        	<unknown>
      2e: 4e 55        	<unknown>
      30: 2d 73        	<unknown>
      32: 74 61        	<unknown>
      34: 63 6b 00 2e  	bltu	zero, zero, 0x32a <.strtab+0x32a>
      38: 6c 6c        	<unknown>
      3a: 76 6d        	<unknown>
      3c: 5f 61 64 64  	<unknown>
      40: 72 73        	<unknown>
      42: 69 67        	<unknown>
      44: 00 63        	<unknown>
      46: 65 69        	<unknown>
      48: 6c 66        	<unknown>
      4a: 00 63        	<unknown>
      4c: 65 69        	<unknown>
      4e: 6c 66        	<unknown>
      50: 2e 63        	<unknown>
      52: 00 2e        	<unknown>
      54: 73 74 72 74  	csrrci	s0, mseccfg, 4
      58: 61 62        	<unknown>
      5a: 00 2e        	<unknown>
      5c: 73 79 6d 74  	csrrci	s2, 1862, 26
      60: 61 62        	<unknown>
      62: 00 2e        	<unknown>
      64: 4c 42        	<unknown>
      66: 42 30        	<unknown>
      68: 5f 39 00 2e  	<unknown>
      6c: 4c 42        	<unknown>
      6e: 42 30        	<unknown>
      70: 5f 38 00 2e  	<unknown>
      74: 4c 42        	<unknown>
      76: 42 30        	<unknown>
      78: 5f 37 00 2e  	<unknown>
      7c: 4c 42        	<unknown>
      7e: 42 30        	<unknown>
      80: 5f           	<unknown>
      81: 34 00        	<unknown>

Disassembly of section .text:

00000000 <ceilf>:
       0: 13 01 01 ff  	addi	sp, sp, -16
       4: 53 05 05 e0  	fmv.x.w	a0, fa0
       8: 93 15 15 00  	slli	a1, a0, 1
       c: 93 d5 85 01  	srli	a1, a1, 24
      10: 13 06 50 09  	li	a2, 149
      14: 63 60 b6 00  	bltu	a2, a1, 0x14 <ceilf+0x14>
      18: 13 06 f0 07  	li	a2, 127
      1c: 63 e0 c5 00  	bltu	a1, a2, 0x1c <ceilf+0x1c>
      20: 93 85 15 f8  	addi	a1, a1, -127
      24: 37 06 80 00  	lui	a2, 2048
      28: 13 06 f6 ff  	addi	a2, a2, -1
      2c: 33 56 b6 00  	srl	a2, a2, a1
      30: b3 76 a6 00  	and	a3, a2, a0
      34: 63 80 06 00  	beqz	a3, 0x34 <ceilf+0x34>
      38: b7 06 80 7b  	lui	a3, 505856
      3c: d3 87 06 f0  	fmv.w.x	fa5, a3
      40: d3 77 f5 00  	fadd.s	fa5, fa0, fa5
      44: 27 24 f1 00  	fsw	fa5, 8(sp)
      48: 93 26 05 00  	slti	a3, a0, 0
      4c: 37 07 80 ff  	lui	a4, 1046528
      50: b3 55 b7 40  	sra	a1, a4, a1
      54: 93 86 f6 ff  	addi	a3, a3, -1
      58: 33 f6 c6 00  	and	a2, a3, a2
      5c: 33 05 a6 00  	add	a0, a2, a0
      60: 33 75 b5 00  	and	a0, a0, a1
      64: 6f 00 00 00  	j	0x64 <ceilf+0x64>

00000068 <.LBB0_4>:
      68: b7 05 80 7b  	lui	a1, 505856
      6c: d3 87 05 f0  	fmv.w.x	fa5, a1
      70: d3 77 f5 00  	fadd.s	fa5, fa0, fa5
      74: 27 26 f1 00  	fsw	fa5, 12(sp)
      78: 63 40 05 00  	bltz	a0, 0x78 <.LBB0_4+0x10>
      7c: 63 00 05 00  	beqz	a0, 0x7c <.LBB0_4+0x14>
      80: 37 05 80 3f  	lui	a0, 260096
      84: 6f 00 00 00  	j	0x84 <.LBB0_4+0x1c>

00000088 <.LBB0_7>:
      88: 37 05 00 80  	lui	a0, 524288

0000008c <.LBB0_8>:
      8c: 53 05 05 f0  	fmv.w.x	fa0, a0

00000090 <.LBB0_9>:
      90: 13 01 01 01  	addi	sp, sp, 16
      94: 67 80 00 00  	ret

Disassembly of section .rela.text:

00000000 <.rela.text>:
       0: 14 00        	<unknown>
       2: 00 00        	<unknown>
       4: 10 02        	<unknown>
       6: 00 00        	<unknown>
       8: 00 00        	<unknown>
       a: 00 00        	<unknown>
       c: 1c 00        	<unknown>
       e: 00 00        	<unknown>
      10: 10 03        	<unknown>
      12: 00 00        	<unknown>
      14: 00 00        	<unknown>
      16: 00 00        	<unknown>
      18: 34 00        	<unknown>
      1a: 00 00        	<unknown>
      1c: 10 02        	<unknown>
      1e: 00 00        	<unknown>
      20: 00 00        	<unknown>
      22: 00 00        	<unknown>
      24: 64 00        	<unknown>
      26: 00 00        	<unknown>
      28: 11 04        	<unknown>
      2a: 00 00        	<unknown>
      2c: 00 00        	<unknown>
      2e: 00 00        	<unknown>
      30: 78 00        	<unknown>
      32: 00 00        	<unknown>
      34: 10 05        	<unknown>
      36: 00 00        	<unknown>
      38: 00 00        	<unknown>
      3a: 00 00        	<unknown>
      3c: 7c 00        	<unknown>
      3e: 00 00        	<unknown>
      40: 10 02        	<unknown>
      42: 00 00        	<unknown>
      44: 00 00        	<unknown>
      46: 00 00        	<unknown>
      48: 84 00        	<unknown>
      4a: 00 00        	<unknown>
      4c: 11 04        	<unknown>
      4e: 00 00        	<unknown>
      50: 00 00        	<unknown>
      52: 00 00        	<unknown>

Disassembly of section .comment:

00000000 <.comment>:
       0: 00 55        	<unknown>
       2: 62 75        	<unknown>
       4: 6e 74        	<unknown>
       6: 75 20        	<unknown>
       8: 63 6c 61 6e  	bltu	sp, t1, 0x700 <.comment+0x700>
       c: 67 20 76 65  	<unknown>
      10: 72 73        	<unknown>
      12: 69 6f        	<unknown>
      14: 6e 20        	<unknown>
      16: 31 37        	<unknown>
      18: 2e 30        	<unknown>
      1a: 2e 36        	<unknown>
      1c: 20 28        	<unknown>
      1e: 39 75        	<unknown>
      20: 62 75        	<unknown>
      22: 6e 74        	<unknown>
      24: 75 31        	<unknown>
      26: 29 00        	<unknown>

Disassembly of section .riscv.attributes:

00000000 <.riscv.attributes>:
       0: 41 3f        	<unknown>
       2: 00 00        	<unknown>
       4: 00 72        	<unknown>
       6: 69 73        	<unknown>
       8: 63 76 00 01  	bgeu	zero, a6, 0x14 <.riscv.attributes+0x14>
       c: 35 00        	<unknown>
       e: 00 00        	<unknown>
      10: 04 10        	<unknown>
      12: 05 72        	<unknown>
      14: 76 33        	<unknown>
      16: 32 69        	<unknown>
      18: 32 70        	<unknown>
      1a: 31 5f        	<unknown>
      1c: 6d 32        	<unknown>
      1e: 70 30        	<unknown>
      20: 5f 61 32 70  	<unknown>
      24: 31 5f        	<unknown>
      26: 66 32        	<unknown>
      28: 70 32        	<unknown>
      2a: 5f 64 32 70  	<unknown>
      2e: 32 5f        	<unknown>
      30: 7a 69        	<unknown>
      32: 63 73 72 32  	bgeu	tp, t2, 0x358 <.riscv.attributes+0x358>
      36: 70 30        	<unknown>
      38: 5f 7a 66 68  	<unknown>
      3c: 31 70        	<unknown>
      3e: 30 00        	<unknown>

Disassembly of section .symtab:

00000000 <.symtab>:
		...
      10: 4b 00 00 00  	fnmsub.s	ft0, ft0, ft0, ft0, rne
		...
      1c: 04 00        	<unknown>
      1e: f1 ff        	<unknown>
      20: 63 00 00 00  	beqz	zero, 0x20 <.symtab+0x20>
      24: 90 00        	<unknown>
		...
      2e: 02 00        	<unknown>
      30: 7b 00 00 00  	<unknown>
      34: 68 00        	<unknown>
		...
      3e: 02 00        	<unknown>
      40: 6b 00 00 00  	<unknown>
      44: 8c 00        	<unknown>
		...
      4e: 02 00        	<unknown>
      50: 73 00 00 00  	ecall
      54: 88 00        	<unknown>
		...
      5e: 02 00        	<unknown>
      60: 45 00        	<unknown>
      62: 00 00        	<unknown>
      64: 00 00        	<unknown>
      66: 00 00        	<unknown>
      68: 98 00        	<unknown>
      6a: 00 00        	<unknown>
      6c: 12 00        	<unknown>
      6e: 02 00        	<unknown>

/workspaces/snax_cluster/target/snitch_cluster/sw/math/build/libmath.a(ceill.o):	file format elf32-littleriscv

Disassembly of section .strtab:

00000000 <.strtab>:
       0: 00 2e        	<unknown>
       2: 72 65        	<unknown>
       4: 6c 61        	<unknown>
       6: 2e 74        	<unknown>
       8: 65 78        	<unknown>
       a: 74 00        	<unknown>
       c: 2e 63        	<unknown>
       e: 6f 6d 6d 65  	jal	s10, 0xd6664 <.strtab+0xd6664>
      12: 6e 74        	<unknown>
      14: 00 2e        	<unknown>
      16: 72 69        	<unknown>
      18: 73 63 76 2e  	csrrsi	t1, 743, 12
      1c: 61 74        	<unknown>
      1e: 74 72        	<unknown>
      20: 69 62        	<unknown>
      22: 75 74        	<unknown>
      24: 65 73        	<unknown>
      26: 00 63        	<unknown>
      28: 65 69        	<unknown>
      2a: 6c 6c        	<unknown>
      2c: 00 2e        	<unknown>
      2e: 6e 6f        	<unknown>
      30: 74 65        	<unknown>
      32: 2e 47        	<unknown>
      34: 4e 55        	<unknown>
      36: 2d 73        	<unknown>
      38: 74 61        	<unknown>
      3a: 63 6b 00 2e  	bltu	zero, zero, 0x330 <.strtab+0x330>
      3e: 6c 6c        	<unknown>
      40: 76 6d        	<unknown>
      42: 5f 61 64 64  	<unknown>
      46: 72 73        	<unknown>
      48: 69 67        	<unknown>
      4a: 00 63        	<unknown>
      4c: 65 69        	<unknown>
      4e: 6c 6c        	<unknown>
      50: 2e 63        	<unknown>
      52: 00 2e        	<unknown>
      54: 73 74 72 74  	csrrci	s0, mseccfg, 4
      58: 61 62        	<unknown>
      5a: 00 2e        	<unknown>
      5c: 73 79 6d 74  	csrrci	s2, 1862, 26
      60: 61 62        	<unknown>
      62: 00 2e        	<unknown>
      64: 4c 42        	<unknown>
      66: 42 30        	<unknown>
      68: 5f 34 00 2e  	<unknown>
      6c: 4c 42        	<unknown>
      6e: 42 30        	<unknown>
      70: 5f 33 00 5f  	<unknown>
      74: 5f 6e 65 74  	<unknown>
      78: 66 32        	<unknown>
      7a: 00           	<unknown>

Disassembly of section .text:

00000000 <ceill>:
       0: 13 01 01 fb  	addi	sp, sp, -80
       4: 23 26 11 04  	sw	ra, 76(sp)
       8: 23 24 81 04  	sw	s0, 72(sp)
       c: 23 22 91 04  	sw	s1, 68(sp)
      10: 23 20 21 05  	sw	s2, 64(sp)
      14: 23 2e 31 03  	sw	s3, 60(sp)
      18: 23 2c 41 03  	sw	s4, 56(sp)
      1c: 23 2a 51 03  	sw	s5, 52(sp)
      20: 23 28 61 03  	sw	s6, 48(sp)
      24: 13 04 05 00  	mv	s0, a0
      28: 83 a4 c5 00  	lw	s1, 12(a1)
      2c: 03 a9 05 00  	lw	s2, 0(a1)
      30: 83 a9 45 00  	lw	s3, 4(a1)
      34: 03 aa 85 00  	lw	s4, 8(a1)
      38: 93 da 04 01  	srli	s5, s1, 16
      3c: 13 95 1a 01  	slli	a0, s5, 17
      40: 13 5b 15 01  	srli	s6, a0, 17
      44: 23 26 01 00  	sw	zero, 12(sp)
      48: 23 24 01 00  	sw	zero, 8(sp)
      4c: 23 22 01 00  	sw	zero, 4(sp)
      50: 23 20 01 00  	sw	zero, 0(sp)
      54: 23 2e 91 00  	sw	s1, 28(sp)
      58: 23 2c 41 01  	sw	s4, 24(sp)
      5c: 23 2a 31 01  	sw	s3, 20(sp)
      60: 13 05 01 01  	addi	a0, sp, 16
      64: 93 05 01 00  	mv	a1, sp
      68: 23 28 21 01  	sw	s2, 16(sp)
      6c: 97 00 00 00  	auipc	ra, 0
      70: e7 80 00 00  	jalr	ra
      74: 33 35 a0 00  	snez	a0, a0
      78: b7 45 00 00  	lui	a1, 4
      7c: 93 85 f5 ff  	addi	a1, a1, -1
      80: b3 35 bb 00  	sltu	a1, s6, a1
      84: 33 f5 a5 00  	and	a0, a1, a0
      88: 63 00 05 00  	beqz	a0, 0x88 <ceill+0x88>
      8c: 13 d5 fa 00  	srli	a0, s5, 15
      90: 23 26 01 02  	sw	zero, 44(sp)
      94: 23 24 01 02  	sw	zero, 40(sp)
      98: 23 22 01 02  	sw	zero, 36(sp)
      9c: 23 20 01 02  	sw	zero, 32(sp)
      a0: b7 04 ff 3f  	lui	s1, 262128
      a4: 63 00 05 00  	beqz	a0, 0xa4 <ceill+0xa4>
      a8: b7 04 00 80  	lui	s1, 524288

000000ac <.LBB0_3>:
      ac: 13 09 00 00  	li	s2, 0
      b0: 93 09 00 00  	li	s3, 0
      b4: 13 0a 00 00  	li	s4, 0

000000b8 <.LBB0_4>:
      b8: 23 20 24 01  	sw	s2, 0(s0)
      bc: 23 22 34 01  	sw	s3, 4(s0)
      c0: 23 24 44 01  	sw	s4, 8(s0)
      c4: 23 26 94 00  	sw	s1, 12(s0)
      c8: 83 20 c1 04  	lw	ra, 76(sp)
      cc: 03 24 81 04  	lw	s0, 72(sp)
      d0: 83 24 41 04  	lw	s1, 68(sp)
      d4: 03 29 01 04  	lw	s2, 64(sp)
      d8: 83 29 c1 03  	lw	s3, 60(sp)
      dc: 03 2a 81 03  	lw	s4, 56(sp)
      e0: 83 2a 41 03  	lw	s5, 52(sp)
      e4: 03 2b 01 03  	lw	s6, 48(sp)
      e8: 13 01 01 05  	addi	sp, sp, 80
      ec: 67 80 00 00  	ret

Disassembly of section .rela.text:

00000000 <.rela.text>:
       0: 6c 00        	<unknown>
       2: 00 00        	<unknown>
       4: 13 05 00 00  	li	a0, 0
       8: 00 00        	<unknown>
       a: 00 00        	<unknown>
       c: 6c 00        	<unknown>
       e: 00 00        	<unknown>
      10: 33 00 00 00  	add	zero, zero, zero
      14: 00 00        	<unknown>
      16: 00 00        	<unknown>
      18: 88 00        	<unknown>
      1a: 00 00        	<unknown>
      1c: 10 02        	<unknown>
      1e: 00 00        	<unknown>
      20: 00 00        	<unknown>
      22: 00 00        	<unknown>
      24: a4 00        	<unknown>
      26: 00 00        	<unknown>
      28: 10 03        	<unknown>
      2a: 00 00        	<unknown>
      2c: 00 00        	<unknown>
      2e: 00 00        	<unknown>

Disassembly of section .comment:

00000000 <.comment>:
       0: 00 55        	<unknown>
       2: 62 75        	<unknown>
       4: 6e 74        	<unknown>
       6: 75 20        	<unknown>
       8: 63 6c 61 6e  	bltu	sp, t1, 0x700 <.comment+0x700>
       c: 67 20 76 65  	<unknown>
      10: 72 73        	<unknown>
      12: 69 6f        	<unknown>
      14: 6e 20        	<unknown>
      16: 31 37        	<unknown>
      18: 2e 30        	<unknown>
      1a: 2e 36        	<unknown>
      1c: 20 28        	<unknown>
      1e: 39 75        	<unknown>
      20: 62 75        	<unknown>
      22: 6e 74        	<unknown>
      24: 75 31        	<unknown>
      26: 29 00        	<unknown>

Disassembly of section .riscv.attributes:

00000000 <.riscv.attributes>:
       0: 41 3f        	<unknown>
       2: 00 00        	<unknown>
       4: 00 72        	<unknown>
       6: 69 73        	<unknown>
       8: 63 76 00 01  	bgeu	zero, a6, 0x14 <.riscv.attributes+0x14>
       c: 35 00        	<unknown>
       e: 00 00        	<unknown>
      10: 04 10        	<unknown>
      12: 05 72        	<unknown>
      14: 76 33        	<unknown>
      16: 32 69        	<unknown>
      18: 32 70        	<unknown>
      1a: 31 5f        	<unknown>
      1c: 6d 32        	<unknown>
      1e: 70 30        	<unknown>
      20: 5f 61 32 70  	<unknown>
      24: 31 5f        	<unknown>
      26: 66 32        	<unknown>
      28: 70 32        	<unknown>
      2a: 5f 64 32 70  	<unknown>
      2e: 32 5f        	<unknown>
      30: 7a 69        	<unknown>
      32: 63 73 72 32  	bgeu	tp, t2, 0x358 <.riscv.attributes+0x358>
      36: 70 30        	<unknown>
      38: 5f 7a 66 68  	<unknown>
      3c: 31 70        	<unknown>
      3e: 30 00        	<unknown>

Disassembly of section .symtab:

00000000 <.symtab>:
		...
      10: 4b 00 00 00  	fnmsub.s	ft0, ft0, ft0, ft0, rne
		...
      1c: 04 00        	<unknown>
      1e: f1 ff        	<unknown>
      20: 63 00 00 00  	beqz	zero, 0x20 <.symtab+0x20>
      24: b8 00        	<unknown>
		...
      2e: 02 00        	<unknown>
      30: 6b 00 00 00  	<unknown>
      34: ac 00        	<unknown>
		...
      3e: 02 00        	<unknown>
      40: 27 00 00 00  	<unknown>
      44: 00 00        	<unknown>
      46: 00 00        	<unknown>
      48: f0 00        	<unknown>
      4a: 00 00        	<unknown>
      4c: 12 00        	<unknown>
      4e: 02 00        	<unknown>
      50: 73 00 00 00  	ecall
		...
      5c: 10 00        	<unknown>
      5e: 00 00        	<unknown>

/workspaces/snax_cluster/target/snitch_cluster/sw/math/build/libmath.a(exp2f_data.o):	file format elf32-littleriscv

Disassembly of section .strtab:

00000000 <.strtab>:
       0: 00 2e        	<unknown>
       2: 74 65        	<unknown>
       4: 78 74        	<unknown>
       6: 00 2e        	<unknown>
       8: 63 6f 6d 6d  	bltu	s10, s6, 0x6e6 <.strtab+0x6e6>
       c: 65 6e        	<unknown>
       e: 74 00        	<unknown>
      10: 2e 72        	<unknown>
      12: 69 73        	<unknown>
      14: 63 76 2e 61  	bgeu	t3, s2, 0x620 <.strtab+0x620>
      18: 74 74        	<unknown>
      1a: 72 69        	<unknown>
      1c: 62 75        	<unknown>
      1e: 74 65        	<unknown>
      20: 73 00 2e 6e  	<unknown>
      24: 6f 74 65 2e  	jal	s0, 0x5730a <.strtab+0x5730a>
      28: 47 4e 55 2d  	fmsub.h	ft8, fa0, fs5, ft5, rmm
      2c: 73 74 61 63  	csrrci	s0, 1590, 2
      30: 6b 00 2e 6c  	<unknown>
      34: 6c 76        	<unknown>
      36: 6d 5f        	<unknown>
      38: 61 64        	<unknown>
      3a: 64 72        	<unknown>
      3c: 73 69 67 00  	csrrsi	s2, 6, 14
      40: 65 78        	<unknown>
      42: 70 32        	<unknown>
      44: 66 5f        	<unknown>
      46: 64 61        	<unknown>
      48: 74 61        	<unknown>
      4a: 2e 63        	<unknown>
      4c: 00 2e        	<unknown>
      4e: 73 74 72 74  	csrrci	s0, mseccfg, 4
      52: 61 62        	<unknown>
      54: 00 2e        	<unknown>
      56: 73 79 6d 74  	csrrci	s2, 1862, 26
      5a: 61 62        	<unknown>
      5c: 00 2e        	<unknown>
      5e: 72 6f        	<unknown>
      60: 64 61        	<unknown>
      62: 74 61        	<unknown>
      64: 00 5f        	<unknown>
      66: 5f 65 78 70  	<unknown>
      6a: 32 66        	<unknown>
      6c: 5f 64 61 74  	<unknown>
      70: 61 00        	<unknown>

Disassembly of section .rodata:

00000000 <__exp2f_data>:
       0: 00 00        	<unknown>
       2: 00 00        	<unknown>
       4: 00 00        	<unknown>
       6: f0 3f        	<unknown>
       8: 74 85        	<unknown>
       a: 15 d3        	<unknown>
       c: b0 d9        	<unknown>
       e: ef 3f 0f 89  	jal	t6, 0xffff309e <__exp2f_data+0xffffffffffff309e>
      12: f9 6c        	<unknown>
      14: 58 b5        	<unknown>
      16: ef 3f 51 5b  	jal	t6, 0x13dca <__exp2f_data+0x13dca>
      1a: 12 d0        	<unknown>
      1c: 01 93        	<unknown>
      1e: ef 3f 7b 51  	jal	t6, 0xb3d34 <__exp2f_data+0xb3d34>
      22: 7d 3c        	<unknown>
      24: b8 72        	<unknown>
      26: ef 3f aa b9  	jal	t6, 0xfffa33c0 <__exp2f_data+0xfffffffffffa33c0>
      2a: 68 31        	<unknown>
      2c: 87 54 ef 3f  	<unknown>
      30: 38 62        	<unknown>
      32: 75 6e        	<unknown>
      34: 7a 38        	<unknown>
      36: ef 3f e1 de  	jal	t6, 0xfff13624 <__exp2f_data+0xfffffffffff13624>
      3a: 1f f5 9d 1e  	<unknown>
      3e: ef 3f 15 b7  	jal	t6, 0xfff53bae <__exp2f_data+0xfffffffffff53bae>
      42: 31 0a        	<unknown>
      44: fe 06        	<unknown>
      46: ef 3f cb a9  	jal	t6, 0xfffb32e2 <__exp2f_data+0xfffffffffffb32e2>
      4a: 3a 37        	<unknown>
      4c: a7 f1 ee 3f  	<unknown>
      50: 22 34        	<unknown>
      52: 12 4c        	<unknown>
      54: a6 de        	<unknown>
      56: ee 3f        	<unknown>
      58: 2d 89        	<unknown>
      5a: 61 60        	<unknown>
      5c: 08 ce        	<unknown>
      5e: ee 3f        	<unknown>
      60: 27 2a 36 d5  	fsw	fs3, -684(a2)
      64: da bf        	<unknown>
      66: ee 3f        	<unknown>
      68: 82 4f        	<unknown>
      6a: 9d 56        	<unknown>
      6c: 2b b4 ee 3f  	<unknown>
      70: 29 54        	<unknown>
      72: 48 dd        	<unknown>
      74: 07 ab ee 3f  	flw	fs6, 1022(t4)
      78: 85 55        	<unknown>
      7a: 3a b0        	<unknown>
      7c: 7e a4        	<unknown>
      7e: ee 3f        	<unknown>
      80: cd 3b        	<unknown>
      82: 7f 66 9e a0  	<unknown>
      86: ee 3f        	<unknown>
      88: 74 5f        	<unknown>
      8a: ec e8        	<unknown>
      8c: 75 9f        	<unknown>
      8e: ee 3f        	<unknown>
      90: 87 01 eb 73  	<unknown>
      94: 14 a1        	<unknown>
      96: ee 3f        	<unknown>
      98: 13 ce 4c 99  	xori	t3, s9, -1644
      9c: 89 a5        	<unknown>
      9e: ee 3f        	<unknown>
      a0: db a0 2a 42  	<unknown>
      a4: e5 ac        	<unknown>
      a6: ee 3f        	<unknown>
      a8: e5 c5        	<unknown>
      aa: cd b0        	<unknown>
      ac: 37 b7 ee 3f  	lui	a4, 261867
      b0: 90 f0        	<unknown>
      b2: a3 82 91 c4  	sb	s1, -955(gp)
      b6: ee 3f        	<unknown>
      b8: 5d 25        	<unknown>
      ba: 3e b2        	<unknown>
      bc: 03 d5 ee 3f  	lhu	a0, 1022(t4)
      c0: ad d3        	<unknown>
      c2: 5a 99        	<unknown>
      c4: 9f e8 ee 3f  	<unknown>
      c8: 47 5e fb f2  	<unknown>
      cc: 76 ff        	<unknown>
      ce: ee 3f        	<unknown>
      d0: 9c 52        	<unknown>
      d2: 85 dd        	<unknown>
      d4: 9b 19 ef 3f  	<unknown>
      d8: 69 90        	<unknown>
      da: ef dc 20 37  	jal	s9, 0xd44c <__exp2f_data+0xd44c>
      de: ef 3f 87 a4  	jal	t6, 0xfff73326 <__exp2f_data+0xfffffffffff73326>
      e2: fb dc 18 58  	<unknown>
      e6: ef 3f 5f 9b  	jal	t6, 0xffff3a9a <__exp2f_data+0xffffffffffff3a9a>
      ea: 7b 33 97 7c  	<unknown>
      ee: ef 3f da 90  	jal	t6, 0xfffa39fa <__exp2f_data+0xfffffffffffa39fa>
      f2: a4 a2        	<unknown>
      f4: af a4 ef 3f  	<unknown>
      f8: 40 45        	<unknown>
      fa: 6e 5b        	<unknown>
      fc: 76 d0        	<unknown>
      fe: ef 3f 00 00  	jal	t6, 0x30fe <__exp2f_data+0x30fe>
     102: 00 00        	<unknown>
     104: 00 00        	<unknown>
     106: e8 42        	<unknown>
     108: 94 23        	<unknown>
     10a: 91 4b        	<unknown>
     10c: f8 6a        	<unknown>
     10e: ac 3f        	<unknown>
     110: f3 c4 fa 50  	<unknown>
     114: ce bf        	<unknown>
     116: ce 3f        	<unknown>
     118: d6 52        	<unknown>
     11a: 0c ff        	<unknown>
     11c: 42 2e        	<unknown>
     11e: e6 3f        	<unknown>
     120: 00 00        	<unknown>
     122: 00 00        	<unknown>
     124: 00 00        	<unknown>
     126: 38 43        	<unknown>
     128: fe 82        	<unknown>
     12a: 2b 65 47 15  	<unknown>
     12e: 47 40 94 23  	fmsub.d	ft0, fs0, fs9, ft4, rmm
     132: 91 4b        	<unknown>
     134: f8 6a        	<unknown>
     136: bc 3e        	<unknown>
     138: f3 c4 fa 50  	<unknown>
     13c: ce bf        	<unknown>
     13e: 2e 3f        	<unknown>
     140: d6 52        	<unknown>
     142: 0c ff        	<unknown>
     144: 42 2e        	<unknown>
     146: 96 3f        	<unknown>

Disassembly of section .comment:

00000000 <.comment>:
       0: 00 55        	<unknown>
       2: 62 75        	<unknown>
       4: 6e 74        	<unknown>
       6: 75 20        	<unknown>
       8: 63 6c 61 6e  	bltu	sp, t1, 0x700 <.comment+0x700>
       c: 67 20 76 65  	<unknown>
      10: 72 73        	<unknown>
      12: 69 6f        	<unknown>
      14: 6e 20        	<unknown>
      16: 31 37        	<unknown>
      18: 2e 30        	<unknown>
      1a: 2e 36        	<unknown>
      1c: 20 28        	<unknown>
      1e: 39 75        	<unknown>
      20: 62 75        	<unknown>
      22: 6e 74        	<unknown>
      24: 75 31        	<unknown>
      26: 29 00        	<unknown>

Disassembly of section .riscv.attributes:

00000000 <.riscv.attributes>:
       0: 41 3f        	<unknown>
       2: 00 00        	<unknown>
       4: 00 72        	<unknown>
       6: 69 73        	<unknown>
       8: 63 76 00 01  	bgeu	zero, a6, 0x14 <.riscv.attributes+0x14>
       c: 35 00        	<unknown>
       e: 00 00        	<unknown>
      10: 04 10        	<unknown>
      12: 05 72        	<unknown>
      14: 76 33        	<unknown>
      16: 32 69        	<unknown>
      18: 32 70        	<unknown>
      1a: 31 5f        	<unknown>
      1c: 6d 32        	<unknown>
      1e: 70 30        	<unknown>
      20: 5f 61 32 70  	<unknown>
      24: 31 5f        	<unknown>
      26: 66 32        	<unknown>
      28: 70 32        	<unknown>
      2a: 5f 64 32 70  	<unknown>
      2e: 32 5f        	<unknown>
      30: 7a 69        	<unknown>
      32: 63 73 72 32  	bgeu	tp, t2, 0x358 <.riscv.attributes+0x358>
      36: 70 30        	<unknown>
      38: 5f 7a 66 68  	<unknown>
      3c: 31 70        	<unknown>
      3e: 30 00        	<unknown>

Disassembly of section .symtab:

00000000 <.symtab>:
		...
      10: 40 00        	<unknown>
		...
      1a: 00 00        	<unknown>
      1c: 04 00        	<unknown>
      1e: f1 ff        	<unknown>
      20: 65 00        	<unknown>
      22: 00 00        	<unknown>
      24: 00 00        	<unknown>
      26: 00 00        	<unknown>
      28: 48 01        	<unknown>
      2a: 00 00        	<unknown>
      2c: 11 02        	<unknown>
      2e: 03           	<unknown>
      2f: 00           	<unknown>

/workspaces/snax_cluster/target/snitch_cluster/sw/math/build/libmath.a(expf.o):	file format elf32-littleriscv

Disassembly of section .strtab:

00000000 <.strtab>:
       0: 00 2e        	<unknown>
       2: 72 65        	<unknown>
       4: 6c 61        	<unknown>
       6: 2e 74        	<unknown>
       8: 65 78        	<unknown>
       a: 74 00        	<unknown>
       c: 2e 63        	<unknown>
       e: 6f 6d 6d 65  	jal	s10, 0xd6664 <.strtab+0xd6664>
      12: 6e 74        	<unknown>
      14: 00 2e        	<unknown>
      16: 72 69        	<unknown>
      18: 73 63 76 2e  	csrrsi	t1, 743, 12
      1c: 61 74        	<unknown>
      1e: 74 72        	<unknown>
      20: 69 62        	<unknown>
      22: 75 74        	<unknown>
      24: 65 73        	<unknown>
      26: 00 2e        	<unknown>
      28: 6e 6f        	<unknown>
      2a: 74 65        	<unknown>
      2c: 2e 47        	<unknown>
      2e: 4e 55        	<unknown>
      30: 2d 73        	<unknown>
      32: 74 61        	<unknown>
      34: 63 6b 00 2e  	bltu	zero, zero, 0x32a <.strtab+0x32a>
      38: 6c 6c        	<unknown>
      3a: 76 6d        	<unknown>
      3c: 5f 61 64 64  	<unknown>
      40: 72 73        	<unknown>
      42: 69 67        	<unknown>
      44: 00 5f        	<unknown>
      46: 5f 6d 61 74  	<unknown>
      4a: 68 5f        	<unknown>
      4c: 75 66        	<unknown>
      4e: 6c 6f        	<unknown>
      50: 77 66 00 5f  	<unknown>
      54: 5f 6d 61 74  	<unknown>
      58: 68 5f        	<unknown>
      5a: 6f 66 6c 6f  	jal	a2, 0xc6750 <.strtab+0xc6750>
      5e: 77 66 00 65  	<unknown>
      62: 78 70        	<unknown>
      64: 66 00        	<unknown>
      66: 65 78        	<unknown>
      68: 70 66        	<unknown>
      6a: 2e 63        	<unknown>
      6c: 00 2e        	<unknown>
      6e: 73 74 72 74  	csrrci	s0, mseccfg, 4
      72: 61 62        	<unknown>
      74: 00 2e        	<unknown>
      76: 73 79 6d 74  	csrrci	s2, 1862, 26
      7a: 61 62        	<unknown>
      7c: 00 2e        	<unknown>
      7e: 73 64 61 74  	csrrsi	s0, 1862, 2
      82: 61 00        	<unknown>
      84: 5f 5f 65 78  	<unknown>
      88: 70 32        	<unknown>
      8a: 66 5f        	<unknown>
      8c: 64 61        	<unknown>
      8e: 74 61        	<unknown>
      90: 00 2e        	<unknown>
      92: 4c 42        	<unknown>
      94: 42 30        	<unknown>
      96: 5f 38 00 2e  	<unknown>
      9a: 4c 42        	<unknown>
      9c: 42 30        	<unknown>
      9e: 5f 37 00 2e  	<unknown>
      a2: 4c 42        	<unknown>
      a4: 42 30        	<unknown>
      a6: 5f 34 00 2e  	<unknown>
      aa: 4c 70        	<unknown>
      ac: 63 72 65 6c  	bgeu	a0, t1, 0x770 <.strtab+0x770>
      b0: 5f 68 69 32  	<unknown>
      b4: 00 2e        	<unknown>
      b6: 4c 42        	<unknown>
      b8: 42 30        	<unknown>
      ba: 5f 32 00 2e  	<unknown>
      be: 4c 70        	<unknown>
      c0: 63 72 65 6c  	bgeu	a0, t1, 0x784 <.strtab+0x784>
      c4: 5f 68 69 31  	<unknown>
      c8: 00 2e        	<unknown>
      ca: 4c 43        	<unknown>
      cc: 50 49        	<unknown>
      ce: 30 5f        	<unknown>
      d0: 31 00        	<unknown>
      d2: 2e 4c        	<unknown>
      d4: 42 42        	<unknown>
      d6: 30 5f        	<unknown>
      d8: 31 00        	<unknown>
      da: 2e 4c        	<unknown>
      dc: 70 63        	<unknown>
      de: 72 65        	<unknown>
      e0: 6c 5f        	<unknown>
      e2: 68 69        	<unknown>
      e4: 30 00        	<unknown>
      e6: 2e 4c        	<unknown>
      e8: 43 50 49 30  	<unknown>
      ec: 5f           	<unknown>
      ed: 30 00        	<unknown>

Disassembly of section .text:

00000000 <expf>:
       0: 53 05 05 e0  	fmv.x.w	a0, fa0
       4: 13 05 05 00  	mv	a0, a0
       8: d3 05 05 e0  	fmv.x.w	a1, fa0
       c: 13 95 15 00  	slli	a0, a1, 1
      10: 53 06 05 e0  	fmv.x.w	a2, fa0
      14: 13 06 06 00  	mv	a2, a2
      18: 13 55 55 01  	srli	a0, a0, 21
      1c: 13 06 b0 42  	li	a2, 1067
      20: 63 70 c5 00  	bgeu	a0, a2, 0x20 <expf+0x20>

00000024 <.LBB0_1>:
      24: 13 01 01 ff  	addi	sp, sp, -16

00000028 <.Lpcrel_hi2>:
      28: 17 05 00 00  	auipc	a0, 0
      2c: 13 05 05 00  	mv	a0, a0
      30: 87 37 85 12  	fld	fa5, 296(a0)
      34: 07 37 05 12  	fld	fa4, 288(a0)
      38: d3 06 05 42  	fcvt.d.s	fa3, fa0
      3c: c3 f7 d7 72  	fmadd.d	fa5, fa5, fa3, fa4
      40: d3 05 05 e0  	fmv.x.w	a1, fa0
      44: 93 85 05 00  	mv	a1, a1
      48: 27 34 f1 00  	fsd	fa5, 8(sp)
      4c: 83 25 81 00  	lw	a1, 8(sp)
      50: 13 f6 f5 01  	andi	a2, a1, 31
      54: 13 16 36 00  	slli	a2, a2, 3
      58: 33 05 c5 00  	add	a0, a0, a2
      5c: 03 26 05 00  	lw	a2, 0(a0)
      60: 03 25 45 00  	lw	a0, 4(a0)
      64: 93 95 f5 00  	slli	a1, a1, 15
      68: 23 20 c1 00  	sw	a2, 0(sp)
      6c: 33 85 a5 00  	add	a0, a1, a0
      70: 23 22 a1 00  	sw	a0, 4(sp)
      74: 87 37 01 00  	fld	fa5, 0(sp)
      78: 53 05 05 e0  	fmv.x.w	a0, fa0
      7c: 13 05 05 00  	mv	a0, a0
      80: 53 f5 17 40  	fcvt.s.d	fa0, fa5
      84: 13 01 01 01  	addi	sp, sp, 16
      88: 67 80 00 00  	ret

0000008c <.LBB0_2>:
      8c: 53 06 05 e0  	fmv.x.w	a2, fa0
      90: 13 06 06 00  	mv	a2, a2
      94: 53 06 05 e0  	fmv.x.w	a2, fa0
      98: 13 06 06 00  	mv	a2, a2
      9c: 37 06 80 ff  	lui	a2, 1046528
      a0: 63 90 c5 00  	bne	a1, a2, 0xa0 <.LBB0_2+0x14>
      a4: 53 05 00 f0  	fmv.w.x	fa0, zero
      a8: 67 80 00 00  	ret

000000ac <.LBB0_4>:
      ac: d3 05 05 e0  	fmv.x.w	a1, fa0
      b0: 93 85 05 00  	mv	a1, a1
      b4: 93 05 80 7f  	li	a1, 2040
      b8: 63 70 b5 00  	bgeu	a0, a1, 0xb8 <.LBB0_4+0xc>

000000bc <.Lpcrel_hi0>:
      bc: 17 05 00 00  	auipc	a0, 0
      c0: 87 27 05 00  	flw	fa5, 0(a0)
      c4: 53 05 f5 a0  	fle.s	a0, fa0, fa5
      c8: 63 10 05 00  	bnez	a0, 0xc8 <.Lpcrel_hi0+0xc>
      cc: 17 03 00 00  	auipc	t1, 0
      d0: 67 00 03 00  	jr	t1

000000d4 <.LBB0_7>:
      d4: 53 75 a5 00  	fadd.s	fa0, fa0, fa0
      d8: 67 80 00 00  	ret

000000dc <.Lpcrel_hi1>:
      dc: 17 05 00 00  	auipc	a0, 0
      e0: 87 27 05 00  	flw	fa5, 0(a0)
      e4: 53 85 a7 a0  	fle.s	a0, fa5, fa0
      e8: 63 10 05 00  	bnez	a0, 0xe8 <.Lpcrel_hi1+0xc>
      ec: 17 03 00 00  	auipc	t1, 0
      f0: 67 00 03 00  	jr	t1

Disassembly of section .rela.text:

00000000 <.rela.text>:
       0: 20 00        	<unknown>
       2: 00 00        	<unknown>
       4: 10 04        	<unknown>
       6: 00 00        	<unknown>
       8: 00 00        	<unknown>
       a: 00 00        	<unknown>
       c: 28 00        	<unknown>
       e: 00 00        	<unknown>
      10: 17 0d 00 00  	auipc	s10, 0
      14: 00 00        	<unknown>
      16: 00 00        	<unknown>
      18: 28 00        	<unknown>
      1a: 00 00        	<unknown>
      1c: 33 00 00 00  	add	zero, zero, zero
      20: 00 00        	<unknown>
      22: 00 00        	<unknown>
      24: 2c 00        	<unknown>
      26: 00 00        	<unknown>
      28: 18 06        	<unknown>
      2a: 00 00        	<unknown>
      2c: 00 00        	<unknown>
      2e: 00 00        	<unknown>
      30: 2c 00        	<unknown>
      32: 00 00        	<unknown>
      34: 33 00 00 00  	add	zero, zero, zero
      38: 00 00        	<unknown>
      3a: 00 00        	<unknown>
      3c: a0 00        	<unknown>
      3e: 00 00        	<unknown>
      40: 10 07        	<unknown>
      42: 00 00        	<unknown>
      44: 00 00        	<unknown>
      46: 00 00        	<unknown>
      48: b8 00        	<unknown>
      4a: 00 00        	<unknown>
      4c: 10 08        	<unknown>
      4e: 00 00        	<unknown>
      50: 00 00        	<unknown>
      52: 00 00        	<unknown>
      54: bc 00        	<unknown>
      56: 00 00        	<unknown>
      58: 17 02 00 00  	auipc	tp, 0
      5c: 00 00        	<unknown>
      5e: 00 00        	<unknown>
      60: bc 00        	<unknown>
      62: 00 00        	<unknown>
      64: 33 00 00 00  	add	zero, zero, zero
      68: 00 00        	<unknown>
      6a: 00 00        	<unknown>
      6c: c0 00        	<unknown>
      6e: 00 00        	<unknown>
      70: 18 09        	<unknown>
      72: 00 00        	<unknown>
      74: 00 00        	<unknown>
      76: 00 00        	<unknown>
      78: c0 00        	<unknown>
      7a: 00 00        	<unknown>
      7c: 33 00 00 00  	add	zero, zero, zero
      80: 00 00        	<unknown>
      82: 00 00        	<unknown>
      84: c8 00        	<unknown>
      86: 00 00        	<unknown>
      88: 10 0a        	<unknown>
      8a: 00 00        	<unknown>
      8c: 00 00        	<unknown>
      8e: 00 00        	<unknown>
      90: cc 00        	<unknown>
      92: 00 00        	<unknown>
      94: 13 0e 00 00  	li	t3, 0
      98: 00 00        	<unknown>
      9a: 00 00        	<unknown>
      9c: cc 00        	<unknown>
      9e: 00 00        	<unknown>
      a0: 33 00 00 00  	add	zero, zero, zero
      a4: 00 00        	<unknown>
      a6: 00 00        	<unknown>
      a8: dc 00        	<unknown>
      aa: 00 00        	<unknown>
      ac: 17 03 00 00  	auipc	t1, 0
      b0: 00 00        	<unknown>
      b2: 00 00        	<unknown>
      b4: dc 00        	<unknown>
      b6: 00 00        	<unknown>
      b8: 33 00 00 00  	add	zero, zero, zero
      bc: 00 00        	<unknown>
      be: 00 00        	<unknown>
      c0: e0 00        	<unknown>
      c2: 00 00        	<unknown>
      c4: 18 0b        	<unknown>
      c6: 00 00        	<unknown>
      c8: 00 00        	<unknown>
      ca: 00 00        	<unknown>
      cc: e0 00        	<unknown>
      ce: 00 00        	<unknown>
      d0: 33 00 00 00  	add	zero, zero, zero
      d4: 00 00        	<unknown>
      d6: 00 00        	<unknown>
      d8: e8 00        	<unknown>
      da: 00 00        	<unknown>
      dc: 10 05        	<unknown>
      de: 00 00        	<unknown>
      e0: 00 00        	<unknown>
      e2: 00 00        	<unknown>
      e4: ec 00        	<unknown>
      e6: 00 00        	<unknown>
      e8: 13 0f 00 00  	li	t5, 0
      ec: 00 00        	<unknown>
      ee: 00 00        	<unknown>
      f0: ec 00        	<unknown>
      f2: 00 00        	<unknown>
      f4: 33 00 00 00  	add	zero, zero, zero
      f8: 00 00        	<unknown>
      fa: 00 00        	<unknown>

Disassembly of section .sdata:

00000000 <.LCPI0_0>:
       0: 17 72 b1 42  	auipc	tp, 273175

00000004 <.LCPI0_1>:
       4: b4 f1        	<unknown>
       6: cf           	<unknown>
       7: c2           	<unknown>

Disassembly of section .comment:

00000000 <.comment>:
       0: 00 55        	<unknown>
       2: 62 75        	<unknown>
       4: 6e 74        	<unknown>
       6: 75 20        	<unknown>
       8: 63 6c 61 6e  	bltu	sp, t1, 0x700 <.comment+0x700>
       c: 67 20 76 65  	<unknown>
      10: 72 73        	<unknown>
      12: 69 6f        	<unknown>
      14: 6e 20        	<unknown>
      16: 31 37        	<unknown>
      18: 2e 30        	<unknown>
      1a: 2e 36        	<unknown>
      1c: 20 28        	<unknown>
      1e: 39 75        	<unknown>
      20: 62 75        	<unknown>
      22: 6e 74        	<unknown>
      24: 75 31        	<unknown>
      26: 29 00        	<unknown>

Disassembly of section .riscv.attributes:

00000000 <.riscv.attributes>:
       0: 41 3f        	<unknown>
       2: 00 00        	<unknown>
       4: 00 72        	<unknown>
       6: 69 73        	<unknown>
       8: 63 76 00 01  	bgeu	zero, a6, 0x14 <.riscv.attributes+0x14>
       c: 35 00        	<unknown>
       e: 00 00        	<unknown>
      10: 04 10        	<unknown>
      12: 05 72        	<unknown>
      14: 76 33        	<unknown>
      16: 32 69        	<unknown>
      18: 32 70        	<unknown>
      1a: 31 5f        	<unknown>
      1c: 6d 32        	<unknown>
      1e: 70 30        	<unknown>
      20: 5f 61 32 70  	<unknown>
      24: 31 5f        	<unknown>
      26: 66 32        	<unknown>
      28: 70 32        	<unknown>
      2a: 5f 64 32 70  	<unknown>
      2e: 32 5f        	<unknown>
      30: 7a 69        	<unknown>
      32: 63 73 72 32  	bgeu	tp, t2, 0x358 <.riscv.attributes+0x358>
      36: 70 30        	<unknown>
      38: 5f 7a 66 68  	<unknown>
      3c: 31 70        	<unknown>
      3e: 30 00        	<unknown>

Disassembly of section .symtab:

00000000 <.symtab>:
		...
      10: 66 00        	<unknown>
		...
      1a: 00 00        	<unknown>
      1c: 04 00        	<unknown>
      1e: f1 ff        	<unknown>
      20: e6 00        	<unknown>
		...
      2e: 04 00        	<unknown>
      30: c9 00        	<unknown>
      32: 00 00        	<unknown>
      34: 04 00        	<unknown>
		...
      3e: 04 00        	<unknown>
      40: b5 00        	<unknown>
      42: 00 00        	<unknown>
      44: 8c 00        	<unknown>
		...
      4e: 02 00        	<unknown>
      50: d2 00        	<unknown>
      52: 00 00        	<unknown>
      54: 24 00        	<unknown>
		...
      5e: 02 00        	<unknown>
      60: a9 00        	<unknown>
      62: 00 00        	<unknown>
      64: 28 00        	<unknown>
		...
      6e: 02 00        	<unknown>
      70: a1 00        	<unknown>
      72: 00 00        	<unknown>
      74: ac 00        	<unknown>
		...
      7e: 02 00        	<unknown>
      80: 99 00        	<unknown>
      82: 00 00        	<unknown>
      84: d4 00        	<unknown>
		...
      8e: 02 00        	<unknown>
      90: da 00        	<unknown>
      92: 00 00        	<unknown>
      94: bc 00        	<unknown>
		...
      9e: 02 00        	<unknown>
      a0: 91 00        	<unknown>
      a2: 00 00        	<unknown>
      a4: dc 00        	<unknown>
		...
      ae: 02 00        	<unknown>
      b0: bd 00        	<unknown>
      b2: 00 00        	<unknown>
      b4: dc 00        	<unknown>
		...
      be: 02 00        	<unknown>
      c0: 61 00        	<unknown>
      c2: 00 00        	<unknown>
      c4: 00 00        	<unknown>
      c6: 00 00        	<unknown>
      c8: f4 00        	<unknown>
      ca: 00 00        	<unknown>
      cc: 12 00        	<unknown>
      ce: 02 00        	<unknown>
      d0: 84 00        	<unknown>
		...
      da: 00 00        	<unknown>
      dc: 10 02        	<unknown>
      de: 00 00        	<unknown>
      e0: 53 00 00 00  	fadd.s	ft0, ft0, ft0, rne
		...
      ec: 10 02        	<unknown>
      ee: 00 00        	<unknown>
      f0: 45 00        	<unknown>
		...
      fa: 00 00        	<unknown>
      fc: 10 02        	<unknown>
      fe: 00 00        	<unknown>

/workspaces/snax_cluster/target/snitch_cluster/sw/math/build/libmath.a(expm1.o):	file format elf32-littleriscv

Disassembly of section .strtab:

00000000 <.strtab>:
       0: 00 2e        	<unknown>
       2: 72 65        	<unknown>
       4: 6c 61        	<unknown>
       6: 2e 74        	<unknown>
       8: 65 78        	<unknown>
       a: 74 00        	<unknown>
       c: 2e 63        	<unknown>
       e: 6f 6d 6d 65  	jal	s10, 0xd6664 <.strtab+0xd6664>
      12: 6e 74        	<unknown>
      14: 00 2e        	<unknown>
      16: 72 69        	<unknown>
      18: 73 63 76 2e  	csrrsi	t1, 743, 12
      1c: 61 74        	<unknown>
      1e: 74 72        	<unknown>
      20: 69 62        	<unknown>
      22: 75 74        	<unknown>
      24: 65 73        	<unknown>
      26: 00 2e        	<unknown>
      28: 6e 6f        	<unknown>
      2a: 74 65        	<unknown>
      2c: 2e 47        	<unknown>
      2e: 4e 55        	<unknown>
      30: 2d 73        	<unknown>
      32: 74 61        	<unknown>
      34: 63 6b 00 2e  	bltu	zero, zero, 0x32a <.strtab+0x32a>
      38: 6c 6c        	<unknown>
      3a: 76 6d        	<unknown>
      3c: 5f 61 64 64  	<unknown>
      40: 72 73        	<unknown>
      42: 69 67        	<unknown>
      44: 00 65        	<unknown>
      46: 78 70        	<unknown>
      48: 6d 31        	<unknown>
      4a: 2e 63        	<unknown>
      4c: 00 2e        	<unknown>
      4e: 73 74 72 74  	csrrci	s0, mseccfg, 4
      52: 61 62        	<unknown>
      54: 00 2e        	<unknown>
      56: 73 79 6d 74  	csrrci	s2, 1862, 26
      5a: 61 62        	<unknown>
      5c: 00 2e        	<unknown>
      5e: 73 64 61 74  	csrrsi	s0, 1862, 2
      62: 61 00        	<unknown>
      64: 2e 4c        	<unknown>
      66: 70 63        	<unknown>
      68: 72 65        	<unknown>
      6a: 6c 5f        	<unknown>
      6c: 68 69        	<unknown>
      6e: 39 00        	<unknown>
      70: 2e 4c        	<unknown>
      72: 43 50 49 30  	<unknown>
      76: 5f 39 00 2e  	<unknown>
      7a: 4c 42        	<unknown>
      7c: 42 30        	<unknown>
      7e: 5f 39 00 2e  	<unknown>
      82: 4c 70        	<unknown>
      84: 63 72 65 6c  	bgeu	a0, t1, 0x748 <.strtab+0x748>
      88: 5f 68 69 31  	<unknown>
      8c: 39 00        	<unknown>
      8e: 2e 4c        	<unknown>
      90: 43 50 49 30  	<unknown>
      94: 5f 31 39 00  	<unknown>
      98: 2e 4c        	<unknown>
      9a: 42 42        	<unknown>
      9c: 30 5f        	<unknown>
      9e: 31 39        	<unknown>
      a0: 00 2e        	<unknown>
      a2: 4c 70        	<unknown>
      a4: 63 72 65 6c  	bgeu	a0, t1, 0x768 <.strtab+0x768>
      a8: 5f 68 69 38  	<unknown>
      ac: 00 2e        	<unknown>
      ae: 4c 43        	<unknown>
      b0: 50 49        	<unknown>
      b2: 30 5f        	<unknown>
      b4: 38 00        	<unknown>
      b6: 2e 4c        	<unknown>
      b8: 42 42        	<unknown>
      ba: 30 5f        	<unknown>
      bc: 38 00        	<unknown>
      be: 2e 4c        	<unknown>
      c0: 70 63        	<unknown>
      c2: 72 65        	<unknown>
      c4: 6c 5f        	<unknown>
      c6: 68 69        	<unknown>
      c8: 31 38        	<unknown>
      ca: 00 2e        	<unknown>
      cc: 4c 43        	<unknown>
      ce: 50 49        	<unknown>
      d0: 30 5f        	<unknown>
      d2: 31 38        	<unknown>
      d4: 00 2e        	<unknown>
      d6: 4c 42        	<unknown>
      d8: 42 30        	<unknown>
      da: 5f 31 38 00  	<unknown>
      de: 2e 4c        	<unknown>
      e0: 70 63        	<unknown>
      e2: 72 65        	<unknown>
      e4: 6c 5f        	<unknown>
      e6: 68 69        	<unknown>
      e8: 37 00 2e 4c  	lui	zero, 312032
      ec: 43 50 49 30  	<unknown>
      f0: 5f 37 00 2e  	<unknown>
      f4: 4c 42        	<unknown>
      f6: 42 30        	<unknown>
      f8: 5f 32 37 00  	<unknown>
      fc: 2e 4c        	<unknown>
      fe: 70 63        	<unknown>
     100: 72 65        	<unknown>
     102: 6c 5f        	<unknown>
     104: 68 69        	<unknown>
     106: 31 37        	<unknown>
     108: 00 2e        	<unknown>
     10a: 4c 43        	<unknown>
     10c: 50 49        	<unknown>
     10e: 30 5f        	<unknown>
     110: 31 37        	<unknown>
     112: 00 2e        	<unknown>
     114: 4c 42        	<unknown>
     116: 42 30        	<unknown>
     118: 5f 31 37 00  	<unknown>
     11c: 2e 4c        	<unknown>
     11e: 70 63        	<unknown>
     120: 72 65        	<unknown>
     122: 6c 5f        	<unknown>
     124: 68 69        	<unknown>
     126: 36 00        	<unknown>
     128: 2e 4c        	<unknown>
     12a: 43 50 49 30  	<unknown>
     12e: 5f 36 00 2e  	<unknown>
     132: 72 6f        	<unknown>
     134: 64 61        	<unknown>
     136: 74 61        	<unknown>
     138: 2e 63        	<unknown>
     13a: 73 74 31 36  	csrrci	s0, 867, 2
     13e: 00 2e        	<unknown>
     140: 4c 70        	<unknown>
     142: 63 72 65 6c  	bgeu	a0, t1, 0x806 <.strtab+0x806>
     146: 5f 68 69 31  	<unknown>
     14a: 36 00        	<unknown>
     14c: 2e 4c        	<unknown>
     14e: 43 50 49 30  	<unknown>
     152: 5f 31 36 00  	<unknown>
     156: 2e 4c        	<unknown>
     158: 42 42        	<unknown>
     15a: 30 5f        	<unknown>
     15c: 31 36        	<unknown>
     15e: 00 2e        	<unknown>
     160: 4c 70        	<unknown>
     162: 63 72 65 6c  	bgeu	a0, t1, 0x826 <.strtab+0x826>
     166: 5f 68 69 35  	<unknown>
     16a: 00 2e        	<unknown>
     16c: 4c 43        	<unknown>
     16e: 50 49        	<unknown>
     170: 30 5f        	<unknown>
     172: 35 00        	<unknown>
     174: 2e 4c        	<unknown>
     176: 70 63        	<unknown>
     178: 72 65        	<unknown>
     17a: 6c 5f        	<unknown>
     17c: 68 69        	<unknown>
     17e: 32 35        	<unknown>
     180: 00 2e        	<unknown>
     182: 4c 42        	<unknown>
     184: 42 30        	<unknown>
     186: 5f 32 35 00  	<unknown>
     18a: 2e 4c        	<unknown>
     18c: 70 63        	<unknown>
     18e: 72 65        	<unknown>
     190: 6c 5f        	<unknown>
     192: 68 69        	<unknown>
     194: 31 35        	<unknown>
     196: 00 2e        	<unknown>
     198: 4c 43        	<unknown>
     19a: 50 49        	<unknown>
     19c: 30 5f        	<unknown>
     19e: 31 35        	<unknown>
     1a0: 00 2e        	<unknown>
     1a2: 4c 42        	<unknown>
     1a4: 42 30        	<unknown>
     1a6: 5f 31 35 00  	<unknown>
     1aa: 2e 4c        	<unknown>
     1ac: 70 63        	<unknown>
     1ae: 72 65        	<unknown>
     1b0: 6c 5f        	<unknown>
     1b2: 68 69        	<unknown>
     1b4: 34 00        	<unknown>
     1b6: 2e 4c        	<unknown>
     1b8: 43 50 49 30  	<unknown>
     1bc: 5f 34 00 2e  	<unknown>
     1c0: 4c 42        	<unknown>
     1c2: 42 30        	<unknown>
     1c4: 5f 34 00 2e  	<unknown>
     1c8: 4c 70        	<unknown>
     1ca: 63 72 65 6c  	bgeu	a0, t1, 0x88e <.strtab+0x88e>
     1ce: 5f 68 69 32  	<unknown>
     1d2: 34 00        	<unknown>
     1d4: 2e 4c        	<unknown>
     1d6: 42 42        	<unknown>
     1d8: 30 5f        	<unknown>
     1da: 32 34        	<unknown>
     1dc: 00 2e        	<unknown>
     1de: 4c 70        	<unknown>
     1e0: 63 72 65 6c  	bgeu	a0, t1, 0x8a4 <.strtab+0x8a4>
     1e4: 5f 68 69 31  	<unknown>
     1e8: 34 00        	<unknown>
     1ea: 2e 4c        	<unknown>
     1ec: 43 50 49 30  	<unknown>
     1f0: 5f 31 34 00  	<unknown>
     1f4: 2e 4c        	<unknown>
     1f6: 70 63        	<unknown>
     1f8: 72 65        	<unknown>
     1fa: 6c 5f        	<unknown>
     1fc: 68 69        	<unknown>
     1fe: 33 00 2e 4c  	<unknown>
     202: 43 50 49 30  	<unknown>
     206: 5f 33 00 2e  	<unknown>
     20a: 4c 42        	<unknown>
     20c: 42 30        	<unknown>
     20e: 5f 33 00 2e  	<unknown>
     212: 4c 70        	<unknown>
     214: 63 72 65 6c  	bgeu	a0, t1, 0x8d8 <.strtab+0x8d8>
     218: 5f 68 69 32  	<unknown>
     21c: 33 00 2e 4c  	<unknown>
     220: 70 63        	<unknown>
     222: 72 65        	<unknown>
     224: 6c 5f        	<unknown>
     226: 68 69        	<unknown>
     228: 31 33        	<unknown>
     22a: 00 2e        	<unknown>
     22c: 4c 43        	<unknown>
     22e: 50 49        	<unknown>
     230: 30 5f        	<unknown>
     232: 31 33        	<unknown>
     234: 00 2e        	<unknown>
     236: 4c 70        	<unknown>
     238: 63 72 65 6c  	bgeu	a0, t1, 0x8fc <.strtab+0x8fc>
     23c: 5f 68 69 32  	<unknown>
     240: 00 2e        	<unknown>
     242: 4c 43        	<unknown>
     244: 50 49        	<unknown>
     246: 30 5f        	<unknown>
     248: 32 00        	<unknown>
     24a: 2e 4c        	<unknown>
     24c: 70 63        	<unknown>
     24e: 72 65        	<unknown>
     250: 6c 5f        	<unknown>
     252: 68 69        	<unknown>
     254: 32 32        	<unknown>
     256: 00 2e        	<unknown>
     258: 4c 70        	<unknown>
     25a: 63 72 65 6c  	bgeu	a0, t1, 0x91e <.strtab+0x91e>
     25e: 5f 68 69 31  	<unknown>
     262: 32 00        	<unknown>
     264: 2e 4c        	<unknown>
     266: 43 50 49 30  	<unknown>
     26a: 5f 31 32 00  	<unknown>
     26e: 2e 4c        	<unknown>
     270: 42 42        	<unknown>
     272: 30 5f        	<unknown>
     274: 31 32        	<unknown>
     276: 00 65        	<unknown>
     278: 78 70        	<unknown>
     27a: 6d 31        	<unknown>
     27c: 00 2e        	<unknown>
     27e: 4c 70        	<unknown>
     280: 63 72 65 6c  	bgeu	a0, t1, 0x944 <.strtab+0x944>
     284: 5f 68 69 31  	<unknown>
     288: 00 2e        	<unknown>
     28a: 4c 43        	<unknown>
     28c: 50 49        	<unknown>
     28e: 30 5f        	<unknown>
     290: 31 00        	<unknown>
     292: 2e 4c        	<unknown>
     294: 42 42        	<unknown>
     296: 30 5f        	<unknown>
     298: 33 31 00 2e  	<unknown>
     29c: 4c 70        	<unknown>
     29e: 63 72 65 6c  	bgeu	a0, t1, 0x962 <.strtab+0x962>
     2a2: 5f 68 69 32  	<unknown>
     2a6: 31 00        	<unknown>
     2a8: 2e 4c        	<unknown>
     2aa: 43 50 49 30  	<unknown>
     2ae: 5f 32 31 00  	<unknown>
     2b2: 2e 4c        	<unknown>
     2b4: 70 63        	<unknown>
     2b6: 72 65        	<unknown>
     2b8: 6c 5f        	<unknown>
     2ba: 68 69        	<unknown>
     2bc: 31 31        	<unknown>
     2be: 00 2e        	<unknown>
     2c0: 4c 43        	<unknown>
     2c2: 50 49        	<unknown>
     2c4: 30 5f        	<unknown>
     2c6: 31 31        	<unknown>
     2c8: 00 2e        	<unknown>
     2ca: 4c 70        	<unknown>
     2cc: 63 72 65 6c  	bgeu	a0, t1, 0x990 <.strtab+0x990>
     2d0: 5f 68 69 30  	<unknown>
     2d4: 00 2e        	<unknown>
     2d6: 4c 43        	<unknown>
     2d8: 50 49        	<unknown>
     2da: 30 5f        	<unknown>
     2dc: 30 00        	<unknown>
     2de: 2e 4c        	<unknown>
     2e0: 42 42        	<unknown>
     2e2: 30 5f        	<unknown>
     2e4: 33 30 00 2e  	<unknown>
     2e8: 4c 70        	<unknown>
     2ea: 63 72 65 6c  	bgeu	a0, t1, 0x9ae <.strtab+0x9ae>
     2ee: 5f 68 69 32  	<unknown>
     2f2: 30 00        	<unknown>
     2f4: 2e 4c        	<unknown>
     2f6: 43 50 49 30  	<unknown>
     2fa: 5f 32 30 00  	<unknown>
     2fe: 2e 4c        	<unknown>
     300: 42 42        	<unknown>
     302: 30 5f        	<unknown>
     304: 32 30        	<unknown>
     306: 00 2e        	<unknown>
     308: 4c 70        	<unknown>
     30a: 63 72 65 6c  	bgeu	a0, t1, 0x9ce <.strtab+0x9ce>
     30e: 5f 68 69 31  	<unknown>
     312: 30 00        	<unknown>
     314: 2e 4c        	<unknown>
     316: 43 50 49 30  	<unknown>
     31a: 5f 31 30 00  	<unknown>

Disassembly of section .text:

00000000 <expm1>:
       0: 13 01 01 fe  	addi	sp, sp, -32
       4: 13 05 81 01  	addi	a0, sp, 24
       8: 27 30 a5 00  	fsd	fa0, 0(a0)
       c: 87 31 05 00  	fld	ft3, 0(a0)
      10: d3 82 01 e0  	fmv.x.w	t0, ft3
      14: 93 82 02 00  	mv	t0, t0
      18: 03 25 45 00  	lw	a0, 4(a0)
      1c: 93 15 15 00  	slli	a1, a0, 1
      20: 93 d5 15 00  	srli	a1, a1, 1
      24: 37 76 43 40  	lui	a2, 263223
      28: 13 06 a6 87  	addi	a2, a2, -1926
      2c: 63 e0 c5 00  	bltu	a1, a2, 0x2c <expm1+0x2c>
      30: 27 34 a1 00  	fsd	fa0, 8(sp)
      34: 83 25 c1 00  	lw	a1, 12(sp)
      38: 93 95 15 00  	slli	a1, a1, 1
      3c: 93 d5 15 00  	srli	a1, a1, 1
      40: 37 06 f0 7f  	lui	a2, 524032
      44: 63 80 c5 00  	beq	a1, a2, 0x44 <expm1+0x44>
      48: b3 35 b6 00  	sltu	a1, a2, a1
      4c: 63 80 05 00  	beqz	a1, 0x4c <expm1+0x4c>

00000050 <.LBB0_3>:
      50: 13 01 01 02  	addi	sp, sp, 32
      54: 67 80 00 00  	ret

00000058 <.LBB0_4>:
      58: 37 36 d6 3f  	lui	a2, 261475
      5c: 13 06 36 e4  	addi	a2, a2, -445
      60: 63 e0 c5 00  	bltu	a1, a2, 0x60 <.LBB0_4+0x8>
      64: 37 a6 f0 3f  	lui	a2, 261898
      68: 13 06 16 2b  	addi	a2, a2, 689
      6c: 63 60 b6 00  	bltu	a2, a1, 0x6c <.LBB0_4+0x14>
      70: 63 40 05 00  	bltz	a0, 0x70 <.LBB0_4+0x18>

00000074 <.Lpcrel_hi3>:
      74: 17 05 00 00  	auipc	a0, 0
      78: 87 37 05 00  	fld	fa5, 0(a0)

0000007c <.Lpcrel_hi4>:
      7c: 17 05 00 00  	auipc	a0, 0
      80: 07 37 05 00  	fld	fa4, 0(a0)
      84: d3 77 f5 02  	fadd.d	fa5, fa0, fa5
      88: 13 05 10 00  	li	a0, 1
      8c: 6f 00 00 00  	j	0x8c <.Lpcrel_hi4+0x10>

00000090 <.LBB0_8>:
      90: 83 25 81 00  	lw	a1, 8(sp)
      94: b3 35 b0 00  	snez	a1, a1
      98: 63 90 05 00  	bnez	a1, 0x98 <.LBB0_8+0x8>

0000009c <.LBB0_9>:
      9c: 63 40 05 00  	bltz	a0, 0x9c <.LBB0_9>

000000a0 <.Lpcrel_hi1>:
      a0: 97 05 00 00  	auipc	a1, 0
      a4: 87 b7 05 00  	fld	fa5, 0(a1)
      a8: d3 05 f5 a2  	fle.d	a1, fa0, fa5
      ac: 63 90 05 00  	bnez	a1, 0xac <.Lpcrel_hi1+0xc>

000000b0 <.Lpcrel_hi2>:
      b0: 17 05 00 00  	auipc	a0, 0
      b4: 87 37 05 00  	fld	fa5, 0(a0)
      b8: 53 75 f5 12  	fmul.d	fa0, fa0, fa5
      bc: 13 01 01 02  	addi	sp, sp, 32
      c0: 67 80 00 00  	ret

000000c4 <.LBB0_12>:
      c4: 93 d5 45 01  	srli	a1, a1, 20
      c8: 13 05 80 3c  	li	a0, 968
      cc: 63 60 b5 00  	bltu	a0, a1, 0xcc <.LBB0_12+0x8>
      d0: 63 90 05 00  	bnez	a1, 0xd0 <.LBB0_12+0xc>
      d4: d3 77 15 40  	fcvt.s.d	fa5, fa0
      d8: 27 2c f1 00  	fsw	fa5, 24(sp)
      dc: 13 01 01 02  	addi	sp, sp, 32
      e0: 67 80 00 00  	ret

000000e4 <.LBB0_15>:
      e4: 13 45 f5 ff  	not	a0, a0
      e8: 13 55 c5 01  	srli	a0, a0, 28
      ec: 13 75 85 00  	andi	a0, a0, 8

000000f0 <.Lpcrel_hi7>:
      f0: 97 05 00 00  	auipc	a1, 0
      f4: 93 85 05 00  	mv	a1, a1
      f8: 33 85 a5 00  	add	a0, a1, a0
      fc: 87 37 05 00  	fld	fa5, 0(a0)

00000100 <.Lpcrel_hi8>:
     100: 17 05 00 00  	auipc	a0, 0
     104: 07 37 05 00  	fld	fa4, 0(a0)
     108: c3 77 e5 7a  	fmadd.d	fa5, fa0, fa4, fa5

0000010c <.Lpcrel_hi9>:
     10c: 17 05 00 00  	auipc	a0, 0
     110: 07 37 05 00  	fld	fa4, 0(a0)

00000114 <.Lpcrel_hi10>:
     114: 17 05 00 00  	auipc	a0, 0
     118: 87 36 05 00  	fld	fa3, 0(a0)
     11c: 53 95 07 c2  	fcvt.w.d	a0, fa5, rtz
     120: d3 07 05 d2  	fcvt.d.w	fa5, a0
     124: 43 f7 e7 52  	fmadd.d	fa4, fa5, fa4, fa0
     128: d3 f7 d7 12  	fmul.d	fa5, fa5, fa3
     12c: 53 75 f7 0a  	fsub.d	fa0, fa4, fa5
     130: 6f 00 00 00  	j	0x130 <.Lpcrel_hi10+0x1c>

00000134 <.LBB0_16>:
     134: 13 05 00 00  	li	a0, 0
     138: 6f 00 00 00  	j	0x138 <.LBB0_16+0x4>

0000013c <.Lpcrel_hi0>:
     13c: 17 05 00 00  	auipc	a0, 0
     140: 07 35 05 00  	fld	fa0, 0(a0)
     144: 13 01 01 02  	addi	sp, sp, 32
     148: 67 80 00 00  	ret

0000014c <.Lpcrel_hi5>:
     14c: 17 05 00 00  	auipc	a0, 0
     150: 87 37 05 00  	fld	fa5, 0(a0)

00000154 <.Lpcrel_hi6>:
     154: 17 05 00 00  	auipc	a0, 0
     158: 07 37 05 00  	fld	fa4, 0(a0)
     15c: d3 77 f5 02  	fadd.d	fa5, fa0, fa5
     160: 13 05 f0 ff  	li	a0, -1

00000164 <.LBB0_19>:
     164: 53 f5 e7 0a  	fsub.d	fa0, fa5, fa4

00000168 <.Lpcrel_hi11>:
     168: 97 05 00 00  	auipc	a1, 0
     16c: 87 b6 05 00  	fld	fa3, 0(a1)
     170: 53 76 d5 12  	fmul.d	fa2, fa0, fa3
     174: 53 77 a6 12  	fmul.d	fa4, fa2, fa0

00000178 <.Lpcrel_hi12>:
     178: 97 05 00 00  	auipc	a1, 0
     17c: 87 b7 05 00  	fld	fa5, 0(a1)

00000180 <.Lpcrel_hi13>:
     180: 97 05 00 00  	auipc	a1, 0
     184: 87 b5 05 00  	fld	fa1, 0(a1)

00000188 <.Lpcrel_hi14>:
     188: 97 05 00 00  	auipc	a1, 0
     18c: 07 b0 05 00  	fld	ft0, 0(a1)

00000190 <.Lpcrel_hi15>:
     190: 97 05 00 00  	auipc	a1, 0
     194: 87 b0 05 00  	fld	ft1, 0(a1)

00000198 <.Lpcrel_hi16>:
     198: 97 05 00 00  	auipc	a1, 0
     19c: 07 b1 05 00  	fld	ft2, 0(a1)
     1a0: c3 77 b7 7a  	fmadd.d	fa5, fa4, fa1, fa5
     1a4: c3 f7 e7 02  	fmadd.d	fa5, fa5, fa4, ft0
     1a8: c3 f7 e7 0a  	fmadd.d	fa5, fa5, fa4, ft1
     1ac: c3 f5 e7 12  	fmadd.d	fa1, fa5, fa4, ft2

000001b0 <.Lpcrel_hi17>:
     1b0: 97 05 00 00  	auipc	a1, 0
     1b4: 87 b7 05 00  	fld	fa5, 0(a1)

000001b8 <.Lpcrel_hi18>:
     1b8: 97 05 00 00  	auipc	a1, 0
     1bc: 07 b0 05 00  	fld	ft0, 0(a1)

000001c0 <.Lpcrel_hi19>:
     1c0: 97 05 00 00  	auipc	a1, 0
     1c4: 87 b0 05 00  	fld	ft1, 0(a1)
     1c8: c3 f5 e5 7a  	fmadd.d	fa1, fa1, fa4, fa5
     1cc: 4b f6 c5 02  	fnmsub.d	fa2, fa1, fa2, ft0
     1d0: d3 75 b6 0a  	fsub.d	fa1, fa2, fa1
     1d4: 43 76 a6 0a  	fmadd.d	fa2, fa2, fa0, ft1
     1d8: d3 f5 e5 12  	fmul.d	fa1, fa1, fa4
     1dc: 53 f6 c5 1a  	fdiv.d	fa2, fa1, fa2
     1e0: 63 00 05 00  	beqz	a0, 0x1e0 <.Lpcrel_hi19+0x20>
     1e4: 93 05 10 00  	li	a1, 1
     1e8: 47 77 a6 72  	fmsub.d	fa4, fa2, fa0, fa4
     1ec: 63 00 b5 00  	beq	a0, a1, 0x1ec <.Lpcrel_hi19+0x2c>
     1f0: 93 05 f0 ff  	li	a1, -1
     1f4: 63 10 b5 00  	bne	a0, a1, 0x1f4 <.Lpcrel_hi19+0x34>

000001f8 <.Lpcrel_hi20>:
     1f8: 17 05 00 00  	auipc	a0, 0
     1fc: 87 37 05 00  	fld	fa5, 0(a0)
     200: 53 77 e5 0a  	fsub.d	fa4, fa0, fa4
     204: 43 75 d7 7a  	fmadd.d	fa0, fa4, fa3, fa5
     208: 13 01 01 02  	addi	sp, sp, 32
     20c: 67 80 00 00  	ret

00000210 <.LBB0_24>:
     210: d3 77 a7 02  	fadd.d	fa5, fa4, fa0
     214: 4b 75 a6 7a  	fnmsub.d	fa0, fa2, fa0, fa5
     218: 13 01 01 02  	addi	sp, sp, 32
     21c: 67 80 00 00  	ret

00000220 <.Lpcrel_hi21>:
     220: 17 05 00 00  	auipc	a0, 0
     224: 87 36 05 00  	fld	fa3, 0(a0)
     228: 53 85 a6 a2  	fle.d	a0, fa3, fa0
     22c: 63 10 05 00  	bnez	a0, 0x22c <.Lpcrel_hi21+0xc>

00000230 <.Lpcrel_hi22>:
     230: 17 05 00 00  	auipc	a0, 0
     234: 87 37 05 00  	fld	fa5, 0(a0)

00000238 <.Lpcrel_hi23>:
     238: 17 05 00 00  	auipc	a0, 0
     23c: 87 36 05 00  	fld	fa3, 0(a0)
     240: d3 f7 a7 0a  	fsub.d	fa5, fa5, fa0
     244: d3 f7 e7 02  	fadd.d	fa5, fa5, fa4
     248: 53 f5 d7 12  	fmul.d	fa0, fa5, fa3
     24c: 13 01 01 02  	addi	sp, sp, 32
     250: 67 80 00 00  	ret

00000254 <.LBB0_27>:
     254: 93 15 45 01  	slli	a1, a0, 20
     258: 37 06 f0 3f  	lui	a2, 261888
     25c: b3 86 c5 00  	add	a3, a1, a2
     260: 13 07 81 01  	addi	a4, sp, 24
     264: 23 22 d7 00  	sw	a3, 4(a4)
     268: 83 26 47 00  	lw	a3, 4(a4)
     26c: d3 81 06 f0  	fmv.w.x	ft3, a3
     270: 93 06 90 03  	li	a3, 57
     274: 63 60 d5 00  	bltu	a0, a3, 0x274 <.LBB0_27+0x20>
     278: 93 05 00 40  	li	a1, 1024
     27c: 63 00 b5 00  	beq	a0, a1, 0x27c <.LBB0_27+0x28>
     280: 87 36 81 01  	fld	fa3, 24(sp)

00000284 <.Lpcrel_hi25>:
     284: 17 05 00 00  	auipc	a0, 0
     288: 07 36 05 00  	fld	fa2, 0(a0)
     28c: d3 77 f5 02  	fadd.d	fa5, fa0, fa5
     290: d3 f7 e7 0a  	fsub.d	fa5, fa5, fa4
     294: 43 f5 f6 62  	fmadd.d	fa0, fa3, fa5, fa2
     298: 13 01 01 02  	addi	sp, sp, 32
     29c: 67 80 00 00  	ret

000002a0 <.Lpcrel_hi24>:
     2a0: 17 05 00 00  	auipc	a0, 0
     2a4: 87 36 05 00  	fld	fa3, 0(a0)
     2a8: 53 77 e5 0a  	fsub.d	fa4, fa0, fa4
     2ac: 43 75 d7 7a  	fmadd.d	fa0, fa4, fa3, fa5
     2b0: 13 01 01 02  	addi	sp, sp, 32
     2b4: 67 80 00 00  	ret

000002b8 <.LBB0_31>:
     2b8: 33 06 b6 40  	sub	a2, a2, a1
     2bc: 23 2a 01 00  	sw	zero, 20(sp)
     2c0: 23 28 01 00  	sw	zero, 16(sp)
     2c4: 13 05 01 01  	addi	a0, sp, 16
     2c8: 23 22 c5 00  	sw	a2, 4(a0)
     2cc: 03 26 45 00  	lw	a2, 4(a0)
     2d0: d3 01 06 f0  	fmv.w.x	ft3, a2
     2d4: 87 36 01 01  	fld	fa3, 16(sp)
     2d8: 07 36 81 01  	fld	fa2, 24(sp)
     2dc: d3 77 f5 02  	fadd.d	fa5, fa0, fa5
     2e0: 53 77 d7 02  	fadd.d	fa4, fa4, fa3
     2e4: d3 f7 e7 0a  	fsub.d	fa5, fa5, fa4
     2e8: 53 f5 c7 12  	fmul.d	fa0, fa5, fa2
     2ec: 13 01 01 02  	addi	sp, sp, 32
     2f0: 67 80 00 00  	ret

Disassembly of section .rela.text:

00000000 <.rela.text>:
       0: 2c 00        	<unknown>
       2: 00 00        	<unknown>
       4: 10 18        	<unknown>
       6: 00 00        	<unknown>
       8: 00 00        	<unknown>
       a: 00 00        	<unknown>
       c: 44 00        	<unknown>
       e: 00 00        	<unknown>
      10: 10 19        	<unknown>
      12: 00 00        	<unknown>
      14: 00 00        	<unknown>
      16: 00 00        	<unknown>
      18: 4c 00        	<unknown>
      1a: 00 00        	<unknown>
      1c: 10 1a        	<unknown>
      1e: 00 00        	<unknown>
      20: 00 00        	<unknown>
      22: 00 00        	<unknown>
      24: 60 00        	<unknown>
      26: 00 00        	<unknown>
      28: 10 1c        	<unknown>
      2a: 00 00        	<unknown>
      2c: 00 00        	<unknown>
      2e: 00 00        	<unknown>
      30: 6c 00        	<unknown>
      32: 00 00        	<unknown>
      34: 10 1d        	<unknown>
      36: 00 00        	<unknown>
      38: 00 00        	<unknown>
      3a: 00 00        	<unknown>
      3c: 70 00        	<unknown>
      3e: 00 00        	<unknown>
      40: 10 1e        	<unknown>
      42: 00 00        	<unknown>
      44: 00 00        	<unknown>
      46: 00 00        	<unknown>
      48: 74 00        	<unknown>
      4a: 00 00        	<unknown>
      4c: 17 04 00 00  	auipc	s0, 0
      50: 00 00        	<unknown>
      52: 00 00        	<unknown>
      54: 74 00        	<unknown>
      56: 00 00        	<unknown>
      58: 33 00 00 00  	add	zero, zero, zero
      5c: 00 00        	<unknown>
      5e: 00 00        	<unknown>
      60: 78 00        	<unknown>
      62: 00 00        	<unknown>
      64: 18 1f        	<unknown>
      66: 00 00        	<unknown>
      68: 00 00        	<unknown>
      6a: 00 00        	<unknown>
      6c: 78 00        	<unknown>
      6e: 00 00        	<unknown>
      70: 33 00 00 00  	add	zero, zero, zero
      74: 00 00        	<unknown>
      76: 00 00        	<unknown>
      78: 7c 00        	<unknown>
      7a: 00 00        	<unknown>
      7c: 17 05 00 00  	auipc	a0, 0
      80: 00 00        	<unknown>
      82: 00 00        	<unknown>
      84: 7c 00        	<unknown>
      86: 00 00        	<unknown>
      88: 33 00 00 00  	add	zero, zero, zero
      8c: 00 00        	<unknown>
      8e: 00 00        	<unknown>
      90: 80 00        	<unknown>
      92: 00 00        	<unknown>
      94: 18 20        	<unknown>
      96: 00 00        	<unknown>
      98: 00 00        	<unknown>
      9a: 00 00        	<unknown>
      9c: 80 00        	<unknown>
      9e: 00 00        	<unknown>
      a0: 33 00 00 00  	add	zero, zero, zero
      a4: 00 00        	<unknown>
      a6: 00 00        	<unknown>
      a8: 8c 00        	<unknown>
      aa: 00 00        	<unknown>
      ac: 11 21        	<unknown>
      ae: 00 00        	<unknown>
      b0: 00 00        	<unknown>
      b2: 00 00        	<unknown>
      b4: 98 00        	<unknown>
      b6: 00 00        	<unknown>
      b8: 10 1b        	<unknown>
      ba: 00 00        	<unknown>
      bc: 00 00        	<unknown>
      be: 00 00        	<unknown>
      c0: 9c 00        	<unknown>
      c2: 00 00        	<unknown>
      c4: 10 22        	<unknown>
      c6: 00 00        	<unknown>
      c8: 00 00        	<unknown>
      ca: 00 00        	<unknown>
      cc: a0 00        	<unknown>
      ce: 00 00        	<unknown>
      d0: 17 07 00 00  	auipc	a4, 0
      d4: 00 00        	<unknown>
      d6: 00 00        	<unknown>
      d8: a0 00        	<unknown>
      da: 00 00        	<unknown>
      dc: 33 00 00 00  	add	zero, zero, zero
      e0: 00 00        	<unknown>
      e2: 00 00        	<unknown>
      e4: a4 00        	<unknown>
      e6: 00 00        	<unknown>
      e8: 18 23        	<unknown>
      ea: 00 00        	<unknown>
      ec: 00 00        	<unknown>
      ee: 00 00        	<unknown>
      f0: a4 00        	<unknown>
      f2: 00 00        	<unknown>
      f4: 33 00 00 00  	add	zero, zero, zero
      f8: 00 00        	<unknown>
      fa: 00 00        	<unknown>
      fc: ac 00        	<unknown>
      fe: 00 00        	<unknown>
     100: 10 1d        	<unknown>
     102: 00 00        	<unknown>
     104: 00 00        	<unknown>
     106: 00 00        	<unknown>
     108: b0 00        	<unknown>
     10a: 00 00        	<unknown>
     10c: 17 16 00 00  	auipc	a2, 1
     110: 00 00        	<unknown>
     112: 00 00        	<unknown>
     114: b0 00        	<unknown>
     116: 00 00        	<unknown>
     118: 33 00 00 00  	add	zero, zero, zero
     11c: 00 00        	<unknown>
     11e: 00 00        	<unknown>
     120: b4 00        	<unknown>
     122: 00 00        	<unknown>
     124: 18 24        	<unknown>
     126: 00 00        	<unknown>
     128: 00 00        	<unknown>
     12a: 00 00        	<unknown>
     12c: b4 00        	<unknown>
     12e: 00 00        	<unknown>
     130: 33 00 00 00  	add	zero, zero, zero
     134: 00 00        	<unknown>
     136: 00 00        	<unknown>
     138: cc 00        	<unknown>
     13a: 00 00        	<unknown>
     13c: 10 25        	<unknown>
     13e: 00 00        	<unknown>
     140: 00 00        	<unknown>
     142: 00 00        	<unknown>
     144: d0 00        	<unknown>
     146: 00 00        	<unknown>
     148: 10 1b        	<unknown>
     14a: 00 00        	<unknown>
     14c: 00 00        	<unknown>
     14e: 00 00        	<unknown>
     150: f0 00        	<unknown>
     152: 00 00        	<unknown>
     154: 17 17 00 00  	auipc	a4, 1
     158: 00 00        	<unknown>
     15a: 00 00        	<unknown>
     15c: f0 00        	<unknown>
     15e: 00 00        	<unknown>
     160: 33 00 00 00  	add	zero, zero, zero
     164: 00 00        	<unknown>
     166: 00 00        	<unknown>
     168: f4 00        	<unknown>
     16a: 00 00        	<unknown>
     16c: 18 26        	<unknown>
     16e: 00 00        	<unknown>
     170: 00 00        	<unknown>
     172: 00 00        	<unknown>
     174: f4 00        	<unknown>
     176: 00 00        	<unknown>
     178: 33 00 00 00  	add	zero, zero, zero
     17c: 00 00        	<unknown>
     17e: 00 00        	<unknown>
     180: 00 01        	<unknown>
     182: 00 00        	<unknown>
     184: 17 08 00 00  	auipc	a6, 0
     188: 00 00        	<unknown>
     18a: 00 00        	<unknown>
     18c: 00 01        	<unknown>
     18e: 00 00        	<unknown>
     190: 33 00 00 00  	add	zero, zero, zero
     194: 00 00        	<unknown>
     196: 00 00        	<unknown>
     198: 04 01        	<unknown>
     19a: 00 00        	<unknown>
     19c: 18 27        	<unknown>
     19e: 00 00        	<unknown>
     1a0: 00 00        	<unknown>
     1a2: 00 00        	<unknown>
     1a4: 04 01        	<unknown>
     1a6: 00 00        	<unknown>
     1a8: 33 00 00 00  	add	zero, zero, zero
     1ac: 00 00        	<unknown>
     1ae: 00 00        	<unknown>
     1b0: 0c 01        	<unknown>
     1b2: 00 00        	<unknown>
     1b4: 17 04 00 00  	auipc	s0, 0
     1b8: 00 00        	<unknown>
     1ba: 00 00        	<unknown>
     1bc: 0c 01        	<unknown>
     1be: 00 00        	<unknown>
     1c0: 33 00 00 00  	add	zero, zero, zero
     1c4: 00 00        	<unknown>
     1c6: 00 00        	<unknown>
     1c8: 10 01        	<unknown>
     1ca: 00 00        	<unknown>
     1cc: 18 28        	<unknown>
     1ce: 00 00        	<unknown>
     1d0: 00 00        	<unknown>
     1d2: 00 00        	<unknown>
     1d4: 10 01        	<unknown>
     1d6: 00 00        	<unknown>
     1d8: 33 00 00 00  	add	zero, zero, zero
     1dc: 00 00        	<unknown>
     1de: 00 00        	<unknown>
     1e0: 14 01        	<unknown>
     1e2: 00 00        	<unknown>
     1e4: 17 05 00 00  	auipc	a0, 0
     1e8: 00 00        	<unknown>
     1ea: 00 00        	<unknown>
     1ec: 14 01        	<unknown>
     1ee: 00 00        	<unknown>
     1f0: 33 00 00 00  	add	zero, zero, zero
     1f4: 00 00        	<unknown>
     1f6: 00 00        	<unknown>
     1f8: 18 01        	<unknown>
     1fa: 00 00        	<unknown>
     1fc: 18 29        	<unknown>
     1fe: 00 00        	<unknown>
     200: 00 00        	<unknown>
     202: 00 00        	<unknown>
     204: 18 01        	<unknown>
     206: 00 00        	<unknown>
     208: 33 00 00 00  	add	zero, zero, zero
     20c: 00 00        	<unknown>
     20e: 00 00        	<unknown>
     210: 30 01        	<unknown>
     212: 00 00        	<unknown>
     214: 11 2a        	<unknown>
     216: 00 00        	<unknown>
     218: 00 00        	<unknown>
     21a: 00 00        	<unknown>
     21c: 38 01        	<unknown>
     21e: 00 00        	<unknown>
     220: 11 2a        	<unknown>
     222: 00 00        	<unknown>
     224: 00 00        	<unknown>
     226: 00 00        	<unknown>
     228: 3c 01        	<unknown>
     22a: 00 00        	<unknown>
     22c: 17 06 00 00  	auipc	a2, 0
     230: 00 00        	<unknown>
     232: 00 00        	<unknown>
     234: 3c 01        	<unknown>
     236: 00 00        	<unknown>
     238: 33 00 00 00  	add	zero, zero, zero
     23c: 00 00        	<unknown>
     23e: 00 00        	<unknown>
     240: 40 01        	<unknown>
     242: 00 00        	<unknown>
     244: 18 2b        	<unknown>
     246: 00 00        	<unknown>
     248: 00 00        	<unknown>
     24a: 00 00        	<unknown>
     24c: 40 01        	<unknown>
     24e: 00 00        	<unknown>
     250: 33 00 00 00  	add	zero, zero, zero
     254: 00 00        	<unknown>
     256: 00 00        	<unknown>
     258: 4c 01        	<unknown>
     25a: 00 00        	<unknown>
     25c: 17 02 00 00  	auipc	tp, 0
     260: 00 00        	<unknown>
     262: 00 00        	<unknown>
     264: 4c 01        	<unknown>
     266: 00 00        	<unknown>
     268: 33 00 00 00  	add	zero, zero, zero
     26c: 00 00        	<unknown>
     26e: 00 00        	<unknown>
     270: 50 01        	<unknown>
     272: 00 00        	<unknown>
     274: 18 2c        	<unknown>
     276: 00 00        	<unknown>
     278: 00 00        	<unknown>
     27a: 00 00        	<unknown>
     27c: 50 01        	<unknown>
     27e: 00 00        	<unknown>
     280: 33 00 00 00  	add	zero, zero, zero
     284: 00 00        	<unknown>
     286: 00 00        	<unknown>
     288: 54 01        	<unknown>
     28a: 00 00        	<unknown>
     28c: 17 03 00 00  	auipc	t1, 0
     290: 00 00        	<unknown>
     292: 00 00        	<unknown>
     294: 54 01        	<unknown>
     296: 00 00        	<unknown>
     298: 33 00 00 00  	add	zero, zero, zero
     29c: 00 00        	<unknown>
     29e: 00 00        	<unknown>
     2a0: 58 01        	<unknown>
     2a2: 00 00        	<unknown>
     2a4: 18 2d        	<unknown>
     2a6: 00 00        	<unknown>
     2a8: 00 00        	<unknown>
     2aa: 00 00        	<unknown>
     2ac: 58 01        	<unknown>
     2ae: 00 00        	<unknown>
     2b0: 33 00 00 00  	add	zero, zero, zero
     2b4: 00 00        	<unknown>
     2b6: 00 00        	<unknown>
     2b8: 68 01        	<unknown>
     2ba: 00 00        	<unknown>
     2bc: 17 09 00 00  	auipc	s2, 0
     2c0: 00 00        	<unknown>
     2c2: 00 00        	<unknown>
     2c4: 68 01        	<unknown>
     2c6: 00 00        	<unknown>
     2c8: 33 00 00 00  	add	zero, zero, zero
     2cc: 00 00        	<unknown>
     2ce: 00 00        	<unknown>
     2d0: 6c 01        	<unknown>
     2d2: 00 00        	<unknown>
     2d4: 18 2e        	<unknown>
     2d6: 00 00        	<unknown>
     2d8: 00 00        	<unknown>
     2da: 00 00        	<unknown>
     2dc: 6c 01        	<unknown>
     2de: 00 00        	<unknown>
     2e0: 33 00 00 00  	add	zero, zero, zero
     2e4: 00 00        	<unknown>
     2e6: 00 00        	<unknown>
     2e8: 78 01        	<unknown>
     2ea: 00 00        	<unknown>
     2ec: 17 0a 00 00  	auipc	s4, 0
     2f0: 00 00        	<unknown>
     2f2: 00 00        	<unknown>
     2f4: 78 01        	<unknown>
     2f6: 00 00        	<unknown>
     2f8: 33 00 00 00  	add	zero, zero, zero
     2fc: 00 00        	<unknown>
     2fe: 00 00        	<unknown>
     300: 7c 01        	<unknown>
     302: 00 00        	<unknown>
     304: 18 2f        	<unknown>
     306: 00 00        	<unknown>
     308: 00 00        	<unknown>
     30a: 00 00        	<unknown>
     30c: 7c 01        	<unknown>
     30e: 00 00        	<unknown>
     310: 33 00 00 00  	add	zero, zero, zero
     314: 00 00        	<unknown>
     316: 00 00        	<unknown>
     318: 80 01        	<unknown>
     31a: 00 00        	<unknown>
     31c: 17 0b 00 00  	auipc	s6, 0
     320: 00 00        	<unknown>
     322: 00 00        	<unknown>
     324: 80 01        	<unknown>
     326: 00 00        	<unknown>
     328: 33 00 00 00  	add	zero, zero, zero
     32c: 00 00        	<unknown>
     32e: 00 00        	<unknown>
     330: 84 01        	<unknown>
     332: 00 00        	<unknown>
     334: 18 30        	<unknown>
     336: 00 00        	<unknown>
     338: 00 00        	<unknown>
     33a: 00 00        	<unknown>
     33c: 84 01        	<unknown>
     33e: 00 00        	<unknown>
     340: 33 00 00 00  	add	zero, zero, zero
     344: 00 00        	<unknown>
     346: 00 00        	<unknown>
     348: 88 01        	<unknown>
     34a: 00 00        	<unknown>
     34c: 17 0c 00 00  	auipc	s8, 0
     350: 00 00        	<unknown>
     352: 00 00        	<unknown>
     354: 88 01        	<unknown>
     356: 00 00        	<unknown>
     358: 33 00 00 00  	add	zero, zero, zero
     35c: 00 00        	<unknown>
     35e: 00 00        	<unknown>
     360: 8c 01        	<unknown>
     362: 00 00        	<unknown>
     364: 18 31        	<unknown>
     366: 00 00        	<unknown>
     368: 00 00        	<unknown>
     36a: 00 00        	<unknown>
     36c: 8c 01        	<unknown>
     36e: 00 00        	<unknown>
     370: 33 00 00 00  	add	zero, zero, zero
     374: 00 00        	<unknown>
     376: 00 00        	<unknown>
     378: 90 01        	<unknown>
     37a: 00 00        	<unknown>
     37c: 17 0d 00 00  	auipc	s10, 0
     380: 00 00        	<unknown>
     382: 00 00        	<unknown>
     384: 90 01        	<unknown>
     386: 00 00        	<unknown>
     388: 33 00 00 00  	add	zero, zero, zero
     38c: 00 00        	<unknown>
     38e: 00 00        	<unknown>
     390: 94 01        	<unknown>
     392: 00 00        	<unknown>
     394: 18 32        	<unknown>
     396: 00 00        	<unknown>
     398: 00 00        	<unknown>
     39a: 00 00        	<unknown>
     39c: 94 01        	<unknown>
     39e: 00 00        	<unknown>
     3a0: 33 00 00 00  	add	zero, zero, zero
     3a4: 00 00        	<unknown>
     3a6: 00 00        	<unknown>
     3a8: 98 01        	<unknown>
     3aa: 00 00        	<unknown>
     3ac: 17 0e 00 00  	auipc	t3, 0
     3b0: 00 00        	<unknown>
     3b2: 00 00        	<unknown>
     3b4: 98 01        	<unknown>
     3b6: 00 00        	<unknown>
     3b8: 33 00 00 00  	add	zero, zero, zero
     3bc: 00 00        	<unknown>
     3be: 00 00        	<unknown>
     3c0: 9c 01        	<unknown>
     3c2: 00 00        	<unknown>
     3c4: 18 33        	<unknown>
     3c6: 00 00        	<unknown>
     3c8: 00 00        	<unknown>
     3ca: 00 00        	<unknown>
     3cc: 9c 01        	<unknown>
     3ce: 00 00        	<unknown>
     3d0: 33 00 00 00  	add	zero, zero, zero
     3d4: 00 00        	<unknown>
     3d6: 00 00        	<unknown>
     3d8: b0 01        	<unknown>
     3da: 00 00        	<unknown>
     3dc: 17 0f 00 00  	auipc	t5, 0
     3e0: 00 00        	<unknown>
     3e2: 00 00        	<unknown>
     3e4: b0 01        	<unknown>
     3e6: 00 00        	<unknown>
     3e8: 33 00 00 00  	add	zero, zero, zero
     3ec: 00 00        	<unknown>
     3ee: 00 00        	<unknown>
     3f0: b4 01        	<unknown>
     3f2: 00 00        	<unknown>
     3f4: 18 34        	<unknown>
     3f6: 00 00        	<unknown>
     3f8: 00 00        	<unknown>
     3fa: 00 00        	<unknown>
     3fc: b4 01        	<unknown>
     3fe: 00 00        	<unknown>
     400: 33 00 00 00  	add	zero, zero, zero
     404: 00 00        	<unknown>
     406: 00 00        	<unknown>
     408: b8 01        	<unknown>
     40a: 00 00        	<unknown>
     40c: 17 10 00 00  	auipc	zero, 1
     410: 00 00        	<unknown>
     412: 00 00        	<unknown>
     414: b8 01        	<unknown>
     416: 00 00        	<unknown>
     418: 33 00 00 00  	add	zero, zero, zero
     41c: 00 00        	<unknown>
     41e: 00 00        	<unknown>
     420: bc 01        	<unknown>
     422: 00 00        	<unknown>
     424: 18 35        	<unknown>
     426: 00 00        	<unknown>
     428: 00 00        	<unknown>
     42a: 00 00        	<unknown>
     42c: bc 01        	<unknown>
     42e: 00 00        	<unknown>
     430: 33 00 00 00  	add	zero, zero, zero
     434: 00 00        	<unknown>
     436: 00 00        	<unknown>
     438: c0 01        	<unknown>
     43a: 00 00        	<unknown>
     43c: 17 11 00 00  	auipc	sp, 1
     440: 00 00        	<unknown>
     442: 00 00        	<unknown>
     444: c0 01        	<unknown>
     446: 00 00        	<unknown>
     448: 33 00 00 00  	add	zero, zero, zero
     44c: 00 00        	<unknown>
     44e: 00 00        	<unknown>
     450: c4 01        	<unknown>
     452: 00 00        	<unknown>
     454: 18 36        	<unknown>
     456: 00 00        	<unknown>
     458: 00 00        	<unknown>
     45a: 00 00        	<unknown>
     45c: c4 01        	<unknown>
     45e: 00 00        	<unknown>
     460: 33 00 00 00  	add	zero, zero, zero
     464: 00 00        	<unknown>
     466: 00 00        	<unknown>
     468: e0 01        	<unknown>
     46a: 00 00        	<unknown>
     46c: 10 37        	<unknown>
     46e: 00 00        	<unknown>
     470: 00 00        	<unknown>
     472: 00 00        	<unknown>
     474: ec 01        	<unknown>
     476: 00 00        	<unknown>
     478: 10 38        	<unknown>
     47a: 00 00        	<unknown>
     47c: 00 00        	<unknown>
     47e: 00 00        	<unknown>
     480: f4 01        	<unknown>
     482: 00 00        	<unknown>
     484: 10 39        	<unknown>
     486: 00 00        	<unknown>
     488: 00 00        	<unknown>
     48a: 00 00        	<unknown>
     48c: f8 01        	<unknown>
     48e: 00 00        	<unknown>
     490: 17 14 00 00  	auipc	s0, 1
     494: 00 00        	<unknown>
     496: 00 00        	<unknown>
     498: f8 01        	<unknown>
     49a: 00 00        	<unknown>
     49c: 33 00 00 00  	add	zero, zero, zero
     4a0: 00 00        	<unknown>
     4a2: 00 00        	<unknown>
     4a4: fc 01        	<unknown>
     4a6: 00 00        	<unknown>
     4a8: 18 3a        	<unknown>
     4aa: 00 00        	<unknown>
     4ac: 00 00        	<unknown>
     4ae: 00 00        	<unknown>
     4b0: fc 01        	<unknown>
     4b2: 00 00        	<unknown>
     4b4: 33 00 00 00  	add	zero, zero, zero
     4b8: 00 00        	<unknown>
     4ba: 00 00        	<unknown>
     4bc: 20 02        	<unknown>
     4be: 00 00        	<unknown>
     4c0: 17 12 00 00  	auipc	tp, 1
     4c4: 00 00        	<unknown>
     4c6: 00 00        	<unknown>
     4c8: 20 02        	<unknown>
     4ca: 00 00        	<unknown>
     4cc: 33 00 00 00  	add	zero, zero, zero
     4d0: 00 00        	<unknown>
     4d2: 00 00        	<unknown>
     4d4: 24 02        	<unknown>
     4d6: 00 00        	<unknown>
     4d8: 18 3b        	<unknown>
     4da: 00 00        	<unknown>
     4dc: 00 00        	<unknown>
     4de: 00 00        	<unknown>
     4e0: 24 02        	<unknown>
     4e2: 00 00        	<unknown>
     4e4: 33 00 00 00  	add	zero, zero, zero
     4e8: 00 00        	<unknown>
     4ea: 00 00        	<unknown>
     4ec: 2c 02        	<unknown>
     4ee: 00 00        	<unknown>
     4f0: 10 3c        	<unknown>
     4f2: 00 00        	<unknown>
     4f4: 00 00        	<unknown>
     4f6: 00 00        	<unknown>
     4f8: 30 02        	<unknown>
     4fa: 00 00        	<unknown>
     4fc: 17 14 00 00  	auipc	s0, 1
     500: 00 00        	<unknown>
     502: 00 00        	<unknown>
     504: 30 02        	<unknown>
     506: 00 00        	<unknown>
     508: 33 00 00 00  	add	zero, zero, zero
     50c: 00 00        	<unknown>
     50e: 00 00        	<unknown>
     510: 34 02        	<unknown>
     512: 00 00        	<unknown>
     514: 18 3d        	<unknown>
     516: 00 00        	<unknown>
     518: 00 00        	<unknown>
     51a: 00 00        	<unknown>
     51c: 34 02        	<unknown>
     51e: 00 00        	<unknown>
     520: 33 00 00 00  	add	zero, zero, zero
     524: 00 00        	<unknown>
     526: 00 00        	<unknown>
     528: 38 02        	<unknown>
     52a: 00 00        	<unknown>
     52c: 17 15 00 00  	auipc	a0, 1
     530: 00 00        	<unknown>
     532: 00 00        	<unknown>
     534: 38 02        	<unknown>
     536: 00 00        	<unknown>
     538: 33 00 00 00  	add	zero, zero, zero
     53c: 00 00        	<unknown>
     53e: 00 00        	<unknown>
     540: 3c 02        	<unknown>
     542: 00 00        	<unknown>
     544: 18 3e        	<unknown>
     546: 00 00        	<unknown>
     548: 00 00        	<unknown>
     54a: 00 00        	<unknown>
     54c: 3c 02        	<unknown>
     54e: 00 00        	<unknown>
     550: 33 00 00 00  	add	zero, zero, zero
     554: 00 00        	<unknown>
     556: 00 00        	<unknown>
     558: 74 02        	<unknown>
     55a: 00 00        	<unknown>
     55c: 10 3f        	<unknown>
     55e: 00 00        	<unknown>
     560: 00 00        	<unknown>
     562: 00 00        	<unknown>
     564: 7c 02        	<unknown>
     566: 00 00        	<unknown>
     568: 10 1b        	<unknown>
     56a: 00 00        	<unknown>
     56c: 00 00        	<unknown>
     56e: 00 00        	<unknown>
     570: 84 02        	<unknown>
     572: 00 00        	<unknown>
     574: 17 06 00 00  	auipc	a2, 0
     578: 00 00        	<unknown>
     57a: 00 00        	<unknown>
     57c: 84 02        	<unknown>
     57e: 00 00        	<unknown>
     580: 33 00 00 00  	add	zero, zero, zero
     584: 00 00        	<unknown>
     586: 00 00        	<unknown>
     588: 88 02        	<unknown>
     58a: 00 00        	<unknown>
     58c: 18 40        	<unknown>
     58e: 00 00        	<unknown>
     590: 00 00        	<unknown>
     592: 00 00        	<unknown>
     594: 88 02        	<unknown>
     596: 00 00        	<unknown>
     598: 33 00 00 00  	add	zero, zero, zero
     59c: 00 00        	<unknown>
     59e: 00 00        	<unknown>
     5a0: a0 02        	<unknown>
     5a2: 00 00        	<unknown>
     5a4: 17 13 00 00  	auipc	t1, 1
     5a8: 00 00        	<unknown>
     5aa: 00 00        	<unknown>
     5ac: a0 02        	<unknown>
     5ae: 00 00        	<unknown>
     5b0: 33 00 00 00  	add	zero, zero, zero
     5b4: 00 00        	<unknown>
     5b6: 00 00        	<unknown>
     5b8: a4 02        	<unknown>
     5ba: 00 00        	<unknown>
     5bc: 18 41        	<unknown>
     5be: 00 00        	<unknown>
     5c0: 00 00        	<unknown>
     5c2: 00 00        	<unknown>
     5c4: a4 02        	<unknown>
     5c6: 00 00        	<unknown>
     5c8: 33 00 00 00  	add	zero, zero, zero
     5cc: 00 00        	<unknown>
     5ce: 00 00        	<unknown>

Disassembly of section .sdata:

00000000 <.LCPI0_0>:
       0: 00 00        	<unknown>
       2: e0 fe        	<unknown>
       4: 42 2e        	<unknown>
       6: e6 3f        	<unknown>

00000008 <.LCPI0_1>:
       8: 76 3c        	<unknown>
       a: 79 35        	<unknown>
       c: ef 39 ea bd  	jal	s3, 0xfffa33ea <.LCPI0_21+0xfffffffffffa334a>

00000010 <.LCPI0_2>:
      10: 00 00        	<unknown>
      12: e0 fe        	<unknown>
      14: 42 2e        	<unknown>
      16: e6 bf        	<unknown>

00000018 <.LCPI0_3>:
      18: 76 3c        	<unknown>
      1a: 79 35        	<unknown>
      1c: ef 39 ea 3d  	jal	s3, 0xa33fa <.LCPI0_21+0xa335a>

00000020 <.LCPI0_4>:
      20: 00 00        	<unknown>
      22: 00 00        	<unknown>
      24: 00 00        	<unknown>
      26: f0 bf        	<unknown>

00000028 <.LCPI0_5>:
      28: ef 39 fa fe  	jal	s3, 0xfffa4016 <.LCPI0_21+0xfffffffffffa3f76>
      2c: 42 2e        	<unknown>
      2e: 86 40        	<unknown>

00000030 <.LCPI0_7>:
      30: fe 82        	<unknown>
      32: 2b 65 47 15  	<unknown>
      36: f7 3f 00 00  	<unknown>

00000038 <.LCPI0_8>:
      38: 00 00        	<unknown>
      3a: 00 00        	<unknown>
      3c: 00 00        	<unknown>
      3e: e0 3f        	<unknown>

00000040 <.LCPI0_9>:
      40: 39 52        	<unknown>
      42: e6 86        	<unknown>
      44: ca cf        	<unknown>
      46: d0 3e        	<unknown>

00000048 <.LCPI0_10>:
      48: 2d c3        	<unknown>
      4a: 09 6e        	<unknown>
      4c: b7 fd 8a be  	lui	s11, 780463

00000050 <.LCPI0_11>:
      50: b7 db aa 9e  	lui	s7, 649901
      54: 19 ce        	<unknown>
      56: 14 bf        	<unknown>

00000058 <.LCPI0_12>:
      58: 85 55        	<unknown>
      5a: fe 19        	<unknown>
      5c: a0 01        	<unknown>
      5e: 5a 3f        	<unknown>

00000060 <.LCPI0_13>:
      60: f4 10        	<unknown>
      62: 11 11        	<unknown>
      64: 11 11        	<unknown>
      66: a1 bf        	<unknown>

00000068 <.LCPI0_14>:
      68: 00 00        	<unknown>
      6a: 00 00        	<unknown>
      6c: 00 00        	<unknown>
      6e: f0 3f        	<unknown>

00000070 <.LCPI0_15>:
      70: 00 00        	<unknown>
      72: 00 00        	<unknown>
      74: 00 00        	<unknown>
      76: 08 40        	<unknown>

00000078 <.LCPI0_16>:
      78: 00 00        	<unknown>
      7a: 00 00        	<unknown>
      7c: 00 00        	<unknown>
      7e: 18 c0        	<unknown>

00000080 <.LCPI0_17>:
      80: 00 00        	<unknown>
      82: 00 00        	<unknown>
      84: 00 00        	<unknown>
      86: d0 bf        	<unknown>

00000088 <.LCPI0_18>:
      88: 00 00        	<unknown>
      8a: 00 00        	<unknown>
      8c: 00 00        	<unknown>
      8e: 00 40        	<unknown>

00000090 <.LCPI0_19>:
      90: 00 00        	<unknown>
      92: 00 00        	<unknown>
      94: 00 00        	<unknown>
      96: e0 bf        	<unknown>

00000098 <.LCPI0_20>:
      98: 00 00        	<unknown>
      9a: 00 00        	<unknown>
      9c: 00 00        	<unknown>
      9e: 00 c0        	<unknown>

000000a0 <.LCPI0_21>:
      a0: 00 00        	<unknown>
      a2: 00 00        	<unknown>
      a4: 00 00        	<unknown>
      a6: e0 7f        	<unknown>

Disassembly of section .rodata.cst16:

00000000 <.LCPI0_6>:
       0: 00 00        	<unknown>
       2: 00 00        	<unknown>
       4: 00 00        	<unknown>
       6: e0 bf        	<unknown>
       8: 00 00        	<unknown>
       a: 00 00        	<unknown>
       c: 00 00        	<unknown>
       e: e0 3f        	<unknown>

Disassembly of section .comment:

00000000 <.comment>:
       0: 00 55        	<unknown>
       2: 62 75        	<unknown>
       4: 6e 74        	<unknown>
       6: 75 20        	<unknown>
       8: 63 6c 61 6e  	bltu	sp, t1, 0x700 <.comment+0x700>
       c: 67 20 76 65  	<unknown>
      10: 72 73        	<unknown>
      12: 69 6f        	<unknown>
      14: 6e 20        	<unknown>
      16: 31 37        	<unknown>
      18: 2e 30        	<unknown>
      1a: 2e 36        	<unknown>
      1c: 20 28        	<unknown>
      1e: 39 75        	<unknown>
      20: 62 75        	<unknown>
      22: 6e 74        	<unknown>
      24: 75 31        	<unknown>
      26: 29 00        	<unknown>

Disassembly of section .riscv.attributes:

00000000 <.riscv.attributes>:
       0: 41 3f        	<unknown>
       2: 00 00        	<unknown>
       4: 00 72        	<unknown>
       6: 69 73        	<unknown>
       8: 63 76 00 01  	bgeu	zero, a6, 0x14 <.riscv.attributes+0x14>
       c: 35 00        	<unknown>
       e: 00 00        	<unknown>
      10: 04 10        	<unknown>
      12: 05 72        	<unknown>
      14: 76 33        	<unknown>
      16: 32 69        	<unknown>
      18: 32 70        	<unknown>
      1a: 31 5f        	<unknown>
      1c: 6d 32        	<unknown>
      1e: 70 30        	<unknown>
      20: 5f 61 32 70  	<unknown>
      24: 31 5f        	<unknown>
      26: 66 32        	<unknown>
      28: 70 32        	<unknown>
      2a: 5f 64 32 70  	<unknown>
      2e: 32 5f        	<unknown>
      30: 7a 69        	<unknown>
      32: 63 73 72 32  	bgeu	tp, t2, 0x358 <.riscv.attributes+0x358>
      36: 70 30        	<unknown>
      38: 5f 7a 66 68  	<unknown>
      3c: 31 70        	<unknown>
      3e: 30 00        	<unknown>

Disassembly of section .symtab:

00000000 <.symtab>:
		...
      10: 45 00        	<unknown>
		...
      1a: 00 00        	<unknown>
      1c: 04 00        	<unknown>
      1e: f1 ff        	<unknown>
      20: d5 02        	<unknown>
		...
      2e: 04 00        	<unknown>
      30: 89 02        	<unknown>
      32: 00 00        	<unknown>
      34: 08 00        	<unknown>
		...
      3e: 04 00        	<unknown>
      40: 41 02        	<unknown>
      42: 00 00        	<unknown>
      44: 10 00        	<unknown>
		...
      4e: 04 00        	<unknown>
      50: 00 02        	<unknown>
      52: 00 00        	<unknown>
      54: 18 00        	<unknown>
		...
      5e: 04 00        	<unknown>
      60: b6 01        	<unknown>
      62: 00 00        	<unknown>
      64: 20 00        	<unknown>
		...
      6e: 04 00        	<unknown>
      70: 6b 01 00 00  	<unknown>
      74: 28 00        	<unknown>
		...
      7e: 04 00        	<unknown>
      80: ea 00        	<unknown>
      82: 00 00        	<unknown>
      84: 30 00        	<unknown>
		...
      8e: 04 00        	<unknown>
      90: ad 00        	<unknown>
      92: 00 00        	<unknown>
      94: 38 00        	<unknown>
		...
      9e: 04 00        	<unknown>
      a0: 70 00        	<unknown>
      a2: 00 00        	<unknown>
      a4: 40 00        	<unknown>
		...
      ae: 04 00        	<unknown>
      b0: 14 03        	<unknown>
      b2: 00 00        	<unknown>
      b4: 48 00        	<unknown>
		...
      be: 04 00        	<unknown>
      c0: bf 02 00 00  	<unknown>
      c4: 50 00        	<unknown>
		...
      ce: 04 00        	<unknown>
      d0: 64 02        	<unknown>
      d2: 00 00        	<unknown>
      d4: 58 00        	<unknown>
		...
      de: 04 00        	<unknown>
      e0: 2b 02 00 00  	<unknown>
      e4: 60 00        	<unknown>
		...
      ee: 04 00        	<unknown>
      f0: ea 01        	<unknown>
      f2: 00 00        	<unknown>
      f4: 68 00        	<unknown>
		...
      fe: 04 00        	<unknown>
     100: 97 01 00 00  	auipc	gp, 0
     104: 70 00        	<unknown>
		...
     10e: 04 00        	<unknown>
     110: 4c 01        	<unknown>
     112: 00 00        	<unknown>
     114: 78 00        	<unknown>
		...
     11e: 04 00        	<unknown>
     120: 09 01        	<unknown>
     122: 00 00        	<unknown>
     124: 80 00        	<unknown>
		...
     12e: 04 00        	<unknown>
     130: cb 00 00 00  	fnmsub.s	ft1, ft0, ft0, ft0, rne
     134: 88 00        	<unknown>
		...
     13e: 04 00        	<unknown>
     140: 8e 00        	<unknown>
     142: 00 00        	<unknown>
     144: 90 00        	<unknown>
		...
     14e: 04 00        	<unknown>
     150: f4 02        	<unknown>
     152: 00 00        	<unknown>
     154: 98 00        	<unknown>
		...
     15e: 04 00        	<unknown>
     160: a8 02        	<unknown>
     162: 00 00        	<unknown>
     164: a0 00        	<unknown>
		...
     16e: 04 00        	<unknown>
     170: 28 01        	<unknown>
		...
     17e: 05 00        	<unknown>
     180: bf 01 00 00  	<unknown>
     184: 58 00        	<unknown>
		...
     18e: 02 00        	<unknown>
     190: b6 00        	<unknown>
     192: 00 00        	<unknown>
     194: 90 00        	<unknown>
		...
     19e: 02 00        	<unknown>
     1a0: 79 00        	<unknown>
     1a2: 00 00        	<unknown>
     1a4: 9c 00        	<unknown>
		...
     1ae: 02 00        	<unknown>
     1b0: 09 02        	<unknown>
     1b2: 00 00        	<unknown>
     1b4: 50 00        	<unknown>
		...
     1be: 02 00        	<unknown>
     1c0: 6e 02        	<unknown>
     1c2: 00 00        	<unknown>
     1c4: c4 00        	<unknown>
		...
     1ce: 02 00        	<unknown>
     1d0: a1 01        	<unknown>
     1d2: 00 00        	<unknown>
     1d4: e4 00        	<unknown>
		...
     1de: 02 00        	<unknown>
     1e0: d5 00        	<unknown>
     1e2: 00 00        	<unknown>
     1e4: 4c 01        	<unknown>
		...
     1ee: 02 00        	<unknown>
     1f0: f4 01        	<unknown>
     1f2: 00 00        	<unknown>
     1f4: 74 00        	<unknown>
		...
     1fe: 02 00        	<unknown>
     200: aa 01        	<unknown>
     202: 00 00        	<unknown>
     204: 7c 00        	<unknown>
		...
     20e: 02 00        	<unknown>
     210: 98 00        	<unknown>
     212: 00 00        	<unknown>
     214: 64 01        	<unknown>
		...
     21e: 02 00        	<unknown>
     220: 13 01 00 00  	li	sp, 0
     224: 3c 01        	<unknown>
		...
     22e: 02 00        	<unknown>
     230: 7d 02        	<unknown>
     232: 00 00        	<unknown>
     234: a0 00        	<unknown>
		...
     23e: 02 00        	<unknown>
     240: 35 02        	<unknown>
     242: 00 00        	<unknown>
     244: b0 00        	<unknown>
		...
     24e: 02 00        	<unknown>
     250: 56 01        	<unknown>
     252: 00 00        	<unknown>
     254: 34 01        	<unknown>
		...
     25e: 02 00        	<unknown>
     260: de 00        	<unknown>
     262: 00 00        	<unknown>
     264: f0 00        	<unknown>
		...
     26e: 02 00        	<unknown>
     270: a1 00        	<unknown>
     272: 00 00        	<unknown>
     274: 00 01        	<unknown>
		...
     27e: 02 00        	<unknown>
     280: 64 00        	<unknown>
     282: 00 00        	<unknown>
     284: 0c 01        	<unknown>
		...
     28e: 02 00        	<unknown>
     290: 07 03 00 00  	<unknown>
     294: 14 01        	<unknown>
		...
     29e: 02 00        	<unknown>
     2a0: fe 02        	<unknown>
     2a2: 00 00        	<unknown>
     2a4: 68 01        	<unknown>
		...
     2ae: 02 00        	<unknown>
     2b0: c9 02        	<unknown>
     2b2: 00 00        	<unknown>
     2b4: 3c 01        	<unknown>
		...
     2be: 02 00        	<unknown>
     2c0: 5f 01 00 00  	<unknown>
     2c4: 4c 01        	<unknown>
		...
     2ce: 02 00        	<unknown>
     2d0: 1c 01        	<unknown>
     2d2: 00 00        	<unknown>
     2d4: 54 01        	<unknown>
		...
     2de: 02 00        	<unknown>
     2e0: b2 02        	<unknown>
     2e2: 00 00        	<unknown>
     2e4: 68 01        	<unknown>
		...
     2ee: 02 00        	<unknown>
     2f0: 57 02 00 00  	<unknown>
     2f4: 78 01        	<unknown>
		...
     2fe: 02 00        	<unknown>
     300: 1e 02        	<unknown>
     302: 00 00        	<unknown>
     304: 80 01        	<unknown>
		...
     30e: 02 00        	<unknown>
     310: dd 01        	<unknown>
     312: 00 00        	<unknown>
     314: 88 01        	<unknown>
		...
     31e: 02 00        	<unknown>
     320: 8a 01        	<unknown>
     322: 00 00        	<unknown>
     324: 90 01        	<unknown>
		...
     32e: 02 00        	<unknown>
     330: 3f 01 00 00  	<unknown>
     334: 98 01        	<unknown>
		...
     33e: 02 00        	<unknown>
     340: fc 00        	<unknown>
     342: 00 00        	<unknown>
     344: b0 01        	<unknown>
		...
     34e: 02 00        	<unknown>
     350: be 00        	<unknown>
     352: 00 00        	<unknown>
     354: b8 01        	<unknown>
		...
     35e: 02 00        	<unknown>
     360: 81 00        	<unknown>
     362: 00 00        	<unknown>
     364: c0 01        	<unknown>
		...
     36e: 02 00        	<unknown>
     370: d4 01        	<unknown>
     372: 00 00        	<unknown>
     374: 10 02        	<unknown>
		...
     37e: 02 00        	<unknown>
     380: 81 01        	<unknown>
     382: 00 00        	<unknown>
     384: 20 02        	<unknown>
		...
     38e: 02 00        	<unknown>
     390: f3 00 00 00  	<unknown>
     394: 54 02        	<unknown>
		...
     39e: 02 00        	<unknown>
     3a0: e7 02 00 00  	jalr	t0, zero
     3a4: f8 01        	<unknown>
		...
     3ae: 02 00        	<unknown>
     3b0: 9b 02 00 00  	<unknown>
     3b4: 20 02        	<unknown>
		...
     3be: 02 00        	<unknown>
     3c0: de 02        	<unknown>
     3c2: 00 00        	<unknown>
     3c4: a0 02        	<unknown>
		...
     3ce: 02 00        	<unknown>
     3d0: 4a 02        	<unknown>
     3d2: 00 00        	<unknown>
     3d4: 30 02        	<unknown>
		...
     3de: 02 00        	<unknown>
     3e0: 11 02        	<unknown>
     3e2: 00 00        	<unknown>
     3e4: 38 02        	<unknown>
		...
     3ee: 02 00        	<unknown>
     3f0: 92 02        	<unknown>
     3f2: 00 00        	<unknown>
     3f4: b8 02        	<unknown>
		...
     3fe: 02 00        	<unknown>
     400: 74 01        	<unknown>
     402: 00 00        	<unknown>
     404: 84 02        	<unknown>
		...
     40e: 02 00        	<unknown>
     410: c7 01 00 00  	fmsub.s	ft3, ft0, ft0, ft0, rne
     414: a0 02        	<unknown>
		...
     41e: 02 00        	<unknown>
     420: 77 02 00 00  	<unknown>
     424: 00 00        	<unknown>
     426: 00 00        	<unknown>
     428: f4 02        	<unknown>
     42a: 00 00        	<unknown>
     42c: 12 00        	<unknown>
     42e: 02 00        	<unknown>

/workspaces/snax_cluster/target/snitch_cluster/sw/math/build/libmath.a(log2.o):	file format elf32-littleriscv

Disassembly of section .strtab:

00000000 <.strtab>:
       0: 00 2e        	<unknown>
       2: 72 65        	<unknown>
       4: 6c 61        	<unknown>
       6: 2e 74        	<unknown>
       8: 65 78        	<unknown>
       a: 74 00        	<unknown>
       c: 2e 63        	<unknown>
       e: 6f 6d 6d 65  	jal	s10, 0xd6664 <.strtab+0xd6664>
      12: 6e 74        	<unknown>
      14: 00 2e        	<unknown>
      16: 72 69        	<unknown>
      18: 73 63 76 2e  	csrrsi	t1, 743, 12
      1c: 61 74        	<unknown>
      1e: 74 72        	<unknown>
      20: 69 62        	<unknown>
      22: 75 74        	<unknown>
      24: 65 73        	<unknown>
      26: 00 5f        	<unknown>
      28: 5f 6d 61 74  	<unknown>
      2c: 68 5f        	<unknown>
      2e: 64 69        	<unknown>
      30: 76 7a        	<unknown>
      32: 65 72        	<unknown>
      34: 6f 00 2e 6e  	j	0xe0716 <.strtab+0xe0716>
      38: 6f 74 65 2e  	jal	s0, 0x5731e <.strtab+0x5731e>
      3c: 47 4e 55 2d  	fmsub.h	ft8, fa0, fs5, ft5, rmm
      40: 73 74 61 63  	csrrci	s0, 1590, 2
      44: 6b 00 2e 6c  	<unknown>
      48: 6c 76        	<unknown>
      4a: 6d 5f        	<unknown>
      4c: 61 64        	<unknown>
      4e: 64 72        	<unknown>
      50: 73 69 67 00  	csrrsi	s2, 6, 14
      54: 5f 5f 6d 61  	<unknown>
      58: 74 68        	<unknown>
      5a: 5f 69 6e 76  	<unknown>
      5e: 61 6c        	<unknown>
      60: 69 64        	<unknown>
      62: 00 6c        	<unknown>
      64: 6f 67 32 2e  	jal	a4, 0x26b46 <.strtab+0x26b46>
      68: 63 00 2e 73  	beq	t3, s2, 0x788 <.strtab+0x788>
      6c: 74 72        	<unknown>
      6e: 74 61        	<unknown>
      70: 62 00        	<unknown>
      72: 2e 73        	<unknown>
      74: 79 6d        	<unknown>
      76: 74 61        	<unknown>
      78: 62 00        	<unknown>
      7a: 2e 73        	<unknown>
      7c: 64 61        	<unknown>
      7e: 74 61        	<unknown>
      80: 00 5f        	<unknown>
      82: 5f 6c 6f 67  	<unknown>
      86: 32 5f        	<unknown>
      88: 64 61        	<unknown>
      8a: 74 61        	<unknown>
      8c: 00 2e        	<unknown>
      8e: 4c 42        	<unknown>
      90: 42 30        	<unknown>
      92: 5f 37 00 2e  	<unknown>
      96: 4c 42        	<unknown>
      98: 42 30        	<unknown>
      9a: 5f 35 00 2e  	<unknown>
      9e: 4c 42        	<unknown>
      a0: 42 30        	<unknown>
      a2: 5f 34 00 2e  	<unknown>
      a6: 4c 70        	<unknown>
      a8: 63 72 65 6c  	bgeu	a0, t1, 0x76c <.strtab+0x76c>
      ac: 5f 68 69 33  	<unknown>
      b0: 00 2e        	<unknown>
      b2: 4c 42        	<unknown>
      b4: 42 30        	<unknown>
      b6: 5f 33 00 2e  	<unknown>
      ba: 4c 42        	<unknown>
      bc: 42 30        	<unknown>
      be: 5f 31 33 00  	<unknown>
      c2: 2e 4c        	<unknown>
      c4: 70 63        	<unknown>
      c6: 72 65        	<unknown>
      c8: 6c 5f        	<unknown>
      ca: 68 69        	<unknown>
      cc: 32 00        	<unknown>
      ce: 6c 6f        	<unknown>
      d0: 67 32 00 2e  	<unknown>
      d4: 4c 42        	<unknown>
      d6: 42 30        	<unknown>
      d8: 5f 32 00 2e  	<unknown>
      dc: 4c 70        	<unknown>
      de: 63 72 65 6c  	bgeu	a0, t1, 0x7a2 <.strtab+0x7a2>
      e2: 5f 68 69 31  	<unknown>
      e6: 00 2e        	<unknown>
      e8: 4c 43        	<unknown>
      ea: 50 49        	<unknown>
      ec: 30 5f        	<unknown>
      ee: 31 00        	<unknown>
      f0: 2e 4c        	<unknown>
      f2: 42 42        	<unknown>
      f4: 30 5f        	<unknown>
      f6: 31 31        	<unknown>
      f8: 00 2e        	<unknown>
      fa: 4c 70        	<unknown>
      fc: 63 72 65 6c  	bgeu	a0, t1, 0x7c0 <.strtab+0x7c0>
     100: 5f 68 69 30  	<unknown>
     104: 00 2e        	<unknown>
     106: 4c 43        	<unknown>
     108: 50 49        	<unknown>
     10a: 30 5f        	<unknown>
     10c: 30 00        	<unknown>
     10e: 2e 4c        	<unknown>
     110: 42 42        	<unknown>
     112: 30 5f        	<unknown>
     114: 31 30        	<unknown>
     116: 00           	<unknown>

Disassembly of section .text:

00000000 <log2>:
       0: 13 01 01 fe  	addi	sp, sp, -32
       4: 53 05 05 e0  	fmv.x.w	a0, fa0
       8: 13 05 05 00  	mv	a0, a0
       c: 27 3c a1 00  	fsd	fa0, 24(sp)
      10: 83 25 c1 01  	lw	a1, 28(sp)
      14: 03 25 81 01  	lw	a0, 24(sp)
      18: 53 06 05 e0  	fmv.x.w	a2, fa0
      1c: 13 06 06 00  	mv	a2, a2
      20: 53 06 05 e0  	fmv.x.w	a2, fa0
      24: 13 06 06 00  	mv	a2, a2
      28: 37 66 11 c0  	lui	a2, 786710
      2c: 13 06 16 b5  	addi	a2, a2, -1199
      30: 33 86 c5 00  	add	a2, a1, a2
      34: d3 06 05 e0  	fmv.x.w	a3, fa0
      38: 93 86 06 00  	mv	a3, a3
      3c: d3 06 05 e0  	fmv.x.w	a3, fa0
      40: 93 86 06 00  	mv	a3, a3
      44: b7 16 02 00  	lui	a3, 33
      48: 93 86 96 0a  	addi	a3, a3, 169
      4c: 63 f0 c6 00  	bgeu	a3, a2, 0x4c <log2+0x4c>
      50: 13 d6 05 01  	srli	a2, a1, 16
      54: b7 86 ff ff  	lui	a3, 1048568
      58: 13 87 06 01  	addi	a4, a3, 16
      5c: 33 07 e6 00  	add	a4, a2, a4
      60: 93 86 f6 01  	addi	a3, a3, 31
      64: 63 f0 e6 00  	bgeu	a3, a4, 0x64 <log2+0x64>

00000068 <.LBB0_2>:
      68: 37 06 1a c0  	lui	a2, 786848
      6c: 33 86 c5 00  	add	a2, a1, a2
      70: b7 06 f0 ff  	lui	a3, 1048320
      74: b3 76 d6 00  	and	a3, a2, a3
      78: 23 24 a1 00  	sw	a0, 8(sp)
      7c: b3 85 d5 40  	sub	a1, a1, a3
      80: 23 26 b1 00  	sw	a1, 12(sp)
      84: 87 37 81 00  	fld	fa5, 8(sp)
      88: 13 55 a6 00  	srli	a0, a2, 10
      8c: 13 75 05 3f  	andi	a0, a0, 1008

00000090 <.Lpcrel_hi3>:
      90: 97 05 00 00  	auipc	a1, 0
      94: 93 85 05 00  	mv	a1, a1
      98: 33 85 a5 00  	add	a0, a1, a0
      9c: 07 37 05 09  	fld	fa4, 144(a0)
      a0: 87 36 85 09  	fld	fa3, 152(a0)
      a4: d3 06 05 e0  	fmv.x.w	a3, fa0
      a8: 93 86 06 00  	mv	a3, a3
      ac: 07 36 05 49  	fld	fa2, 1168(a0)
      b0: 87 35 85 49  	fld	fa1, 1176(a0)
      b4: 13 56 46 41  	srai	a2, a2, 20
      b8: 53 05 06 d2  	fcvt.d.w	fa0, a2
      bc: 53 76 b6 02  	fadd.d	fa2, fa2, fa1
      c0: d3 f7 c7 0a  	fsub.d	fa5, fa5, fa2
      c4: d3 f7 e7 12  	fmul.d	fa5, fa5, fa4
      c8: 53 05 05 e0  	fmv.x.w	a0, fa0
      cc: 13 05 05 00  	mv	a0, a0
      d0: 53 05 05 e0  	fmv.x.w	a0, fa0
      d4: 13 05 05 00  	mv	a0, a0
      d8: 07 b7 05 00  	fld	fa4, 0(a1)
      dc: 07 b6 85 00  	fld	fa2, 8(a1)
      e0: 87 b5 05 01  	fld	fa1, 16(a1)
      e4: 07 b0 05 02  	fld	ft0, 32(a1)
      e8: 87 b0 85 02  	fld	ft1, 40(a1)
      ec: 07 b1 05 03  	fld	ft2, 48(a1)
      f0: 87 b1 85 03  	fld	ft3, 56(a1)
      f4: 07 b2 85 01  	fld	ft4, 24(a1)
      f8: 43 f0 f0 02  	fmadd.d	ft0, ft1, fa5, ft0
      fc: d3 f0 f7 12  	fmul.d	ft1, fa5, fa5
     100: 43 f1 f1 12  	fmadd.d	ft2, ft3, fa5, ft2
     104: 43 70 11 02  	fmadd.d	ft0, ft2, ft1, ft0
     108: c3 75 f2 5a  	fmadd.d	fa1, ft4, fa5, fa1
     10c: c3 75 10 5a  	fmadd.d	fa1, ft0, ft1, fa1
     110: d3 f6 a6 02  	fadd.d	fa3, fa3, fa0
     114: c3 76 f6 6a  	fmadd.d	fa3, fa2, fa5, fa3
     118: c3 f7 e7 6a  	fmadd.d	fa5, fa5, fa4, fa3

0000011c <.LBB0_3>:
     11c: c3 f7 15 7a  	fmadd.d	fa5, fa1, ft1, fa5

00000120 <.LBB0_4>:
     120: 53 85 f7 22  	fmv.d	fa0, fa5
     124: 13 01 01 02  	addi	sp, sp, 32
     128: 67 80 00 00  	ret

0000012c <.LBB0_5>:
     12c: 53 06 05 e0  	fmv.x.w	a2, fa0
     130: 13 06 06 00  	mv	a2, a2
     134: 37 06 f0 3f  	lui	a2, 261888
     138: b3 c5 c5 00  	xor	a1, a1, a2
     13c: 33 65 b5 00  	or	a0, a0, a1
     140: d3 07 00 d2  	fcvt.d.w	fa5, zero
     144: 63 00 05 00  	beqz	a0, 0x144 <.LBB0_5+0x18>

00000148 <.Lpcrel_hi0>:
     148: 17 05 00 00  	auipc	a0, 0
     14c: 87 37 05 00  	fld	fa5, 0(a0)
     150: d3 77 f5 02  	fadd.d	fa5, fa0, fa5
     154: 53 05 05 e0  	fmv.x.w	a0, fa0
     158: 13 05 05 00  	mv	a0, a0
     15c: 53 05 05 e0  	fmv.x.w	a0, fa0
     160: 13 05 05 00  	mv	a0, a0

00000164 <.Lpcrel_hi1>:
     164: 17 05 00 00  	auipc	a0, 0
     168: 13 05 05 00  	mv	a0, a0
     16c: 07 37 05 00  	fld	fa4, 0(a0)
     170: 87 36 85 00  	fld	fa3, 8(a0)
     174: 07 36 05 04  	fld	fa2, 64(a0)
     178: 87 35 85 04  	fld	fa1, 72(a0)
     17c: 07 35 05 05  	fld	fa0, 80(a0)
     180: 07 30 85 05  	fld	ft0, 88(a0)
     184: 87 30 05 06  	fld	ft1, 96(a0)
     188: 07 31 85 06  	fld	ft2, 104(a0)
     18c: d3 f1 f7 12  	fmul.d	ft3, fa5, fa5
     190: 43 f6 f5 62  	fmadd.d	fa2, fa1, fa5, fa2
     194: c3 75 f0 52  	fmadd.d	fa1, ft0, fa5, fa0
     198: 43 75 f1 0a  	fmadd.d	fa0, ft2, fa5, ft1
     19c: 07 30 05 07  	fld	ft0, 112(a0)
     1a0: 87 30 85 07  	fld	ft1, 120(a0)
     1a4: c3 75 35 5a  	fmadd.d	fa1, fa0, ft3, fa1
     1a8: 07 35 05 08  	fld	fa0, 128(a0)
     1ac: 07 31 85 08  	fld	ft2, 136(a0)
     1b0: 43 f0 f0 02  	fmadd.d	ft0, ft1, fa5, ft0
     1b4: d3 f0 31 12  	fmul.d	ft1, ft3, ft3
     1b8: 53 76 36 12  	fmul.d	fa2, fa2, ft3
     1bc: 43 75 f1 52  	fmadd.d	fa0, ft2, fa5, fa0
     1c0: 43 75 35 02  	fmadd.d	fa0, fa0, ft3, ft0
     1c4: c3 75 15 5a  	fmadd.d	fa1, fa0, ft1, fa1
     1c8: 53 f7 e6 02  	fadd.d	fa4, fa3, fa4
     1cc: c3 77 f7 62  	fmadd.d	fa5, fa4, fa5, fa2
     1d0: 6f 00 00 00  	j	0x1d0 <.Lpcrel_hi1+0x6c>

000001d4 <.LBB0_7>:
     1d4: 93 96 15 00  	slli	a3, a1, 1
     1d8: 93 d6 16 00  	srli	a3, a3, 1
     1dc: b3 66 d5 00  	or	a3, a0, a3
     1e0: 63 80 06 00  	beqz	a3, 0x1e0 <.LBB0_7+0xc>
     1e4: d3 06 05 e0  	fmv.x.w	a3, fa0
     1e8: 93 86 06 00  	mv	a3, a3
     1ec: b7 06 f0 7f  	lui	a3, 524032
     1f0: b3 c5 d5 00  	xor	a1, a1, a3
     1f4: 33 65 b5 00  	or	a0, a0, a1
     1f8: 63 10 05 00  	bnez	a0, 0x1f8 <.LBB0_7+0x24>
     1fc: 13 01 01 02  	addi	sp, sp, 32
     200: 67 80 00 00  	ret

00000204 <.LBB0_10>:
     204: 13 05 10 00  	li	a0, 1
     208: 13 01 01 02  	addi	sp, sp, 32
     20c: 17 03 00 00  	auipc	t1, 0
     210: 67 00 03 00  	jr	t1

00000214 <.LBB0_11>:
     214: 13 55 f6 00  	srli	a0, a2, 15
     218: 13 35 15 00  	seqz	a0, a0
     21c: b7 85 00 00  	lui	a1, 8
     220: 93 85 05 ff  	addi	a1, a1, -16
     224: 33 76 b6 00  	and	a2, a2, a1
     228: b3 45 b6 00  	xor	a1, a2, a1
     22c: b3 35 b0 00  	snez	a1, a1
     230: 33 75 b5 00  	and	a0, a0, a1
     234: 63 10 05 00  	bnez	a0, 0x234 <.LBB0_11+0x20>
     238: 13 01 01 02  	addi	sp, sp, 32
     23c: 17 03 00 00  	auipc	t1, 0
     240: 67 00 03 00  	jr	t1

00000244 <.Lpcrel_hi2>:
     244: 17 05 00 00  	auipc	a0, 0
     248: 87 37 05 00  	fld	fa5, 0(a0)
     24c: d3 77 f5 12  	fmul.d	fa5, fa0, fa5
     250: 53 05 05 e0  	fmv.x.w	a0, fa0
     254: 13 05 05 00  	mv	a0, a0
     258: 27 38 f1 00  	fsd	fa5, 16(sp)
     25c: 83 25 41 01  	lw	a1, 20(sp)
     260: 03 25 01 01  	lw	a0, 16(sp)
     264: 37 06 c0 fc  	lui	a2, 1035264
     268: b3 85 c5 00  	add	a1, a1, a2
     26c: 6f 00 00 00  	j	0x26c <.Lpcrel_hi2+0x28>

Disassembly of section .rela.text:

00000000 <.rela.text>:
       0: 4c 00        	<unknown>
       2: 00 00        	<unknown>
       4: 10 04        	<unknown>
       6: 00 00        	<unknown>
       8: 00 00        	<unknown>
       a: 00 00        	<unknown>
       c: 64 00        	<unknown>
       e: 00 00        	<unknown>
      10: 10 05        	<unknown>
      12: 00 00        	<unknown>
      14: 00 00        	<unknown>
      16: 00 00        	<unknown>
      18: 90 00        	<unknown>
      1a: 00 00        	<unknown>
      1c: 17 11 00 00  	auipc	sp, 1
      20: 00 00        	<unknown>
      22: 00 00        	<unknown>
      24: 90 00        	<unknown>
      26: 00 00        	<unknown>
      28: 33 00 00 00  	add	zero, zero, zero
      2c: 00 00        	<unknown>
      2e: 00 00        	<unknown>
      30: 94 00        	<unknown>
      32: 00 00        	<unknown>
      34: 18 07        	<unknown>
      36: 00 00        	<unknown>
      38: 00 00        	<unknown>
      3a: 00 00        	<unknown>
      3c: 94 00        	<unknown>
      3e: 00 00        	<unknown>
      40: 33 00 00 00  	add	zero, zero, zero
      44: 00 00        	<unknown>
      46: 00 00        	<unknown>
      48: 44 01        	<unknown>
      4a: 00 00        	<unknown>
      4c: 10 09        	<unknown>
      4e: 00 00        	<unknown>
      50: 00 00        	<unknown>
      52: 00 00        	<unknown>
      54: 48 01        	<unknown>
      56: 00 00        	<unknown>
      58: 17 03 00 00  	auipc	t1, 0
      5c: 00 00        	<unknown>
      5e: 00 00        	<unknown>
      60: 48 01        	<unknown>
      62: 00 00        	<unknown>
      64: 33 00 00 00  	add	zero, zero, zero
      68: 00 00        	<unknown>
      6a: 00 00        	<unknown>
      6c: 4c 01        	<unknown>
      6e: 00 00        	<unknown>
      70: 18 0a        	<unknown>
      72: 00 00        	<unknown>
      74: 00 00        	<unknown>
      76: 00 00        	<unknown>
      78: 4c 01        	<unknown>
      7a: 00 00        	<unknown>
      7c: 33 00 00 00  	add	zero, zero, zero
      80: 00 00        	<unknown>
      82: 00 00        	<unknown>
      84: 64 01        	<unknown>
      86: 00 00        	<unknown>
      88: 17 11 00 00  	auipc	sp, 1
      8c: 00 00        	<unknown>
      8e: 00 00        	<unknown>
      90: 64 01        	<unknown>
      92: 00 00        	<unknown>
      94: 33 00 00 00  	add	zero, zero, zero
      98: 00 00        	<unknown>
      9a: 00 00        	<unknown>
      9c: 68 01        	<unknown>
      9e: 00 00        	<unknown>
      a0: 18 0b        	<unknown>
      a2: 00 00        	<unknown>
      a4: 00 00        	<unknown>
      a6: 00 00        	<unknown>
      a8: 68 01        	<unknown>
      aa: 00 00        	<unknown>
      ac: 33 00 00 00  	add	zero, zero, zero
      b0: 00 00        	<unknown>
      b2: 00 00        	<unknown>
      b4: d0 01        	<unknown>
      b6: 00 00        	<unknown>
      b8: 11 08        	<unknown>
      ba: 00 00        	<unknown>
      bc: 00 00        	<unknown>
      be: 00 00        	<unknown>
      c0: e0 01        	<unknown>
      c2: 00 00        	<unknown>
      c4: 10 0c        	<unknown>
      c6: 00 00        	<unknown>
      c8: 00 00        	<unknown>
      ca: 00 00        	<unknown>
      cc: f8 01        	<unknown>
      ce: 00 00        	<unknown>
      d0: 10 0d        	<unknown>
      d2: 00 00        	<unknown>
      d4: 00 00        	<unknown>
      d6: 00 00        	<unknown>
      d8: 0c 02        	<unknown>
      da: 00 00        	<unknown>
      dc: 13 12 00 00  	slli	tp, zero, 0
      e0: 00 00        	<unknown>
      e2: 00 00        	<unknown>
      e4: 0c 02        	<unknown>
      e6: 00 00        	<unknown>
      e8: 33 00 00 00  	add	zero, zero, zero
      ec: 00 00        	<unknown>
      ee: 00 00        	<unknown>
      f0: 34 02        	<unknown>
      f2: 00 00        	<unknown>
      f4: 10 0e        	<unknown>
      f6: 00 00        	<unknown>
      f8: 00 00        	<unknown>
      fa: 00 00        	<unknown>
      fc: 3c 02        	<unknown>
      fe: 00 00        	<unknown>
     100: 13 13 00 00  	slli	t1, zero, 0
     104: 00 00        	<unknown>
     106: 00 00        	<unknown>
     108: 3c 02        	<unknown>
     10a: 00 00        	<unknown>
     10c: 33 00 00 00  	add	zero, zero, zero
     110: 00 00        	<unknown>
     112: 00 00        	<unknown>
     114: 44 02        	<unknown>
     116: 00 00        	<unknown>
     118: 17 02 00 00  	auipc	tp, 0
     11c: 00 00        	<unknown>
     11e: 00 00        	<unknown>
     120: 44 02        	<unknown>
     122: 00 00        	<unknown>
     124: 33 00 00 00  	add	zero, zero, zero
     128: 00 00        	<unknown>
     12a: 00 00        	<unknown>
     12c: 48 02        	<unknown>
     12e: 00 00        	<unknown>
     130: 18 0f        	<unknown>
     132: 00 00        	<unknown>
     134: 00 00        	<unknown>
     136: 00 00        	<unknown>
     138: 48 02        	<unknown>
     13a: 00 00        	<unknown>
     13c: 33 00 00 00  	add	zero, zero, zero
     140: 00 00        	<unknown>
     142: 00 00        	<unknown>
     144: 6c 02        	<unknown>
     146: 00 00        	<unknown>
     148: 11 06        	<unknown>
     14a: 00 00        	<unknown>
     14c: 00 00        	<unknown>
     14e: 00 00        	<unknown>

Disassembly of section .sdata:

00000000 <.LCPI0_0>:
       0: 00 00        	<unknown>
       2: 00 00        	<unknown>
       4: 00 00        	<unknown>
       6: 30 43        	<unknown>

00000008 <.LCPI0_1>:
       8: 00 00        	<unknown>
       a: 00 00        	<unknown>
       c: 00 00        	<unknown>
       e: f0 bf        	<unknown>

Disassembly of section .comment:

00000000 <.comment>:
       0: 00 55        	<unknown>
       2: 62 75        	<unknown>
       4: 6e 74        	<unknown>
       6: 75 20        	<unknown>
       8: 63 6c 61 6e  	bltu	sp, t1, 0x700 <.comment+0x700>
       c: 67 20 76 65  	<unknown>
      10: 72 73        	<unknown>
      12: 69 6f        	<unknown>
      14: 6e 20        	<unknown>
      16: 31 37        	<unknown>
      18: 2e 30        	<unknown>
      1a: 2e 36        	<unknown>
      1c: 20 28        	<unknown>
      1e: 39 75        	<unknown>
      20: 62 75        	<unknown>
      22: 6e 74        	<unknown>
      24: 75 31        	<unknown>
      26: 29 00        	<unknown>

Disassembly of section .riscv.attributes:

00000000 <.riscv.attributes>:
       0: 41 3f        	<unknown>
       2: 00 00        	<unknown>
       4: 00 72        	<unknown>
       6: 69 73        	<unknown>
       8: 63 76 00 01  	bgeu	zero, a6, 0x14 <.riscv.attributes+0x14>
       c: 35 00        	<unknown>
       e: 00 00        	<unknown>
      10: 04 10        	<unknown>
      12: 05 72        	<unknown>
      14: 76 33        	<unknown>
      16: 32 69        	<unknown>
      18: 32 70        	<unknown>
      1a: 31 5f        	<unknown>
      1c: 6d 32        	<unknown>
      1e: 70 30        	<unknown>
      20: 5f 61 32 70  	<unknown>
      24: 31 5f        	<unknown>
      26: 66 32        	<unknown>
      28: 70 32        	<unknown>
      2a: 5f 64 32 70  	<unknown>
      2e: 32 5f        	<unknown>
      30: 7a 69        	<unknown>
      32: 63 73 72 32  	bgeu	tp, t2, 0x358 <.riscv.attributes+0x358>
      36: 70 30        	<unknown>
      38: 5f 7a 66 68  	<unknown>
      3c: 31 70        	<unknown>
      3e: 30 00        	<unknown>

Disassembly of section .symtab:

00000000 <.symtab>:
		...
      10: 63 00 00 00  	beqz	zero, 0x10 <.symtab+0x10>
		...
      1c: 04 00        	<unknown>
      1e: f1 ff        	<unknown>
      20: 05 01        	<unknown>
		...
      2e: 04 00        	<unknown>
      30: e7 00 00 00  	jalr	zero
      34: 08 00        	<unknown>
		...
      3e: 04 00        	<unknown>
      40: 95 00        	<unknown>
      42: 00 00        	<unknown>
      44: 2c 01        	<unknown>
		...
      4e: 02 00        	<unknown>
      50: 8d 00        	<unknown>
      52: 00 00        	<unknown>
      54: d4 01        	<unknown>
		...
      5e: 02 00        	<unknown>
      60: d3 00 00 00  	fadd.s	ft1, ft0, ft0, rne
      64: 68 00        	<unknown>
		...
      6e: 02 00        	<unknown>
      70: a5 00        	<unknown>
      72: 00 00        	<unknown>
      74: 90 00        	<unknown>
		...
      7e: 02 00        	<unknown>
      80: b1 00        	<unknown>
      82: 00 00        	<unknown>
      84: 1c 01        	<unknown>
		...
      8e: 02 00        	<unknown>
      90: 9d 00        	<unknown>
      92: 00 00        	<unknown>
      94: 20 01        	<unknown>
		...
      9e: 02 00        	<unknown>
      a0: f9 00        	<unknown>
      a2: 00 00        	<unknown>
      a4: 48 01        	<unknown>
		...
      ae: 02 00        	<unknown>
      b0: db 00 00 00  	<unknown>
      b4: 64 01        	<unknown>
		...
      be: 02 00        	<unknown>
      c0: 0e 01        	<unknown>
      c2: 00 00        	<unknown>
      c4: 04 02        	<unknown>
		...
      ce: 02 00        	<unknown>
      d0: f0 00        	<unknown>
      d2: 00 00        	<unknown>
      d4: 14 02        	<unknown>
		...
      de: 02 00        	<unknown>
      e0: b9 00        	<unknown>
      e2: 00 00        	<unknown>
      e4: 44 02        	<unknown>
		...
      ee: 02 00        	<unknown>
      f0: c2 00        	<unknown>
      f2: 00 00        	<unknown>
      f4: 44 02        	<unknown>
		...
      fe: 02 00        	<unknown>
     100: ce 00        	<unknown>
     102: 00 00        	<unknown>
     104: 00 00        	<unknown>
     106: 00 00        	<unknown>
     108: 70 02        	<unknown>
     10a: 00 00        	<unknown>
     10c: 12 00        	<unknown>
     10e: 02 00        	<unknown>
     110: 81 00        	<unknown>
		...
     11a: 00 00        	<unknown>
     11c: 10 02        	<unknown>
     11e: 00 00        	<unknown>
     120: 27 00 00 00  	<unknown>
		...
     12c: 10 02        	<unknown>
     12e: 00 00        	<unknown>
     130: 54 00        	<unknown>
		...
     13a: 00 00        	<unknown>
     13c: 10 02        	<unknown>
     13e: 00 00        	<unknown>

/workspaces/snax_cluster/target/snitch_cluster/sw/math/build/libmath.a(log2_data.o):	file format elf32-littleriscv

Disassembly of section .strtab:

00000000 <.strtab>:
       0: 00 2e        	<unknown>
       2: 74 65        	<unknown>
       4: 78 74        	<unknown>
       6: 00 2e        	<unknown>
       8: 63 6f 6d 6d  	bltu	s10, s6, 0x6e6 <.strtab+0x6e6>
       c: 65 6e        	<unknown>
       e: 74 00        	<unknown>
      10: 2e 72        	<unknown>
      12: 69 73        	<unknown>
      14: 63 76 2e 61  	bgeu	t3, s2, 0x620 <.strtab+0x620>
      18: 74 74        	<unknown>
      1a: 72 69        	<unknown>
      1c: 62 75        	<unknown>
      1e: 74 65        	<unknown>
      20: 73 00 2e 6e  	<unknown>
      24: 6f 74 65 2e  	jal	s0, 0x5730a <.strtab+0x5730a>
      28: 47 4e 55 2d  	fmsub.h	ft8, fa0, fs5, ft5, rmm
      2c: 73 74 61 63  	csrrci	s0, 1590, 2
      30: 6b 00 2e 6c  	<unknown>
      34: 6c 76        	<unknown>
      36: 6d 5f        	<unknown>
      38: 61 64        	<unknown>
      3a: 64 72        	<unknown>
      3c: 73 69 67 00  	csrrsi	s2, 6, 14
      40: 6c 6f        	<unknown>
      42: 67 32 5f 64  	<unknown>
      46: 61 74        	<unknown>
      48: 61 2e        	<unknown>
      4a: 63 00 2e 73  	beq	t3, s2, 0x76a <.strtab+0x76a>
      4e: 74 72        	<unknown>
      50: 74 61        	<unknown>
      52: 62 00        	<unknown>
      54: 2e 73        	<unknown>
      56: 79 6d        	<unknown>
      58: 74 61        	<unknown>
      5a: 62 00        	<unknown>
      5c: 2e 72        	<unknown>
      5e: 6f 64 61 74  	jal	s0, 0x167a4 <.strtab+0x167a4>
      62: 61 00        	<unknown>
      64: 5f 5f 6c 6f  	<unknown>
      68: 67 32 5f 64  	<unknown>
      6c: 61 74        	<unknown>
      6e: 61 00        	<unknown>

Disassembly of section .rodata:

00000000 <__log2_data>:
       0: 00 00        	<unknown>
       2: 20 65        	<unknown>
       4: 47 15 f7 3f  	<unknown>
       8: 00 a2        	<unknown>
       a: ef 2e fc 05  	jal	t4, 0xc2868 <__log2_data+0xc2868>
       e: e7 3d 39 83  	<unknown>
      12: 2b 65 47 15  	<unknown>
      16: e7 bf be 04  	<unknown>
      1a: 3a dc        	<unknown>
      1c: 09 c7        	<unknown>
      1e: de 3f        	<unknown>
      20: fb 2f 70 64  	<unknown>
      24: 47 15 d7 bf  	<unknown>
      28: 48 4c        	<unknown>
      2a: 03 50 6c 77  	lhu	zero, 1910(s8)
      2e: d2 3f        	<unknown>
      30: bc 92        	<unknown>
      32: ea 28        	<unknown>
      34: b3 c7 ce bf  	<unknown>
      38: 2e f9        	<unknown>
      3a: 17 e1 25 62  	auipc	sp, 402014
      3e: ca 3f        	<unknown>
      40: fe 82        	<unknown>
      42: 2b 65 47 15  	<unknown>
      46: e7 bf f7 03  	<unknown>
      4a: 3a dc        	<unknown>
      4c: 09 c7        	<unknown>
      4e: de 3f        	<unknown>
      50: 3f 7c 2b 65  	<unknown>
      54: 47 15 d7 bf  	<unknown>
      58: e4 5b        	<unknown>
      5a: f0 50        	<unknown>
      5c: 6c 77        	<unknown>
      5e: d2 3f        	<unknown>
      60: e5 8f        	<unknown>
      62: 76 dd        	<unknown>
      64: 09 c7        	<unknown>
      66: ce bf        	<unknown>
      68: 36 e7        	<unknown>
      6a: c4 1e        	<unknown>
      6c: 76 61        	<unknown>
      6e: ca 3f        	<unknown>
      70: 9b a7 64 bc  	<unknown>
      74: 3f 15 c7 bf  	<unknown>
      78: 4a 1b        	<unknown>
      7a: f0 54        	<unknown>
      7c: d1 84        	<unknown>
      7e: c4 3f        	<unknown>
      80: 3c 38        	<unknown>
      82: 2c a7        	<unknown>
      84: e4 89        	<unknown>
      86: c2 bf        	<unknown>
      88: 66 ee        	<unknown>
      8a: 5a 28        	<unknown>
      8c: 2f b3 c0 3f  	<unknown>
      90: f8 ac        	<unknown>
      92: b1 6b        	<unknown>
      94: 28 24        	<unknown>
      96: f7 3f 00 b0  	<unknown>
      9a: cd ee        	<unknown>
      9c: 5f 09 e1 bf  	<unknown>
      a0: a1 cc        	<unknown>
      a2: d2 66        	<unknown>
      a4: f7 e1 f6 3f  	<unknown>
      a8: 00 d0        	<unknown>
      aa: 76 bd        	<unknown>
      ac: 94 84        	<unknown>
      ae: e0 bf        	<unknown>
      b0: 8a d4        	<unknown>
      b2: 30 0e        	<unknown>
      b4: 3d a1        	<unknown>
      b6: f6 3f        	<unknown>
      b8: 00 f8        	<unknown>
      ba: e8 ae        	<unknown>
      bc: 43 01 e0 bf  	<unknown>
      c0: 85 6c        	<unknown>
      c2: d0 32        	<unknown>
      c4: ec 61        	<unknown>
      c6: f6 3f        	<unknown>
      c8: 00 40        	<unknown>
      ca: 0b 36 c5 fe  	<unknown>
      ce: de bf        	<unknown>
      d0: f8 98        	<unknown>
      d2: 11 95        	<unknown>
      d4: fa 23        	<unknown>
      d6: f6 3f        	<unknown>
      d8: 00 e0        	<unknown>
      da: b7 1a d9 fd  	lui	s5, 1039761
      de: dd bf        	<unknown>
      e0: 6c 02        	<unknown>
      e2: cf a4 5b e7  	<unknown>
      e6: f5 3f        	<unknown>
      e8: 00 90        	<unknown>
      ea: c7 0c ae ff  	<unknown>
      ee: dc bf        	<unknown>
      f0: b8 4f        	<unknown>
      f2: 21 5a        	<unknown>
      f4: 05 ac        	<unknown>
      f6: f5 3f        	<unknown>
      f8: 00 a0        	<unknown>
      fa: fd 11        	<unknown>
      fc: 38 04        	<unknown>
      fe: dc bf        	<unknown>
     100: 1e 6e        	<unknown>
     102: 16 0f        	<unknown>
     104: ed 71        	<unknown>
     106: f5 3f        	<unknown>
     108: 00 e0        	<unknown>
     10a: 3a 32        	<unknown>
     10c: 67 0b db bf  	jalr	s6, -1027(s6)
     110: 35 f8        	<unknown>
     112: 0b 59 09 39  	<unknown>
     116: f5 3f        	<unknown>
     118: 00 b0        	<unknown>
     11a: 2d 5a        	<unknown>
     11c: 2f 15 da bf  	<unknown>
     120: dd ad        	<unknown>
     122: 61 ed        	<unknown>
     124: 4f 01 f5 3f  	<unknown>
     128: 00 60        	<unknown>
     12a: f8 5a        	<unknown>
     12c: 7f 21 d9 bf  	<unknown>
     130: d0 7b        	<unknown>
     132: 48 8e        	<unknown>
     134: b8 ca        	<unknown>
     136: f4 3f        	<unknown>
     138: 00 90        	<unknown>
     13a: 71 b0        	<unknown>
     13c: 4d 30        	<unknown>
     13e: d8 bf        	<unknown>
     140: ee 4f        	<unknown>
     142: 33 b4 39 95  	<unknown>
     146: f4 3f        	<unknown>
     148: 00 e0        	<unknown>
     14a: a9 f9        	<unknown>
     14c: 89 41        	<unknown>
     14e: d7 bf 69 d5  	<unknown>
     152: af df cb 60  	<unknown>
     156: f4 3f        	<unknown>
     158: 00 90        	<unknown>
     15a: 19 b5        	<unknown>
     15c: 2b 55 d6 bf  	<unknown>
     160: 53 b9 e4 4e  	<unknown>
     164: 66 2d        	<unknown>
     166: f4 3f        	<unknown>
     168: 00 10        	<unknown>
     16a: 9b a2 23 6b  	<unknown>
     16e: d5 bf        	<unknown>
     170: a6 d8        	<unknown>
     172: 1d 11        	<unknown>
     174: 01 fb        	<unknown>
     176: f3 3f 00 a0  	csrrc	t6, 2560, zero
     17a: 5f 0f 65 83  	<unknown>
     17e: d4 bf        	<unknown>
     180: 36 58        	<unknown>
     182: 0c b7        	<unknown>
     184: 95 c9        	<unknown>
     186: f3 3f 00 a0  	csrrc	t6, 2560, zero
     18a: f6 37        	<unknown>
     18c: e9 9d        	<unknown>
     18e: d3 bf 4a fd  	<unknown>
     192: b6 4a        	<unknown>
     194: 1c 99        	<unknown>
     196: f3 3f 00 60  	csrrc	t6, hstatus, zero
     19a: 8d 53        	<unknown>
     19c: a1 ba        	<unknown>
     19e: d2 bf        	<unknown>
     1a0: b5 99        	<unknown>
     1a2: e0 0c        	<unknown>
     1a4: 8e 69        	<unknown>
     1a6: f3 3f 00 40  	csrrc	t6, 1024, zero
     1aa: ca 40        	<unknown>
     1ac: 83 d9 d1 bf  	lhu	s3, -1027(gp)
     1b0: b2 e7        	<unknown>
     1b2: 13 82 e4 3a  	addi	tp, s1, 942
     1b6: f3 3f 00 e0  	csrrc	t6, 3584, zero
     1ba: 40 3a        	<unknown>
     1bc: 85 fa        	<unknown>
     1be: d0 bf        	<unknown>
     1c0: b1 bd        	<unknown>
     1c2: 85 19        	<unknown>
     1c4: 19 0d        	<unknown>
     1c6: f3 3f 00 30  	csrrc	t6, mstatus, zero
     1ca: e7 32 9c 1d  	<unknown>
     1ce: d0 bf        	<unknown>
     1d0: d7 71 b2 ca  	<unknown>
     1d4: 25 e0        	<unknown>
     1d6: f2 3f        	<unknown>
     1d8: 00 60        	<unknown>
     1da: fa a2        	<unknown>
     1dc: 7d 85        	<unknown>
     1de: ce bf        	<unknown>
     1e0: 82 cd        	<unknown>
     1e2: 13 cf 04 b4  	xori	t5, s1, -1216
     1e6: f2 3f        	<unknown>
     1e8: 00 80        	<unknown>
     1ea: 3d 63        	<unknown>
     1ec: c8 d3        	<unknown>
     1ee: cc bf        	<unknown>
     1f0: 50 cb        	<unknown>
     1f2: 7c 2c        	<unknown>
     1f4: b0 88        	<unknown>
     1f6: f2 3f        	<unknown>
     1f8: 00 a0        	<unknown>
     1fa: 14 4c        	<unknown>
     1fc: 03 26 cb bf  	lw	a2, -1028(s6)
     200: e5 4d        	<unknown>
     202: 94 63        	<unknown>
     204: 22 5e        	<unknown>
     206: f2 3f        	<unknown>
     208: 00 e0        	<unknown>
     20a: 4f 2f 1c 7c  	fnmadd.h	ft10, fs8, ft1, fa5, rdn
     20e: c9 bf        	<unknown>
     210: b1 15        	<unknown>
     212: 86 3d        	<unknown>
     214: 56 34        	<unknown>
     216: f2 3f        	<unknown>
     218: 00 00        	<unknown>
     21a: 80 3f        	<unknown>
     21c: 02 d6        	<unknown>
     21e: c7 bf 38 af  	<unknown>
     222: 3e e3        	<unknown>
     224: 46 0b        	<unknown>
     226: f2 3f        	<unknown>
     228: 00 e0        	<unknown>
     22a: 05 1a        	<unknown>
     22c: a7 33 c6 bf  	fsd	ft8, -1049(a2)
     230: dd a3        	<unknown>
     232: cd fd        	<unknown>
     234: ee e2        	<unknown>
     236: f1 3f        	<unknown>
     238: 00 00        	<unknown>
     23a: 57 e9 f5 94  	<unknown>
     23e: c4 bf        	<unknown>
     240: 30 39        	<unknown>
     242: 0b 58 4a bb  	<unknown>
     246: f1 3f        	<unknown>
     248: 00 a0        	<unknown>
     24a: e0 24        	<unknown>
     24c: e4 f9        	<unknown>
     24e: c2 bf        	<unknown>
     250: 00 22        	<unknown>
     252: 7f 84 53 94  	<unknown>
     256: f1 3f        	<unknown>
     258: 00 c0        	<unknown>
     25a: fd 5a        	<unknown>
     25c: 59 62        	<unknown>
     25e: c1 bf        	<unknown>
     260: 3c d7        	<unknown>
     262: d5 c0        	<unknown>
     264: 06 6e        	<unknown>
     266: f1 3f        	<unknown>
     268: 00 80        	<unknown>
     26a: bd 75        	<unknown>
     26c: 9a 9c        	<unknown>
     26e: bf bf c2 e4  	<unknown>
     272: b7 47 5f 48  	lui	a5, 296436
     276: f1 3f        	<unknown>
     278: 00 c0        	<unknown>
     27a: f9 5b        	<unknown>
     27c: 57 7b bc bf  	<unknown>
     280: d1 85        	<unknown>
     282: 00 ad        	<unknown>
     284: 58 23        	<unknown>
     286: f1 3f        	<unknown>
     288: 00 80        	<unknown>
     28a: f4 0f        	<unknown>
     28c: c6 60        	<unknown>
     28e: b9 bf        	<unknown>
     290: 27 22 53 0f  	fsw	fs5, 228(t1)
     294: f0 fe        	<unknown>
     296: f0 3f        	<unknown>
     298: 00 00        	<unknown>
     29a: b6 47        	<unknown>
     29c: e2 4c        	<unknown>
     29e: b6 bf        	<unknown>
     2a0: 8f 3a d0 77  	<unknown>
     2a4: 20 db        	<unknown>
     2a6: f0 3f        	<unknown>
     2a8: 00 40        	<unknown>
     2aa: 01 b2        	<unknown>
     2ac: 78 3f        	<unknown>
     2ae: b3 bf d9 80  	<unknown>
     2b2: 59 d6        	<unknown>
     2b4: e6 b7        	<unknown>
     2b6: f0 3f        	<unknown>
     2b8: 00 c0        	<unknown>
     2ba: 42 1a        	<unknown>
     2bc: 7d 38        	<unknown>
     2be: b0 bf        	<unknown>
     2c0: 8d 40        	<unknown>
     2c2: 7b fe 3e 95  	<unknown>
     2c6: f0 3f        	<unknown>
     2c8: 00 00        	<unknown>
     2ca: b5 08        	<unknown>
     2cc: 92 6f        	<unknown>
     2ce: aa bf        	<unknown>
     2d0: 83 3b c5 ca  	<unknown>
     2d4: 25 73        	<unknown>
     2d6: f0 3f        	<unknown>
     2d8: 00 00        	<unknown>
     2da: 77 4f 95 7a  	<unknown>
     2de: a4 bf        	<unknown>
     2e0: 5c 1b        	<unknown>
     2e2: 0d e4        	<unknown>
     2e4: 97 51 f0 3f  	auipc	gp, 261893
     2e8: 00 00        	<unknown>
     2ea: 0c c5        	<unknown>
     2ec: a8 23        	<unknown>
     2ee: 9d bf        	<unknown>
     2f0: a2 8e        	<unknown>
     2f2: 20 c1        	<unknown>
     2f4: 91 30        	<unknown>
     2f6: f0 3f        	<unknown>
     2f8: 00 00        	<unknown>
     2fa: 78 29        	<unknown>
     2fc: 26 6a        	<unknown>
     2fe: 91 bf        	<unknown>
     300: 21 7e        	<unknown>
     302: b3 25 10 10  	<unknown>
     306: f0 3f        	<unknown>
     308: 00 00        	<unknown>
     30a: e8 d8        	<unknown>
     30c: f8 20        	<unknown>
     30e: 77 bf 6b a7  	<unknown>
     312: ca f9        	<unknown>
     314: 7e c0        	<unknown>
     316: ef 3f 00 00  	jal	t6, 0x3316 <__log2_data+0x3316>
     31a: 50 b1        	<unknown>
     31c: 53 fe 86 3f  	<unknown>
     320: 84 f1        	<unknown>
     322: f6 d3        	<unknown>
     324: 65 44        	<unknown>
     326: ef 3f 00 80  	jal	t6, 0xfff03326 <__log2_data+0xfffffffffff03326>
     32a: 0f e1 cc 1c  	<unknown>
     32e: a1 3f        	<unknown>
     330: 7f 10 84 9f  	<unknown>
     334: 07 cc ee 3f  	<unknown>
     338: 00 80        	<unknown>
     33a: 8b 8c fc 4d  	<unknown>
     33e: ac 3f        	<unknown>
     340: e8 5a        	<unknown>
     342: 97 99 3a 57  	auipc	s3, 357289
     346: ee 3f        	<unknown>
     348: 00 40        	<unknown>
     34a: 57 1e 32 aa  	<unknown>
     34e: b3 3f e6 3d  	<unknown>
     352: bd f0        	<unknown>
     354: d6 e5        	<unknown>
     356: ed 3f        	<unknown>
     358: 00 80        	<unknown>
     35a: 8b d0 a0 18  	<unknown>
     35e: b9 3f        	<unknown>
     360: b3 38 ff 81  	<unknown>
     364: b6 77        	<unknown>
     366: ed 3f        	<unknown>
     368: 00 40        	<unknown>
     36a: 04 da        	<unknown>
     36c: e9 72        	<unknown>
     36e: be 3f        	<unknown>
     370: 43 e9 4d 72  	<unknown>
     374: b5 0c        	<unknown>
     376: ed 3f        	<unknown>
     378: 00 60        	<unknown>
     37a: 7f 50 d2 dc  	<unknown>
     37e: c1 3f        	<unknown>
     380: 63 75 0e dc  	bgeu	t3, zero, 0xfffff94a <__log2_data+0xfffffffffffff94a>
     384: b2 a4        	<unknown>
     386: ec 3f        	<unknown>
     388: 00 a0        	<unknown>
     38a: de 03        	<unknown>
     38c: ab 76 c4 3f  	<unknown>
     390: 51 cb        	<unknown>
     392: d6 e8        	<unknown>
     394: 8e 3f        	<unknown>
     396: ec 3f        	<unknown>
     398: 00 20        	<unknown>
     39a: e2 77        	<unknown>
     39c: 43 07 c7 3f  	<unknown>
     3a0: 4c 0c        	<unknown>
     3a2: 02 4f        	<unknown>
     3a4: 2b dd eb 3f  	<unknown>
     3a8: 00 40        	<unknown>
     3aa: a9 8b        	<unknown>
     3ac: de 8e        	<unknown>
     3ae: c9 3f        	<unknown>
     3b0: ca 15        	<unknown>
     3b2: 60 00        	<unknown>
     3b4: 6c 7d        	<unknown>
     3b6: eb 3f 00 e0  	<unknown>
     3ba: d2 6a        	<unknown>
     3bc: b8 0d        	<unknown>
     3be: cc 3f        	<unknown>
     3c0: 8f 33 2e 6e  	<unknown>
     3c4: 36 20        	<unknown>
     3c6: eb 3f 00 e0  	<unknown>
     3ca: ce af        	<unknown>
     3cc: 0a 84        	<unknown>
     3ce: ce 3f        	<unknown>
     3d0: 39 50        	<unknown>
     3d2: 29 26        	<unknown>
     3d4: 70 c5        	<unknown>
     3d6: ea 3f        	<unknown>
     3d8: 00 80        	<unknown>
     3da: 67 b4 0a 79  	<unknown>
     3de: d0 3f        	<unknown>
     3e0: dd 31        	<unknown>
     3e2: 27 bc 01 6d  	fsd	fa6, 1752(gp)
     3e6: ea 3f        	<unknown>
     3e8: 00 c0        	<unknown>
     3ea: 01 68        	<unknown>
     3ec: 05 ac        	<unknown>
     3ee: d1 3f        	<unknown>
     3f0: 8b f1 3f bc  	<unknown>
     3f4: d3 16 ea 3f  	<unknown>
     3f8: 00 e0        	<unknown>
     3fa: fe d4        	<unknown>
     3fc: 11 db        	<unknown>
     3fe: d2 3f        	<unknown>
     400: ad fe        	<unknown>
     402: 67 49 d1 c2  	<unknown>
     406: e9 3f        	<unknown>
     408: 00 80        	<unknown>
     40a: c5 4e        	<unknown>
     40c: 46 06        	<unknown>
     40e: d4 3f        	<unknown>
     410: 02 99        	<unknown>
     412: 7c f4        	<unknown>
     414: e4 70        	<unknown>
     416: e9 3f        	<unknown>
     418: 00 f0        	<unknown>
     41a: 3a 09        	<unknown>
     41c: be 2d        	<unknown>
     41e: d5 3f        	<unknown>
     420: f2 bc        	<unknown>
     422: 82 39        	<unknown>
     424: fb 20 e9 3f  	<unknown>
     428: 00 d0        	<unknown>
     42a: 50 20        	<unknown>
     42c: 90 51        	<unknown>
     42e: d6 3f        	<unknown>
     430: f1 59        	<unknown>
     432: f7 87 01 d3  	<unknown>
     436: e8 3f        	<unknown>
     438: 00 f0        	<unknown>
     43a: ea cd        	<unknown>
     43c: d2 71        	<unknown>
     43e: d7 3f 6d f6  	<unknown>
     442: b9 eb        	<unknown>
     444: e5 86        	<unknown>
     446: e8 3f        	<unknown>
     448: 00 90        	<unknown>
     44a: 7d 85        	<unknown>
     44c: 9c 8e        	<unknown>
     44e: d8 3f        	<unknown>
     450: 94 b9        	<unknown>
     452: 58 b6        	<unknown>
     454: 97 3c e8 3f  	auipc	s9, 261763
     458: 00 60        	<unknown>
     45a: e1 55        	<unknown>
     45c: 01 a8        	<unknown>
     45e: d9 3f        	<unknown>
     460: 22 10        	<unknown>
     462: c6 ff        	<unknown>
     464: 05 f4        	<unknown>
     466: e7 3f 00 d0  	<unknown>
     46a: d3 6e 18 be  	<unknown>
     46e: da 3f        	<unknown>
     470: ca 15        	<unknown>
     472: 14 18        	<unknown>
     474: 22 ad        	<unknown>
     476: e7 3f 00 e0  	<unknown>
     47a: a0 ae        	<unknown>
     47c: f2 d0        	<unknown>
     47e: db 3f 8c ff  	<unknown>
     482: 9e f9        	<unknown>
     484: dc 67        	<unknown>
     486: e7 3f 00 40  	<unknown>
     48a: bf 3d a4 e0  	<unknown>
     48e: dc 3f        	<unknown>
     490: 8e 0a        	<unknown>
     492: b9 12        	<unknown>
     494: 00 20        	<unknown>
     496: e6 3f        	<unknown>
     498: 05 b6        	<unknown>
     49a: 44 06        	<unknown>
     49c: ab 04 89 3c  	<unknown>
     4a0: a6 34        	<unknown>
     4a2: 57 04 00 60  	<unknown>
     4a6: e6 3f        	<unknown>
     4a8: a9 f7        	<unknown>
     4aa: 62 ea        	<unknown>
     4ac: 9b ff 61 3c  	<unknown>
     4b0: c5 f2        	<unknown>
     4b2: 25 c3        	<unknown>
     4b4: ff 9f e6 3f  	<unknown>
     4b8: ba 90        	<unknown>
     4ba: 3c cb        	<unknown>
     4bc: cf 7e 82 3c  	fnmadd.h	ft9, ft4, fs0, ft7
     4c0: 04 5a        	<unknown>
     4c2: b9 38        	<unknown>
     4c4: 00 e0        	<unknown>
     4c6: e6 3f        	<unknown>
     4c8: 26 93        	<unknown>
     4ca: 73 56 88 ff  	csrrwi	a2, 4088, 16
     4ce: 88 3c        	<unknown>
     4d0: e3 94 99 e0  	bne	s3, s1, 0x2d8 <__log2_data+0x2d8>
     4d4: ff 1f e7 3f  	<unknown>
     4d8: b1 82        	<unknown>
     4da: 5f 27 40 fd  	<unknown>
     4de: 8a 3c        	<unknown>
     4e0: 10 0e        	<unknown>
     4e2: 59 15        	<unknown>
     4e4: 00 60        	<unknown>
     4e6: e7 3f 41 83  	<unknown>
     4ea: 23 b4 75 fd  	<unknown>
     4ee: 72 bc        	<unknown>
     4f0: d5 5b        	<unknown>
     4f2: 65 12        	<unknown>
     4f4: 00 a0        	<unknown>
     4f6: e7 3f 76 2b  	<unknown>
     4fa: 24 7c        	<unknown>
     4fc: e6 08        	<unknown>
     4fe: 78 3c        	<unknown>
     500: a6 e9        	<unknown>
     502: 59 32        	<unknown>
     504: 00 e0        	<unknown>
     506: e7 3f b7 22  	<unknown>
     50a: f6 26        	<unknown>
     50c: e4 08        	<unknown>
     50e: 62 bc        	<unknown>
     510: d2 b2        	<unknown>
     512: b4 ed        	<unknown>
     514: ff 1f e8 3f  	<unknown>
     518: 2f c9 a5 1e  	<unknown>
     51c: 46 02        	<unknown>
     51e: 84 bc        	<unknown>
     520: c3 fc fa 2d  	fmadd.h	fs9, fs5, ft11, ft5
     524: 00 60        	<unknown>
     526: e8 3f        	<unknown>
     528: 1f 9a f2 a2  	<unknown>
     52c: f4 f7        	<unknown>
     52e: 6d 3c        	<unknown>
     530: 50 6b        	<unknown>
     532: 8c f7        	<unknown>
     534: ff 9f e8 3f  	<unknown>
     538: fd 95        	<unknown>
     53a: 49 09        	<unknown>
     53c: 53 04 8e bc  	<unknown>
     540: 66 15        	<unknown>
     542: 67 39 00 e0  	<unknown>
     546: e8 3f        	<unknown>
     548: 45 7b        	<unknown>
     54a: c7 be f3 04  	fmsub.h	ft9, ft7, fa5, ft0, rup
     54e: 8a bc        	<unknown>
     550: 45 17        	<unknown>
     552: bf e2 ff 1f  	<unknown>
     556: e9 3f        	<unknown>
     558: 3c 20        	<unknown>
     55a: 0e 40        	<unknown>
     55c: 34 fa        	<unknown>
     55e: 77 bc d1 9f  	<unknown>
     562: 5c cc        	<unknown>
     564: ff 5f e9 3f  	<unknown>
     568: 5d 69        	<unknown>
     56a: a0 05        	<unknown>
     56c: 80 ff        	<unknown>
     56e: 76 bc        	<unknown>
     570: 67 47 ba 3b  	<unknown>
     574: 00 a0        	<unknown>
     576: e9 3f        	<unknown>
     578: 03 7e ec c4  	<unknown>
     57c: c4 f8        	<unknown>
     57e: 70 3c        	<unknown>
     580: a5 2d        	<unknown>
     582: b9 e7        	<unknown>
     584: ff df e9 3f  	<unknown>
     588: 02 46        	<unknown>
     58a: 8c 47        	<unknown>
     58c: d9 7f        	<unknown>
     58e: 8e 3c        	<unknown>
     590: af fd 2e d7  	<unknown>
     594: ff 1f ea 3f  	<unknown>
     598: 7e ae        	<unknown>
     59a: cd 4d        	<unknown>
     59c: 55 0c        	<unknown>
     59e: 6a bc        	<unknown>
     5a0: 95 ff        	<unknown>
     5a2: 04 de        	<unknown>
     5a4: ff 5f ea 3f  	<unknown>
     5a8: 6b b2 e9 8c  	<unknown>
     5ac: a9 7d        	<unknown>
     5ae: 86 3c        	<unknown>
     5b0: 2b 8d 5e ca  	<unknown>
     5b4: ff 9f ea 3f  	<unknown>
     5b8: de 13        	<unknown>
     5ba: 4c b5        	<unknown>
     5bc: c9 84        	<unknown>
     5be: 82 bc        	<unknown>
     5c0: ea 03        	<unknown>
     5c2: ad dd        	<unknown>
     5c4: ff df ea 3f  	<unknown>
     5c8: 3c 2e        	<unknown>
     5ca: 60 ea        	<unknown>
     5cc: c8 12        	<unknown>
     5ce: 58 3c        	<unknown>
     5d0: 4d 3d        	<unknown>
     5d2: 0d f1        	<unknown>
     5d4: ff 1f eb 3f  	<unknown>
     5d8: 9c 78        	<unknown>
     5da: 27 ad dd fa  	fsw	fa3, -70(s11)
     5de: 8e bc        	<unknown>
     5e0: 5a 16        	<unknown>
     5e2: 21 ce        	<unknown>
     5e4: ff 5f eb 3f  	<unknown>
     5e8: 37 12 c6 19  	lui	tp, 105569
     5ec: 17 cb 53 3c  	auipc	s6, 247100
     5f0: 74 e6        	<unknown>
     5f2: 50 d9        	<unknown>
     5f4: ff 9f eb 3f  	<unknown>
     5f8: 00 ce        	<unknown>
     5fa: 94 41        	<unknown>
     5fc: d9 f7        	<unknown>
     5fe: 73 3c af a8  	csrrc	s8, 2698, t5
     602: 9c 13        	<unknown>
     604: 00 e0        	<unknown>
     606: eb 3f c0 9b  	<unknown>
     60a: 5d 21        	<unknown>
     60c: c4 0a        	<unknown>
     60e: 75 3c        	<unknown>
     610: 99 df        	<unknown>
     612: 46 5b        	<unknown>
     614: 00 20        	<unknown>
     616: ec 3f        	<unknown>
     618: c9 c1        	<unknown>
     61a: e9 53        	<unknown>
     61c: a6 ee        	<unknown>
     61e: 6b 3c ae f7  	<unknown>
     622: b9 40        	<unknown>
     624: 00 60        	<unknown>
     626: ec 3f        	<unknown>
     628: d6 70        	<unknown>
     62a: 4a 27        	<unknown>
     62c: 9f 07 7c bc  	<unknown>
     630: 8a fd        	<unknown>
     632: 55 62        	<unknown>
     634: 00 a0        	<unknown>
     636: ec 3f        	<unknown>
     638: 1f 4c e8 76  	<unknown>
     63c: 40 0b        	<unknown>
     63e: 7a bc        	<unknown>
     640: 5d 09        	<unknown>
     642: 4c d9        	<unknown>
     644: ff df ec 3f  	<unknown>
     648: d7 b5 9a f9  	<unknown>
     64c: 33 f9 88 3c  	<unknown>
     650: cf d6 75 f9  	<unknown>
     654: ff 1f ed 3f  	<unknown>
     658: be e1        	<unknown>
     65a: 5f 66 08 2c  	<unknown>
     65e: 58 bc        	<unknown>
     660: 93 1c 56 a2  	<unknown>
     664: ff 5f ed 3f  	<unknown>
     668: f3 95 d2 9b  	csrrw	a1, 2493, t0
     66c: 28 04        	<unknown>
     66e: 7b bc 0c 8b  	<unknown>
     672: 22 9d        	<unknown>
     674: ff 9f ed 3f  	<unknown>
     678: 36 a2        	<unknown>
     67a: 0f 34 51 02  	<unknown>
     67e: 87 3c 16 7e  	fld	fs9, 2017(a2)
     682: bc 65        	<unknown>
     684: 00 e0        	<unknown>
     686: ed 3f        	<unknown>
     688: 0c d8        	<unknown>
     68a: a4 16        	<unknown>
     68c: 1e 01        	<unknown>
     68e: 75 bc        	<unknown>
     690: 91 47        	<unknown>
     692: f6 02        	<unknown>
     694: 00 20        	<unknown>
     696: ee 3f        	<unknown>
     698: e0 62        	<unknown>
     69a: ef 09 2f 80  	jal	s3, 0xffff069c <__log2_data+0xffffffffffff069c>
     69e: 89 3c        	<unknown>
     6a0: d8 a6        	<unknown>
     6a2: d7 57 00 60  	<unknown>
     6a6: ee 3f        	<unknown>
     6a8: fa f7        	<unknown>
     6aa: 0c 58        	<unknown>
     6ac: 75 0b        	<unknown>
     6ae: 7e bc        	<unknown>
     6b0: 0c c0        	<unknown>
     6b2: ed 27        	<unknown>
     6b4: 00 a0        	<unknown>
     6b6: ee 3f        	<unknown>
     6b8: 11 98        	<unknown>
     6ba: 45 09        	<unknown>
     6bc: 83 84 8c bc  	lb	s1, -1080(s9)
     6c0: 7c cb        	<unknown>
     6c2: f5 6c        	<unknown>
     6c4: 00 e0        	<unknown>
     6c6: ee 3f        	<unknown>
     6c8: f4 76        	<unknown>
     6ca: 15 95        	<unknown>
     6cc: 27 80 8f bc  	<unknown>
     6d0: cc 7d        	<unknown>
     6d2: 2b 78 00 20  	<unknown>
     6d6: ef 3f 8f 53  	jal	t6, 0xf3c0e <__log2_data+0xf3c0e>
     6da: 74 72        	<unknown>
     6dc: d9 81        	<unknown>
     6de: 8f bc 0a 45  	<unknown>
     6e2: 0c 26        	<unknown>
     6e4: 00 60        	<unknown>
     6e6: ef 3f dc ff  	jal	t6, 0xfffc46e2 <__log2_data+0xfffffffffffc46e2>
     6ea: 27 27 00 71  	fsw	fa6, 1806(zero)
     6ee: 40 bc        	<unknown>
     6f0: 33 d5 8c e8  	<unknown>
     6f4: ff 9f ef 3f  	<unknown>
     6f8: b0 a8        	<unknown>
     6fa: fd e1        	<unknown>
     6fc: dc 1b        	<unknown>
     6fe: 58 bc        	<unknown>
     700: 89 86        	<unknown>
     702: 0f d5 ff df  	<unknown>
     706: ef 3f 6e 8e  	jal	t6, 0xfffe37ec <__log2_data+0xfffffffffffe37ec>
     70a: 91 cb        	<unknown>
     70c: 1a f9        	<unknown>
     70e: 87 3c 67 23  	fld	fs9, 566(a4)
     712: 29 04        	<unknown>
     714: 00 20        	<unknown>
     716: f0 3f        	<unknown>
     718: 81 46        	<unknown>
     71a: 32 65        	<unknown>
     71c: f3 7f 9b 3c  	csrrci	t6, pmpaddr25, 22
     720: 68 d6        	<unknown>
     722: e3 e3 ff 5f  	bltu	t6, t6, 0x1508 <__log2_data+0x1508>
     726: f0 3f        	<unknown>
     728: 7b 95 ae dd  	<unknown>
     72c: 08 fa        	<unknown>
     72e: 86 3c        	<unknown>
     730: 57 a7 85 0a  	<unknown>
     734: 00 a0        	<unknown>
     736: f0 3f        	<unknown>
     738: 91 fb        	<unknown>
     73a: d3 80 de e2  	<unknown>
     73e: 57 bc cc 3f  	<unknown>
     742: 5f 1a 00 e0  	<unknown>
     746: f0 3f        	<unknown>
     748: 14 f0        	<unknown>
     74a: c5 05        	<unknown>
     74c: 33 82 91 bc  	<unknown>
     750: f5 ba        	<unknown>
     752: af f8 ff 1f  	<unknown>
     756: f1 3f        	<unknown>
     758: c2 ba        	<unknown>
     75a: 80 66        	<unknown>
     75c: bb fa 8b bc  	<unknown>
     760: ad 91        	<unknown>
     762: 4d e5        	<unknown>
     764: ff 5f f1 3f  	<unknown>
     768: ef e7 37 17  	jal	a5, 0x7f0da <__log2_data+0x7f0da>
     76c: 12 7f        	<unknown>
     76e: 9d bc        	<unknown>
     770: e1 36        	<unknown>
     772: ac 11        	<unknown>
     774: 00 a0        	<unknown>
     776: f1 3f        	<unknown>
     778: ff f5 16 05  	<unknown>
     77c: 0a 00        	<unknown>
     77e: 9c 3c        	<unknown>
     780: 48 42        	<unknown>
     782: c8 19        	<unknown>
     784: 00 e0        	<unknown>
     786: f1 3f        	<unknown>
     788: a0 5d        	<unknown>
     78a: da e4        	<unknown>
     78c: fb 82 90 bc  	<unknown>
     790: 6e 5e        	<unknown>
     792: fe 0f        	<unknown>
     794: 00 20        	<unknown>
     796: f2 3f        	<unknown>
     798: 43 fb 9c 4c  	fmadd.h	fs6, fs9, fs1, fs1
     79c: d0 fd        	<unknown>
     79e: 88 bc        	<unknown>
     7a0: 91 d8        	<unknown>
     7a2: 9f 26 00 60  	<unknown>
     7a6: f2 3f        	<unknown>
     7a8: 82 d1        	<unknown>
     7aa: 94 79        	<unknown>
     7ac: 2a fe        	<unknown>
     7ae: 8c 3c        	<unknown>
     7b0: da e6        	<unknown>
     7b2: a6 29        	<unknown>
     7b4: 00 a0        	<unknown>
     7b6: f2 3f        	<unknown>
     7b8: c5 8b        	<unknown>
     7ba: 5e 71        	<unknown>
     7bc: 73 02 70 bc  	<unknown>
     7c0: 39 3e        	<unknown>
     7c2: 29 e0        	<unknown>
     7c4: ff df f2 3f  	<unknown>
     7c8: f9 a6        	<unknown>
     7ca: b2 da        	<unknown>
     7cc: 39 7c        	<unknown>
     7ce: 9b 3c 82 f0  	<unknown>
     7d2: dc f7        	<unknown>
     7d4: ff 1f f3 3f  	<unknown>
     7d8: 54 52        	<unknown>
     7da: dc 6e        	<unknown>
     7dc: 33 f1 7d 3c  	<unknown>
     7e0: 60 8b        	<unknown>
     7e2: 5a f0        	<unknown>
     7e4: ff 5f f3 3f  	<unknown>
     7e8: eb 31 cd 4c  	<unknown>
     7ec: 56 03        	<unknown>
     7ee: 9e bc        	<unknown>
     7f0: cc ae        	<unknown>
     7f2: 0e 2e        	<unknown>
     7f4: 00 a0        	<unknown>
     7f6: f3 3f 77 a4  	csrrc	t6, 2631, a4
     7fa: d3 4b e7 f0  	<unknown>
     7fe: 75 3c        	<unknown>
     800: 36 b2        	<unknown>
     802: 3b 04 00 e0  	<unknown>
     806: f3 3f 33 88  	csrrc	t6, 2179, t1
     80a: 9d 14        	<unknown>
     80c: cb 7d 9c 3c  	fnmsub.h	fs11, fs8, fs1, ft7
     810: ff 87 d1 02  	<unknown>
     814: 00 20        	<unknown>
     816: f4 3f        	<unknown>
     818: 28 3d        	<unknown>
     81a: 2d cf        	<unknown>
     81c: af 08 7e 3c  	<unknown>
     820: b1 7c        	<unknown>
     822: 38 0d        	<unknown>
     824: 00 60        	<unknown>
     826: f4 3f        	<unknown>
     828: a6 99        	<unknown>
     82a: 65 85        	<unknown>
     82c: 37 08 82 3c  	lui	a6, 247840
     830: 89 9f        	<unknown>
     832: 56 04        	<unknown>
     834: 00 a0        	<unknown>
     836: f4 3f        	<unknown>
     838: d2 bc        	<unknown>
     83a: 4f 90 5c fa  	fnmadd.d	ft0, fs9, ft5, ft11, rtz
     83e: 89 bc        	<unknown>
     840: f3 43 35 04  	<unknown>
     844: 00 e0        	<unknown>
     846: f4 3f        	<unknown>
     848: 29 53        	<unknown>
     84a: 17 ed 25 11  	auipc	s10, 70238
     84e: 78 bc        	<unknown>
     850: 0f 7f 02 cc  	<unknown>
     854: ff 1f f5 3f  	<unknown>
     858: dc 54        	<unknown>
     85a: 77 84 d8 83  	<unknown>
     85e: 98 3c        	<unknown>
     860: 6f b3 87 fd  	jal	t1, 0xfff7c038 <__log2_data+0xfffffffffff7c038>
     864: ff 5f f5 3f  	<unknown>
     868: 07 28 d0 31  	flw	fa6, 797(zero)
     86c: e7 09 87 bc  	jalr	s3, -1080(a4)
     870: ba f7        	<unknown>
     872: 1d f2        	<unknown>
     874: ff 9f f5 3f  	<unknown>
     878: 02 7b        	<unknown>
     87a: 72 68        	<unknown>
     87c: 9f f7 87 3c  	<unknown>
     880: 81 34        	<unknown>
     882: fc eb        	<unknown>
     884: ff df f5 3f  	<unknown>
     888: 3e e9        	<unknown>
     88a: 30 2e        	<unknown>
     88c: 90 80        	<unknown>
     88e: 91 bc        	<unknown>

Disassembly of section .comment:

00000000 <.comment>:
       0: 00 55        	<unknown>
       2: 62 75        	<unknown>
       4: 6e 74        	<unknown>
       6: 75 20        	<unknown>
       8: 63 6c 61 6e  	bltu	sp, t1, 0x700 <.comment+0x700>
       c: 67 20 76 65  	<unknown>
      10: 72 73        	<unknown>
      12: 69 6f        	<unknown>
      14: 6e 20        	<unknown>
      16: 31 37        	<unknown>
      18: 2e 30        	<unknown>
      1a: 2e 36        	<unknown>
      1c: 20 28        	<unknown>
      1e: 39 75        	<unknown>
      20: 62 75        	<unknown>
      22: 6e 74        	<unknown>
      24: 75 31        	<unknown>
      26: 29 00        	<unknown>

Disassembly of section .riscv.attributes:

00000000 <.riscv.attributes>:
       0: 41 3f        	<unknown>
       2: 00 00        	<unknown>
       4: 00 72        	<unknown>
       6: 69 73        	<unknown>
       8: 63 76 00 01  	bgeu	zero, a6, 0x14 <.riscv.attributes+0x14>
       c: 35 00        	<unknown>
       e: 00 00        	<unknown>
      10: 04 10        	<unknown>
      12: 05 72        	<unknown>
      14: 76 33        	<unknown>
      16: 32 69        	<unknown>
      18: 32 70        	<unknown>
      1a: 31 5f        	<unknown>
      1c: 6d 32        	<unknown>
      1e: 70 30        	<unknown>
      20: 5f 61 32 70  	<unknown>
      24: 31 5f        	<unknown>
      26: 66 32        	<unknown>
      28: 70 32        	<unknown>
      2a: 5f 64 32 70  	<unknown>
      2e: 32 5f        	<unknown>
      30: 7a 69        	<unknown>
      32: 63 73 72 32  	bgeu	tp, t2, 0x358 <.riscv.attributes+0x358>
      36: 70 30        	<unknown>
      38: 5f 7a 66 68  	<unknown>
      3c: 31 70        	<unknown>
      3e: 30 00        	<unknown>

Disassembly of section .symtab:

00000000 <.symtab>:
		...
      10: 40 00        	<unknown>
		...
      1a: 00 00        	<unknown>
      1c: 04 00        	<unknown>
      1e: f1 ff        	<unknown>
      20: 64 00        	<unknown>
      22: 00 00        	<unknown>
      24: 00 00        	<unknown>
      26: 00 00        	<unknown>
      28: 90 08        	<unknown>
      2a: 00 00        	<unknown>
      2c: 11 02        	<unknown>
      2e: 03           	<unknown>
      2f: 00           	<unknown>

/workspaces/snax_cluster/target/snitch_cluster/sw/math/build/libmath.a(log2f.o):	file format elf32-littleriscv

Disassembly of section .strtab:

00000000 <.strtab>:
       0: 00 2e        	<unknown>
       2: 72 65        	<unknown>
       4: 6c 61        	<unknown>
       6: 2e 74        	<unknown>
       8: 65 78        	<unknown>
       a: 74 00        	<unknown>
       c: 2e 63        	<unknown>
       e: 6f 6d 6d 65  	jal	s10, 0xd6664 <.strtab+0xd6664>
      12: 6e 74        	<unknown>
      14: 00 2e        	<unknown>
      16: 72 69        	<unknown>
      18: 73 63 76 2e  	csrrsi	t1, 743, 12
      1c: 61 74        	<unknown>
      1e: 74 72        	<unknown>
      20: 69 62        	<unknown>
      22: 75 74        	<unknown>
      24: 65 73        	<unknown>
      26: 00 2e        	<unknown>
      28: 6e 6f        	<unknown>
      2a: 74 65        	<unknown>
      2c: 2e 47        	<unknown>
      2e: 4e 55        	<unknown>
      30: 2d 73        	<unknown>
      32: 74 61        	<unknown>
      34: 63 6b 00 2e  	bltu	zero, zero, 0x32a <.strtab+0x32a>
      38: 6c 6c        	<unknown>
      3a: 76 6d        	<unknown>
      3c: 5f 61 64 64  	<unknown>
      40: 72 73        	<unknown>
      42: 69 67        	<unknown>
      44: 00 5f        	<unknown>
      46: 5f 6d 61 74  	<unknown>
      4a: 68 5f        	<unknown>
      4c: 64 69        	<unknown>
      4e: 76 7a        	<unknown>
      50: 65 72        	<unknown>
      52: 6f 66 00 5f  	jal	a2, 0x6642 <.strtab+0x6642>
      56: 5f 6d 61 74  	<unknown>
      5a: 68 5f        	<unknown>
      5c: 69 6e        	<unknown>
      5e: 76 61        	<unknown>
      60: 6c 69        	<unknown>
      62: 64 66        	<unknown>
      64: 00 6c        	<unknown>
      66: 6f 67 32 66  	jal	a4, 0x26ec8 <.strtab+0x26ec8>
      6a: 00 6c        	<unknown>
      6c: 6f 67 32 66  	jal	a4, 0x26ece <.strtab+0x26ece>
      70: 2e 63        	<unknown>
      72: 00 2e        	<unknown>
      74: 73 74 72 74  	csrrci	s0, mseccfg, 4
      78: 61 62        	<unknown>
      7a: 00 2e        	<unknown>
      7c: 73 79 6d 74  	csrrci	s2, 1862, 26
      80: 61 62        	<unknown>
      82: 00 2e        	<unknown>
      84: 73 64 61 74  	csrrsi	s0, 1862, 2
      88: 61 00        	<unknown>
      8a: 5f 5f 6c 6f  	<unknown>
      8e: 67 32 66 5f  	<unknown>
      92: 64 61        	<unknown>
      94: 74 61        	<unknown>
      96: 00 2e        	<unknown>
      98: 4c 42        	<unknown>
      9a: 42 30        	<unknown>
      9c: 5f 39 00 2e  	<unknown>
      a0: 4c 42        	<unknown>
      a2: 42 30        	<unknown>
      a4: 5f 35 00 2e  	<unknown>
      a8: 4c 42        	<unknown>
      aa: 42 30        	<unknown>
      ac: 5f 34 00 2e  	<unknown>
      b0: 4c 42        	<unknown>
      b2: 42 30        	<unknown>
      b4: 5f 33 00 2e  	<unknown>
      b8: 4c 42        	<unknown>
      ba: 42 30        	<unknown>
      bc: 5f 32 00 2e  	<unknown>
      c0: 4c 70        	<unknown>
      c2: 63 72 65 6c  	bgeu	a0, t1, 0x786 <.strtab+0x786>
      c6: 5f 68 69 31  	<unknown>
      ca: 00 2e        	<unknown>
      cc: 4c 70        	<unknown>
      ce: 63 72 65 6c  	bgeu	a0, t1, 0x792 <.strtab+0x792>
      d2: 5f 68 69 30  	<unknown>
      d6: 00 2e        	<unknown>
      d8: 4c 43        	<unknown>
      da: 50 49        	<unknown>
      dc: 30 5f        	<unknown>
      de: 30 00        	<unknown>
      e0: 2e 4c        	<unknown>
      e2: 42 42        	<unknown>
      e4: 30 5f        	<unknown>
      e6: 31 30        	<unknown>
      e8: 00           	<unknown>

Disassembly of section .text:

00000000 <log2f>:
       0: 53 05 05 e0  	fmv.x.w	a0, fa0
       4: 13 05 05 00  	mv	a0, a0
       8: 53 05 05 e0  	fmv.x.w	a0, fa0
       c: b7 05 80 3f  	lui	a1, 260096
      10: 63 00 b5 00  	beq	a0, a1, 0x10 <log2f+0x10>
      14: b7 05 80 80  	lui	a1, 526336
      18: b3 05 b5 00  	add	a1, a0, a1
      1c: 93 d5 85 01  	srli	a1, a1, 24
      20: 13 06 00 08  	li	a2, 128
      24: 63 70 b6 00  	bgeu	a2, a1, 0x24 <log2f+0x24>

00000028 <.LBB0_2>:
      28: b7 05 cd c0  	lui	a1, 789712
      2c: b3 05 b5 00  	add	a1, a0, a1
      30: 37 06 80 ff  	lui	a2, 1046528
      34: 33 f6 c5 00  	and	a2, a1, a2
      38: 33 05 c5 40  	sub	a0, a0, a2
      3c: 13 d6 75 41  	srai	a2, a1, 23
      40: 93 d5 f5 00  	srli	a1, a1, 15
      44: 93 f5 05 0f  	andi	a1, a1, 240

00000048 <.Lpcrel_hi1>:
      48: 97 06 00 00  	auipc	a3, 0
      4c: 87 b7 06 00  	fld	fa5, 0(a3)

00000050 <.Lpcrel_hi0>:
      50: 97 06 00 00  	auipc	a3, 0
      54: 93 86 06 00  	mv	a3, a3
      58: b3 85 b6 00  	add	a1, a3, a1
      5c: 07 b7 05 00  	fld	fa4, 0(a1)
      60: 87 b6 85 00  	fld	fa3, 8(a1)
      64: 53 06 05 f0  	fmv.w.x	fa2, a0
      68: 53 06 06 42  	fcvt.d.s	fa2, fa2
      6c: c3 77 c7 7a  	fmadd.d	fa5, fa4, fa2, fa5
      70: 07 b7 86 10  	fld	fa4, 264(a3)
      74: 07 b6 06 11  	fld	fa2, 272(a3)
      78: d3 05 06 d2  	fcvt.d.w	fa1, a2
      7c: d3 f6 b6 02  	fadd.d	fa3, fa3, fa1
      80: 87 b5 06 10  	fld	fa1, 256(a3)
      84: 43 f7 e7 62  	fmadd.d	fa4, fa5, fa4, fa2
      88: 07 b6 86 11  	fld	fa2, 280(a3)
      8c: 53 f5 f7 12  	fmul.d	fa0, fa5, fa5
      90: 43 77 b5 72  	fmadd.d	fa4, fa0, fa1, fa4
      94: 53 05 05 e0  	fmv.x.w	a0, fa0
      98: 13 05 05 00  	mv	a0, a0
      9c: c3 77 f6 6a  	fmadd.d	fa5, fa2, fa5, fa3
      a0: c3 77 a7 7a  	fmadd.d	fa5, fa4, fa0, fa5
      a4: 53 f5 17 40  	fcvt.s.d	fa0, fa5

000000a8 <.LBB0_3>:
      a8: 67 80 00 00  	ret

000000ac <.LBB0_4>:
      ac: 53 05 00 f0  	fmv.w.x	fa0, zero
      b0: 67 80 00 00  	ret

000000b4 <.LBB0_5>:
      b4: 93 15 15 00  	slli	a1, a0, 1
      b8: 63 80 05 00  	beqz	a1, 0xb8 <.LBB0_5+0x4>
      bc: 37 06 80 7f  	lui	a2, 522240
      c0: 63 00 c5 00  	beq	a0, a2, 0xc0 <.LBB0_5+0xc>
      c4: 13 25 05 00  	slti	a0, a0, 0
      c8: 13 45 f5 ff  	not	a0, a0
      cc: 93 d5 85 01  	srli	a1, a1, 24
      d0: 93 b5 f5 0f  	sltiu	a1, a1, 255
      d4: 33 75 b5 00  	and	a0, a0, a1
      d8: 63 10 05 00  	bnez	a0, 0xd8 <.LBB0_5+0x24>
      dc: 17 03 00 00  	auipc	t1, 0
      e0: 67 00 03 00  	jr	t1

000000e4 <.LBB0_9>:
      e4: 13 05 10 00  	li	a0, 1
      e8: 17 03 00 00  	auipc	t1, 0
      ec: 67 00 03 00  	jr	t1

000000f0 <.LBB0_10>:
      f0: 37 05 00 4b  	lui	a0, 307200
      f4: d3 07 05 f0  	fmv.w.x	fa5, a0
      f8: d3 77 f5 10  	fmul.s	fa5, fa0, fa5
      fc: 53 05 05 e0  	fmv.x.w	a0, fa0
     100: 13 05 05 00  	mv	a0, a0
     104: 53 85 07 e0  	fmv.x.w	a0, fa5
     108: b7 05 80 f4  	lui	a1, 1001472
     10c: 33 05 b5 00  	add	a0, a0, a1
     110: 6f 00 00 00  	j	0x110 <.LBB0_10+0x20>

Disassembly of section .rela.text:

00000000 <.rela.text>:
       0: 10 00        	<unknown>
       2: 00 00        	<unknown>
       4: 10 03        	<unknown>
       6: 00 00        	<unknown>
       8: 00 00        	<unknown>
       a: 00 00        	<unknown>
       c: 24 00        	<unknown>
       e: 00 00        	<unknown>
      10: 10 04        	<unknown>
      12: 00 00        	<unknown>
      14: 00 00        	<unknown>
      16: 00 00        	<unknown>
      18: 48 00        	<unknown>
      1a: 00 00        	<unknown>
      1c: 17 02 00 00  	auipc	tp, 0
      20: 00 00        	<unknown>
      22: 00 00        	<unknown>
      24: 48 00        	<unknown>
      26: 00 00        	<unknown>
      28: 33 00 00 00  	add	zero, zero, zero
      2c: 00 00        	<unknown>
      2e: 00 00        	<unknown>
      30: 4c 00        	<unknown>
      32: 00 00        	<unknown>
      34: 18 06        	<unknown>
      36: 00 00        	<unknown>
      38: 00 00        	<unknown>
      3a: 00 00        	<unknown>
      3c: 4c 00        	<unknown>
      3e: 00 00        	<unknown>
      40: 33 00 00 00  	add	zero, zero, zero
      44: 00 00        	<unknown>
      46: 00 00        	<unknown>
      48: 50 00        	<unknown>
      4a: 00 00        	<unknown>
      4c: 17 0c 00 00  	auipc	s8, 0
      50: 00 00        	<unknown>
      52: 00 00        	<unknown>
      54: 50 00        	<unknown>
      56: 00 00        	<unknown>
      58: 33 00 00 00  	add	zero, zero, zero
      5c: 00 00        	<unknown>
      5e: 00 00        	<unknown>
      60: 54 00        	<unknown>
      62: 00 00        	<unknown>
      64: 18 07        	<unknown>
      66: 00 00        	<unknown>
      68: 00 00        	<unknown>
      6a: 00 00        	<unknown>
      6c: 54 00        	<unknown>
      6e: 00 00        	<unknown>
      70: 33 00 00 00  	add	zero, zero, zero
      74: 00 00        	<unknown>
      76: 00 00        	<unknown>
      78: b8 00        	<unknown>
      7a: 00 00        	<unknown>
      7c: 10 09        	<unknown>
      7e: 00 00        	<unknown>
      80: 00 00        	<unknown>
      82: 00 00        	<unknown>
      84: c0 00        	<unknown>
      86: 00 00        	<unknown>
      88: 10 08        	<unknown>
      8a: 00 00        	<unknown>
      8c: 00 00        	<unknown>
      8e: 00 00        	<unknown>
      90: d8 00        	<unknown>
      92: 00 00        	<unknown>
      94: 10 0a        	<unknown>
      96: 00 00        	<unknown>
      98: 00 00        	<unknown>
      9a: 00 00        	<unknown>
      9c: dc 00        	<unknown>
      9e: 00 00        	<unknown>
      a0: 13 0d 00 00  	li	s10, 0
      a4: 00 00        	<unknown>
      a6: 00 00        	<unknown>
      a8: dc 00        	<unknown>
      aa: 00 00        	<unknown>
      ac: 33 00 00 00  	add	zero, zero, zero
      b0: 00 00        	<unknown>
      b2: 00 00        	<unknown>
      b4: e8 00        	<unknown>
      b6: 00 00        	<unknown>
      b8: 13 0e 00 00  	li	t3, 0
      bc: 00 00        	<unknown>
      be: 00 00        	<unknown>
      c0: e8 00        	<unknown>
      c2: 00 00        	<unknown>
      c4: 33 00 00 00  	add	zero, zero, zero
      c8: 00 00        	<unknown>
      ca: 00 00        	<unknown>
      cc: 10 01        	<unknown>
      ce: 00 00        	<unknown>
      d0: 11 05        	<unknown>
      d2: 00 00        	<unknown>
      d4: 00 00        	<unknown>
      d6: 00 00        	<unknown>

Disassembly of section .sdata:

00000000 <.LCPI0_0>:
       0: 00 00        	<unknown>
       2: 00 00        	<unknown>
       4: 00 00        	<unknown>
       6: f0 bf        	<unknown>

Disassembly of section .comment:

00000000 <.comment>:
       0: 00 55        	<unknown>
       2: 62 75        	<unknown>
       4: 6e 74        	<unknown>
       6: 75 20        	<unknown>
       8: 63 6c 61 6e  	bltu	sp, t1, 0x700 <.comment+0x700>
       c: 67 20 76 65  	<unknown>
      10: 72 73        	<unknown>
      12: 69 6f        	<unknown>
      14: 6e 20        	<unknown>
      16: 31 37        	<unknown>
      18: 2e 30        	<unknown>
      1a: 2e 36        	<unknown>
      1c: 20 28        	<unknown>
      1e: 39 75        	<unknown>
      20: 62 75        	<unknown>
      22: 6e 74        	<unknown>
      24: 75 31        	<unknown>
      26: 29 00        	<unknown>

Disassembly of section .riscv.attributes:

00000000 <.riscv.attributes>:
       0: 41 3f        	<unknown>
       2: 00 00        	<unknown>
       4: 00 72        	<unknown>
       6: 69 73        	<unknown>
       8: 63 76 00 01  	bgeu	zero, a6, 0x14 <.riscv.attributes+0x14>
       c: 35 00        	<unknown>
       e: 00 00        	<unknown>
      10: 04 10        	<unknown>
      12: 05 72        	<unknown>
      14: 76 33        	<unknown>
      16: 32 69        	<unknown>
      18: 32 70        	<unknown>
      1a: 31 5f        	<unknown>
      1c: 6d 32        	<unknown>
      1e: 70 30        	<unknown>
      20: 5f 61 32 70  	<unknown>
      24: 31 5f        	<unknown>
      26: 66 32        	<unknown>
      28: 70 32        	<unknown>
      2a: 5f 64 32 70  	<unknown>
      2e: 32 5f        	<unknown>
      30: 7a 69        	<unknown>
      32: 63 73 72 32  	bgeu	tp, t2, 0x358 <.riscv.attributes+0x358>
      36: 70 30        	<unknown>
      38: 5f 7a 66 68  	<unknown>
      3c: 31 70        	<unknown>
      3e: 30 00        	<unknown>

Disassembly of section .symtab:

00000000 <.symtab>:
		...
      10: 6b 00 00 00  	<unknown>
		...
      1c: 04 00        	<unknown>
      1e: f1 ff        	<unknown>
      20: d7 00 00 00  	<unknown>
		...
      2c: 00 00        	<unknown>
      2e: 04 00        	<unknown>
      30: a7 00 00 00  	<unknown>
      34: ac 00        	<unknown>
		...
      3e: 02 00        	<unknown>
      40: 9f 00 00 00  	<unknown>
      44: b4 00        	<unknown>
		...
      4e: 02 00        	<unknown>
      50: b7 00 00 00  	lui	ra, 0
      54: 28 00        	<unknown>
		...
      5e: 02 00        	<unknown>
      60: bf 00 00 00  	<unknown>
      64: 48 00        	<unknown>
		...
      6e: 02 00        	<unknown>
      70: cb 00 00 00  	fnmsub.s	ft1, ft0, ft0, ft0, rne
      74: 50 00        	<unknown>
		...
      7e: 02 00        	<unknown>
      80: af 00 00 00  	<unknown>
      84: a8 00        	<unknown>
		...
      8e: 02 00        	<unknown>
      90: 97 00 00 00  	auipc	ra, 0
      94: e4 00        	<unknown>
		...
      9e: 02 00        	<unknown>
      a0: e0 00        	<unknown>
      a2: 00 00        	<unknown>
      a4: f0 00        	<unknown>
		...
      ae: 02 00        	<unknown>
      b0: 65 00        	<unknown>
      b2: 00 00        	<unknown>
      b4: 00 00        	<unknown>
      b6: 00 00        	<unknown>
      b8: 14 01        	<unknown>
      ba: 00 00        	<unknown>
      bc: 12 00        	<unknown>
      be: 02 00        	<unknown>
      c0: 8a 00        	<unknown>
		...
      ca: 00 00        	<unknown>
      cc: 10 02        	<unknown>
      ce: 00 00        	<unknown>
      d0: 55 00        	<unknown>
		...
      da: 00 00        	<unknown>
      dc: 10 02        	<unknown>
      de: 00 00        	<unknown>
      e0: 45 00        	<unknown>
		...
      ea: 00 00        	<unknown>
      ec: 10 02        	<unknown>
      ee: 00 00        	<unknown>

/workspaces/snax_cluster/target/snitch_cluster/sw/math/build/libmath.a(log2f_data.o):	file format elf32-littleriscv

Disassembly of section .strtab:

00000000 <.strtab>:
       0: 00 2e        	<unknown>
       2: 74 65        	<unknown>
       4: 78 74        	<unknown>
       6: 00 2e        	<unknown>
       8: 63 6f 6d 6d  	bltu	s10, s6, 0x6e6 <.strtab+0x6e6>
       c: 65 6e        	<unknown>
       e: 74 00        	<unknown>
      10: 2e 72        	<unknown>
      12: 69 73        	<unknown>
      14: 63 76 2e 61  	bgeu	t3, s2, 0x620 <.strtab+0x620>
      18: 74 74        	<unknown>
      1a: 72 69        	<unknown>
      1c: 62 75        	<unknown>
      1e: 74 65        	<unknown>
      20: 73 00 2e 6e  	<unknown>
      24: 6f 74 65 2e  	jal	s0, 0x5730a <.strtab+0x5730a>
      28: 47 4e 55 2d  	fmsub.h	ft8, fa0, fs5, ft5, rmm
      2c: 73 74 61 63  	csrrci	s0, 1590, 2
      30: 6b 00 2e 6c  	<unknown>
      34: 6c 76        	<unknown>
      36: 6d 5f        	<unknown>
      38: 61 64        	<unknown>
      3a: 64 72        	<unknown>
      3c: 73 69 67 00  	csrrsi	s2, 6, 14
      40: 6c 6f        	<unknown>
      42: 67 32 66 5f  	<unknown>
      46: 64 61        	<unknown>
      48: 74 61        	<unknown>
      4a: 2e 63        	<unknown>
      4c: 00 2e        	<unknown>
      4e: 73 74 72 74  	csrrci	s0, mseccfg, 4
      52: 61 62        	<unknown>
      54: 00 2e        	<unknown>
      56: 73 79 6d 74  	csrrci	s2, 1862, 26
      5a: 61 62        	<unknown>
      5c: 00 2e        	<unknown>
      5e: 72 6f        	<unknown>
      60: 64 61        	<unknown>
      62: 74 61        	<unknown>
      64: 00 5f        	<unknown>
      66: 5f 6c 6f 67  	<unknown>
      6a: 32 66        	<unknown>
      6c: 5f 64 61 74  	<unknown>
      70: 61 00        	<unknown>

Disassembly of section .rodata:

00000000 <__log2f_data>:
       0: be f3        	<unknown>
       2: f8 79        	<unknown>
       4: ec 61        	<unknown>
       6: f6 3f        	<unknown>
       8: 19 30        	<unknown>
       a: 96 5b        	<unknown>
       c: c6 fe        	<unknown>
       e: de bf        	<unknown>
      10: 3d 88        	<unknown>
      12: af 4a ed 71  	<unknown>
      16: f5 3f        	<unknown>
      18: a4 fc        	<unknown>
      1a: d4 32        	<unknown>
      1c: 68 0b        	<unknown>
      1e: db bf b0 10  	<unknown>
      22: f0 f0        	<unknown>
      24: 39 95        	<unknown>
      26: f4 3f        	<unknown>
      28: 7b b7 1f 0a  	<unknown>
      2c: 8b 41 d7 bf  	<unknown>
      30: 85 03        	<unknown>
      32: b8 b0        	<unknown>
      34: 95 c9        	<unknown>
      36: f3 3f 7b cf  	csrrc	t6, 3319, s6
      3a: 6d 1a        	<unknown>
      3c: e9 9d        	<unknown>
      3e: d3 bf a5 64  	<unknown>
      42: 88 0c        	<unknown>
      44: 19 0d        	<unknown>
      46: f3 3f 31 b6  	csrrc	t6, 2915, sp
      4a: f2 f3        	<unknown>
      4c: 9b 1d d0 bf  	<unknown>
      50: a0 8e        	<unknown>
      52: 0b 7b 22 5e  	<unknown>
      56: f2 3f        	<unknown>
      58: f0 7a        	<unknown>
      5a: 3b 1b 1d 7c  	<unknown>
      5e: c9 bf        	<unknown>
      60: 3f 34 1a 4a  	<unknown>
      64: 4a bb        	<unknown>
      66: f1 3f        	<unknown>
      68: 9f 3c af 93  	<unknown>
      6c: e3 f9 c2 bf  	bgeu	t0, t3, 0xfffffc5e <__log2f_data+0xfffffffffffffc5e>
      70: ba e5        	<unknown>
      72: 8a f0        	<unknown>
      74: 58 23        	<unknown>
      76: f1 3f        	<unknown>
      78: 5c 8d        	<unknown>
      7a: 78 bf        	<unknown>
      7c: cb 60 b9 bf  	<unknown>
      80: a7 00 99 41  	<unknown>
      84: 3f 95 f0 3f  	<unknown>
      88: ce 5f        	<unknown>
      8a: 47 b6 9d 6f  	<unknown>
      8e: aa bf        	<unknown>
      90: 00 00        	<unknown>
      92: 00 00        	<unknown>
      94: 00 00        	<unknown>
      96: f0 3f        	<unknown>
		...
      a0: ac 47        	<unknown>
      a2: 9a fd        	<unknown>
      a4: 8c 60        	<unknown>
      a6: ee 3f        	<unknown>
      a8: 3d f5        	<unknown>
      aa: 24 9f        	<unknown>
      ac: ca 38        	<unknown>
      ae: b3 3f a0 6a  	<unknown>
      b2: 02 1f        	<unknown>
      b4: b3 a4 ec 3f  	<unknown>
      b8: ba 91        	<unknown>
      ba: 38 54        	<unknown>
      bc: a9 76        	<unknown>
      be: c4 3f        	<unknown>
      c0: e6 fc        	<unknown>
      c2: 6a 57        	<unknown>
      c4: 36 20        	<unknown>
      c6: eb 3f d2 e4  	<unknown>
      ca: c4 4a        	<unknown>
      cc: 0b 84 ce 3f  	<unknown>
      d0: 2d aa        	<unknown>
      d2: a1 63        	<unknown>
      d4: d1 c2        	<unknown>
      d6: e9 3f        	<unknown>
      d8: 1c 65        	<unknown>
      da: c6 f0        	<unknown>
      dc: 45 06        	<unknown>
      de: d4 3f        	<unknown>
      e0: ed 41        	<unknown>
      e2: 78 03        	<unknown>
      e4: e6 86        	<unknown>
      e6: e8 3f        	<unknown>
      e8: f8 9f        	<unknown>
      ea: 1b 2c 9c 8e  	<unknown>
      ee: d8 3f        	<unknown>
      f0: 62 48        	<unknown>
      f2: 53 f5 dc 67  	<unknown>
      f6: e7 3f cc 7b  	<unknown>
      fa: b1 4e        	<unknown>
      fc: a4 e0        	<unknown>
      fe: dc 3f        	<unknown>
     100: 4d 7e        	<unknown>
     102: 0a f7        	<unknown>
     104: b6 12        	<unknown>
     106: d7 bf e0 32  	<unknown>
     10a: 68 49        	<unknown>
     10c: bf ca de 3f  	<unknown>
     110: de e3        	<unknown>
     112: fa 9f        	<unknown>
     114: 47 15 e7 bf  	<unknown>
     118: b8 c8        	<unknown>
     11a: 35 5f        	<unknown>
     11c: 47 15 f7 3f  	<unknown>

Disassembly of section .comment:

00000000 <.comment>:
       0: 00 55        	<unknown>
       2: 62 75        	<unknown>
       4: 6e 74        	<unknown>
       6: 75 20        	<unknown>
       8: 63 6c 61 6e  	bltu	sp, t1, 0x700 <.comment+0x700>
       c: 67 20 76 65  	<unknown>
      10: 72 73        	<unknown>
      12: 69 6f        	<unknown>
      14: 6e 20        	<unknown>
      16: 31 37        	<unknown>
      18: 2e 30        	<unknown>
      1a: 2e 36        	<unknown>
      1c: 20 28        	<unknown>
      1e: 39 75        	<unknown>
      20: 62 75        	<unknown>
      22: 6e 74        	<unknown>
      24: 75 31        	<unknown>
      26: 29 00        	<unknown>

Disassembly of section .riscv.attributes:

00000000 <.riscv.attributes>:
       0: 41 3f        	<unknown>
       2: 00 00        	<unknown>
       4: 00 72        	<unknown>
       6: 69 73        	<unknown>
       8: 63 76 00 01  	bgeu	zero, a6, 0x14 <.riscv.attributes+0x14>
       c: 35 00        	<unknown>
       e: 00 00        	<unknown>
      10: 04 10        	<unknown>
      12: 05 72        	<unknown>
      14: 76 33        	<unknown>
      16: 32 69        	<unknown>
      18: 32 70        	<unknown>
      1a: 31 5f        	<unknown>
      1c: 6d 32        	<unknown>
      1e: 70 30        	<unknown>
      20: 5f 61 32 70  	<unknown>
      24: 31 5f        	<unknown>
      26: 66 32        	<unknown>
      28: 70 32        	<unknown>
      2a: 5f 64 32 70  	<unknown>
      2e: 32 5f        	<unknown>
      30: 7a 69        	<unknown>
      32: 63 73 72 32  	bgeu	tp, t2, 0x358 <.riscv.attributes+0x358>
      36: 70 30        	<unknown>
      38: 5f 7a 66 68  	<unknown>
      3c: 31 70        	<unknown>
      3e: 30 00        	<unknown>

Disassembly of section .symtab:

00000000 <.symtab>:
		...
      10: 40 00        	<unknown>
		...
      1a: 00 00        	<unknown>
      1c: 04 00        	<unknown>
      1e: f1 ff        	<unknown>
      20: 65 00        	<unknown>
      22: 00 00        	<unknown>
      24: 00 00        	<unknown>
      26: 00 00        	<unknown>
      28: 20 01        	<unknown>
      2a: 00 00        	<unknown>
      2c: 11 02        	<unknown>
      2e: 03           	<unknown>
      2f: 00           	<unknown>

/workspaces/snax_cluster/target/snitch_cluster/sw/math/build/libmath.a(sqrt.o):	file format elf32-littleriscv

Disassembly of section .strtab:

00000000 <.strtab>:
       0: 00 2e        	<unknown>
       2: 72 65        	<unknown>
       4: 6c 61        	<unknown>
       6: 2e 74        	<unknown>
       8: 65 78        	<unknown>
       a: 74 00        	<unknown>
       c: 73 71 72 74  	csrrci	sp, mseccfg, 4
      10: 00 2e        	<unknown>
      12: 63 6f 6d 6d  	bltu	s10, s6, 0x6f0 <.strtab+0x6f0>
      16: 65 6e        	<unknown>
      18: 74 00        	<unknown>
      1a: 2e 72        	<unknown>
      1c: 69 73        	<unknown>
      1e: 63 76 2e 61  	bgeu	t3, s2, 0x62a <.strtab+0x62a>
      22: 74 74        	<unknown>
      24: 72 69        	<unknown>
      26: 62 75        	<unknown>
      28: 74 65        	<unknown>
      2a: 73 00 2e 6e  	<unknown>
      2e: 6f 74 65 2e  	jal	s0, 0x57314 <.strtab+0x57314>
      32: 47 4e 55 2d  	fmsub.h	ft8, fa0, fs5, ft5, rmm
      36: 73 74 61 63  	csrrci	s0, 1590, 2
      3a: 6b 00 2e 6c  	<unknown>
      3e: 6c 76        	<unknown>
      40: 6d 5f        	<unknown>
      42: 61 64        	<unknown>
      44: 64 72        	<unknown>
      46: 73 69 67 00  	csrrsi	s2, 6, 14
      4a: 5f 5f 6d 61  	<unknown>
      4e: 74 68        	<unknown>
      50: 5f 69 6e 76  	<unknown>
      54: 61 6c        	<unknown>
      56: 69 64        	<unknown>
      58: 00 73        	<unknown>
      5a: 71 72        	<unknown>
      5c: 74 2e        	<unknown>
      5e: 63 00 2e 73  	beq	t3, s2, 0x77e <.strtab+0x77e>
      62: 74 72        	<unknown>
      64: 74 61        	<unknown>
      66: 62 00        	<unknown>
      68: 2e 73        	<unknown>
      6a: 79 6d        	<unknown>
      6c: 74 61        	<unknown>
      6e: 62 00        	<unknown>
      70: 5f 5f 72 73  	<unknown>
      74: 71 72        	<unknown>
      76: 74 5f        	<unknown>
      78: 74 61        	<unknown>
      7a: 62 00        	<unknown>
      7c: 2e 73        	<unknown>
      7e: 64 61        	<unknown>
      80: 74 61        	<unknown>
      82: 00 2e        	<unknown>
      84: 4c 42        	<unknown>
      86: 42 30        	<unknown>
      88: 5f 39 00 2e  	<unknown>
      8c: 4c 42        	<unknown>
      8e: 42 30        	<unknown>
      90: 5f 38 00 2e  	<unknown>
      94: 4c 42        	<unknown>
      96: 42 30        	<unknown>
      98: 5f 33 00 2e  	<unknown>
      9c: 4c 42        	<unknown>
      9e: 42 30        	<unknown>
      a0: 5f 32 00 2e  	<unknown>
      a4: 4c 70        	<unknown>
      a6: 63 72 65 6c  	bgeu	a0, t1, 0x76a <.strtab+0x76a>
      aa: 5f 68 69 31  	<unknown>
      ae: 00 2e        	<unknown>
      b0: 4c 42        	<unknown>
      b2: 42 30        	<unknown>
      b4: 5f 31 00 2e  	<unknown>
      b8: 4c 42        	<unknown>
      ba: 42 30        	<unknown>
      bc: 5f 31 31 00  	<unknown>
      c0: 2e 4c        	<unknown>
      c2: 70 63        	<unknown>
      c4: 72 65        	<unknown>
      c6: 6c 5f        	<unknown>
      c8: 68 69        	<unknown>
      ca: 30 00        	<unknown>
      cc: 2e 4c        	<unknown>
      ce: 43 50 49 30  	<unknown>
      d2: 5f           	<unknown>
      d3: 30 00        	<unknown>

Disassembly of section .text:

00000000 <sqrt>:
       0: 13 01 01 fe  	addi	sp, sp, -32
       4: 53 05 05 e0  	fmv.x.w	a0, fa0
       8: 13 05 05 00  	mv	a0, a0
       c: 27 3c a1 00  	fsd	fa0, 24(sp)
      10: 83 26 c1 01  	lw	a3, 28(sp)
      14: 83 25 81 01  	lw	a1, 24(sp)
      18: 13 d5 46 01  	srli	a0, a3, 20
      1c: 13 06 15 80  	addi	a2, a0, -2047
      20: 33 37 a6 00  	sltu	a4, a2, a0
      24: 13 36 26 80  	sltiu	a2, a2, -2046
      28: 33 66 c7 00  	or	a2, a4, a2
      2c: 63 10 06 00  	bnez	a2, 0x2c <sqrt+0x2c>

00000030 <.LBB0_1>:
      30: 13 d6 55 01  	srli	a2, a1, 21
      34: 13 97 b6 00  	slli	a4, a3, 11
      38: 33 67 c7 00  	or	a4, a4, a2
      3c: 13 96 b5 00  	slli	a2, a1, 11
      40: b7 05 00 80  	lui	a1, 524288
      44: b3 67 b7 00  	or	a5, a4, a1
      48: 13 78 15 00  	andi	a6, a0, 1
      4c: 33 56 06 01  	srl	a2, a2, a6
      50: 13 17 17 00  	slli	a4, a4, 1
      54: 93 48 f8 01  	xori	a7, a6, 31
      58: 93 d6 d6 00  	srli	a3, a3, 13
      5c: 93 f6 e6 0f  	andi	a3, a3, 254

00000060 <.Lpcrel_hi1>:
      60: 97 02 00 00  	auipc	t0, 0
      64: 93 82 02 00  	mv	t0, t0
      68: b3 86 d2 00  	add	a3, t0, a3
      6c: 83 96 06 00  	lh	a3, 0(a3)
      70: 33 17 17 01  	sll	a4, a4, a7
      74: 33 67 e6 00  	or	a4, a2, a4
      78: b3 d7 07 01  	srl	a5, a5, a6
      7c: 93 96 06 01  	slli	a3, a3, 16
      80: 33 b8 d7 02  	mulhu	a6, a5, a3
      84: b3 38 d8 02  	mulhu	a7, a6, a3
      88: b7 02 00 c0  	lui	t0, 786432
      8c: b3 88 12 41  	sub	a7, t0, a7
      90: b3 b6 d8 02  	mulhu	a3, a7, a3
      94: 93 96 16 00  	slli	a3, a3, 1
      98: 33 38 18 03  	mulhu	a6, a6, a7
      9c: 13 18 18 00  	slli	a6, a6, 1
      a0: 33 b8 06 03  	mulhu	a6, a3, a6
      a4: 33 88 02 41  	sub	a6, t0, a6
      a8: b3 b6 06 03  	mulhu	a3, a3, a6
      ac: 93 96 16 00  	slli	a3, a3, 1
      b0: 13 08 e0 ff  	li	a6, -2
      b4: 13 08 28 c0  	addi	a6, a6, -1022
      b8: 33 77 07 01  	and	a4, a4, a6
      bc: 33 b8 f6 02  	mulhu	a6, a3, a5
      c0: b3 87 f6 02  	mul	a5, a3, a5
      c4: 33 b7 e6 02  	mulhu	a4, a3, a4
      c8: b3 07 f7 00  	add	a5, a4, a5
      cc: 33 b7 e7 00  	sltu	a4, a5, a4
      d0: 33 07 e8 00  	add	a4, a6, a4
      d4: 33 38 d7 02  	mulhu	a6, a4, a3
      d8: b3 08 d7 02  	mul	a7, a4, a3
      dc: b3 b6 d7 02  	mulhu	a3, a5, a3
      e0: b3 86 d8 00  	add	a3, a7, a3
      e4: b3 b8 16 01  	sltu	a7, a3, a7
      e8: 33 08 18 01  	add	a6, a6, a7
      ec: b3 38 d0 00  	snez	a7, a3
      f0: b3 88 12 41  	sub	a7, t0, a7
      f4: 33 88 08 41  	sub	a6, a7, a6
      f8: b3 06 d0 40  	neg	a3, a3
      fc: b3 38 e8 02  	mulhu	a7, a6, a4
     100: b3 02 e8 02  	mul	t0, a6, a4
     104: b3 b6 e6 02  	mulhu	a3, a3, a4
     108: 33 37 f8 02  	mulhu	a4, a6, a5
     10c: b3 86 d2 00  	add	a3, t0, a3
     110: b3 b7 56 00  	sltu	a5, a3, t0
     114: b3 87 f8 00  	add	a5, a7, a5
     118: 33 87 e6 00  	add	a4, a3, a4
     11c: b3 36 d7 00  	sltu	a3, a4, a3
     120: b3 86 d7 00  	add	a3, a5, a3
     124: 93 07 e7 ff  	addi	a5, a4, -2
     128: 33 b7 e7 00  	sltu	a4, a5, a4
     12c: b3 86 e6 00  	add	a3, a3, a4
     130: 93 86 f6 ff  	addi	a3, a3, -1
     134: 13 97 76 01  	slli	a4, a3, 23
     138: 93 d7 97 00  	srli	a5, a5, 9
     13c: 33 e7 e7 00  	or	a4, a5, a4
     140: 93 d6 96 00  	srli	a3, a3, 9
     144: 13 16 a6 00  	slli	a2, a2, 10
     148: b3 07 d7 02  	mul	a5, a4, a3
     14c: 33 38 e7 02  	mulhu	a6, a4, a4
     150: 33 08 f8 00  	add	a6, a6, a5
     154: b3 08 e7 02  	mul	a7, a4, a4
     158: b3 87 c7 40  	sub	a5, a5, a2
     15c: b3 07 f8 00  	add	a5, a6, a5
     160: b3 87 d7 00  	add	a5, a5, a3
     164: 33 86 e8 00  	add	a2, a7, a4
     168: 33 38 16 01  	sltu	a6, a2, a7
     16c: b3 87 07 01  	add	a5, a5, a6
     170: 33 06 c7 00  	add	a2, a4, a2
     174: 33 38 e6 00  	sltu	a6, a2, a4
     178: 33 88 06 01  	add	a6, a3, a6
     17c: 33 08 f8 00  	add	a6, a6, a5
     180: 13 06 16 00  	addi	a2, a2, 1
     184: 93 38 16 00  	seqz	a7, a2
     188: 33 08 18 01  	add	a6, a6, a7
     18c: 33 66 06 01  	or	a2, a2, a6
     190: 33 36 c0 00  	snez	a2, a2
     194: 93 d8 f7 01  	srli	a7, a5, 31
     198: 33 87 e8 00  	add	a4, a7, a4
     19c: b3 38 17 01  	sltu	a7, a4, a7
     1a0: b3 86 16 01  	add	a3, a3, a7
     1a4: 93 96 c6 00  	slli	a3, a3, 12
     1a8: 93 d6 c6 00  	srli	a3, a3, 12
     1ac: 13 15 35 01  	slli	a0, a0, 19
     1b0: b7 08 f8 1f  	lui	a7, 130944
     1b4: 33 05 15 01  	add	a0, a0, a7
     1b8: b7 08 f0 ff  	lui	a7, 1048320
     1bc: 33 75 15 01  	and	a0, a0, a7
     1c0: 23 24 e1 00  	sw	a4, 8(sp)
     1c4: 33 e5 a6 00  	or	a0, a3, a0
     1c8: 23 26 a1 00  	sw	a0, 12(sp)
     1cc: 87 37 81 00  	fld	fa5, 8(sp)
     1d0: 53 05 05 e0  	fmv.x.w	a0, fa0
     1d4: 13 05 05 00  	mv	a0, a0
     1d8: 13 16 46 01  	slli	a2, a2, 20
     1dc: 33 45 f8 00  	xor	a0, a6, a5
     1e0: 33 75 b5 00  	and	a0, a0, a1
     1e4: 23 20 01 00  	sw	zero, 0(sp)
     1e8: 33 65 a6 00  	or	a0, a2, a0
     1ec: 23 22 a1 00  	sw	a0, 4(sp)
     1f0: 07 37 01 00  	fld	fa4, 0(sp)
     1f4: 53 05 05 e0  	fmv.x.w	a0, fa0
     1f8: 13 05 05 00  	mv	a0, a0
     1fc: 53 f5 e7 02  	fadd.d	fa0, fa5, fa4

00000200 <.LBB0_2>:
     200: 13 01 01 02  	addi	sp, sp, 32
     204: 67 80 00 00  	ret

00000208 <.LBB0_3>:
     208: 37 05 00 80  	lui	a0, 524288
     20c: 33 c5 a6 00  	xor	a0, a3, a0
     210: 33 e5 a5 00  	or	a0, a1, a0
     214: 63 00 05 00  	beqz	a0, 0x214 <.LBB0_3+0xc>
     218: 33 e5 d5 00  	or	a0, a1, a3
     21c: 63 00 05 00  	beqz	a0, 0x21c <.LBB0_3+0x14>
     220: 37 05 f0 7f  	lui	a0, 524032
     224: 33 c6 a6 00  	xor	a2, a3, a0
     228: 33 e6 c5 00  	or	a2, a1, a2
     22c: 63 00 06 00  	beqz	a2, 0x22c <.LBB0_3+0x24>
     230: 63 80 a6 00  	beq	a3, a0, 0x230 <.LBB0_3+0x28>
     234: 93 d6 46 01  	srli	a3, a3, 20
     238: 13 b5 f6 7f  	sltiu	a0, a3, 2047
     23c: 6f 00 00 00  	j	0x23c <.LBB0_3+0x34>

00000240 <.LBB0_8>:
     240: 13 b5 15 00  	seqz	a0, a1

00000244 <.LBB0_9>:
     244: 63 10 05 00  	bnez	a0, 0x244 <.LBB0_9>
     248: 13 01 01 02  	addi	sp, sp, 32
     24c: 17 03 00 00  	auipc	t1, 0
     250: 67 00 03 00  	jr	t1

00000254 <.Lpcrel_hi0>:
     254: 17 05 00 00  	auipc	a0, 0
     258: 87 37 05 00  	fld	fa5, 0(a0)
     25c: d3 77 f5 12  	fmul.d	fa5, fa0, fa5
     260: 53 05 05 e0  	fmv.x.w	a0, fa0
     264: 13 05 05 00  	mv	a0, a0
     268: 27 38 f1 00  	fsd	fa5, 16(sp)
     26c: 83 26 41 01  	lw	a3, 20(sp)
     270: 83 25 01 01  	lw	a1, 16(sp)
     274: 13 d5 46 01  	srli	a0, a3, 20
     278: 13 05 c5 fc  	addi	a0, a0, -52
     27c: 6f 00 00 00  	j	0x27c <.Lpcrel_hi0+0x28>

Disassembly of section .rela.text:

00000000 <.rela.text>:
       0: 2c 00        	<unknown>
       2: 00 00        	<unknown>
       4: 10 03        	<unknown>
       6: 00 00        	<unknown>
       8: 00 00        	<unknown>
       a: 00 00        	<unknown>
       c: 60 00        	<unknown>
       e: 00 00        	<unknown>
      10: 17 0c 00 00  	auipc	s8, 0
      14: 00 00        	<unknown>
      16: 00 00        	<unknown>
      18: 60 00        	<unknown>
      1a: 00 00        	<unknown>
      1c: 33 00 00 00  	add	zero, zero, zero
      20: 00 00        	<unknown>
      22: 00 00        	<unknown>
      24: 64 00        	<unknown>
      26: 00 00        	<unknown>
      28: 18 05        	<unknown>
      2a: 00 00        	<unknown>
      2c: 00 00        	<unknown>
      2e: 00 00        	<unknown>
      30: 64 00        	<unknown>
      32: 00 00        	<unknown>
      34: 33 00 00 00  	add	zero, zero, zero
      38: 00 00        	<unknown>
      3a: 00 00        	<unknown>
      3c: 14 02        	<unknown>
      3e: 00 00        	<unknown>
      40: 10 06        	<unknown>
      42: 00 00        	<unknown>
      44: 00 00        	<unknown>
      46: 00 00        	<unknown>
      48: 1c 02        	<unknown>
      4a: 00 00        	<unknown>
      4c: 10 06        	<unknown>
      4e: 00 00        	<unknown>
      50: 00 00        	<unknown>
      52: 00 00        	<unknown>
      54: 2c 02        	<unknown>
      56: 00 00        	<unknown>
      58: 10 06        	<unknown>
      5a: 00 00        	<unknown>
      5c: 00 00        	<unknown>
      5e: 00 00        	<unknown>
      60: 30 02        	<unknown>
      62: 00 00        	<unknown>
      64: 10 07        	<unknown>
      66: 00 00        	<unknown>
      68: 00 00        	<unknown>
      6a: 00 00        	<unknown>
      6c: 3c 02        	<unknown>
      6e: 00 00        	<unknown>
      70: 11 08        	<unknown>
      72: 00 00        	<unknown>
      74: 00 00        	<unknown>
      76: 00 00        	<unknown>
      78: 44 02        	<unknown>
      7a: 00 00        	<unknown>
      7c: 10 09        	<unknown>
      7e: 00 00        	<unknown>
      80: 00 00        	<unknown>
      82: 00 00        	<unknown>
      84: 4c 02        	<unknown>
      86: 00 00        	<unknown>
      88: 13 0d 00 00  	li	s10, 0
      8c: 00 00        	<unknown>
      8e: 00 00        	<unknown>
      90: 4c 02        	<unknown>
      92: 00 00        	<unknown>
      94: 33 00 00 00  	add	zero, zero, zero
      98: 00 00        	<unknown>
      9a: 00 00        	<unknown>
      9c: 54 02        	<unknown>
      9e: 00 00        	<unknown>
      a0: 17 02 00 00  	auipc	tp, 0
      a4: 00 00        	<unknown>
      a6: 00 00        	<unknown>
      a8: 54 02        	<unknown>
      aa: 00 00        	<unknown>
      ac: 33 00 00 00  	add	zero, zero, zero
      b0: 00 00        	<unknown>
      b2: 00 00        	<unknown>
      b4: 58 02        	<unknown>
      b6: 00 00        	<unknown>
      b8: 18 0a        	<unknown>
      ba: 00 00        	<unknown>
      bc: 00 00        	<unknown>
      be: 00 00        	<unknown>
      c0: 58 02        	<unknown>
      c2: 00 00        	<unknown>
      c4: 33 00 00 00  	add	zero, zero, zero
      c8: 00 00        	<unknown>
      ca: 00 00        	<unknown>
      cc: 7c 02        	<unknown>
      ce: 00 00        	<unknown>
      d0: 11 04        	<unknown>
      d2: 00 00        	<unknown>
      d4: 00 00        	<unknown>
      d6: 00 00        	<unknown>

Disassembly of section .sdata:

00000000 <.LCPI0_0>:
       0: 00 00        	<unknown>
       2: 00 00        	<unknown>
       4: 00 00        	<unknown>
       6: 30 43        	<unknown>

Disassembly of section .comment:

00000000 <.comment>:
       0: 00 55        	<unknown>
       2: 62 75        	<unknown>
       4: 6e 74        	<unknown>
       6: 75 20        	<unknown>
       8: 63 6c 61 6e  	bltu	sp, t1, 0x700 <.comment+0x700>
       c: 67 20 76 65  	<unknown>
      10: 72 73        	<unknown>
      12: 69 6f        	<unknown>
      14: 6e 20        	<unknown>
      16: 31 37        	<unknown>
      18: 2e 30        	<unknown>
      1a: 2e 36        	<unknown>
      1c: 20 28        	<unknown>
      1e: 39 75        	<unknown>
      20: 62 75        	<unknown>
      22: 6e 74        	<unknown>
      24: 75 31        	<unknown>
      26: 29 00        	<unknown>

Disassembly of section .riscv.attributes:

00000000 <.riscv.attributes>:
       0: 41 3f        	<unknown>
       2: 00 00        	<unknown>
       4: 00 72        	<unknown>
       6: 69 73        	<unknown>
       8: 63 76 00 01  	bgeu	zero, a6, 0x14 <.riscv.attributes+0x14>
       c: 35 00        	<unknown>
       e: 00 00        	<unknown>
      10: 04 10        	<unknown>
      12: 05 72        	<unknown>
      14: 76 33        	<unknown>
      16: 32 69        	<unknown>
      18: 32 70        	<unknown>
      1a: 31 5f        	<unknown>
      1c: 6d 32        	<unknown>
      1e: 70 30        	<unknown>
      20: 5f 61 32 70  	<unknown>
      24: 31 5f        	<unknown>
      26: 66 32        	<unknown>
      28: 70 32        	<unknown>
      2a: 5f 64 32 70  	<unknown>
      2e: 32 5f        	<unknown>
      30: 7a 69        	<unknown>
      32: 63 73 72 32  	bgeu	tp, t2, 0x358 <.riscv.attributes+0x358>
      36: 70 30        	<unknown>
      38: 5f 7a 66 68  	<unknown>
      3c: 31 70        	<unknown>
      3e: 30 00        	<unknown>

Disassembly of section .symtab:

00000000 <.symtab>:
		...
      10: 59 00        	<unknown>
		...
      1a: 00 00        	<unknown>
      1c: 04 00        	<unknown>
      1e: f1 ff        	<unknown>
      20: cc 00        	<unknown>
		...
      2e: 04 00        	<unknown>
      30: 93 00 00 00  	li	ra, 0
      34: 08 02        	<unknown>
		...
      3e: 02 00        	<unknown>
      40: af 00 00 00  	<unknown>
      44: 30 00        	<unknown>
		...
      4e: 02 00        	<unknown>
      50: a3 00 00 00  	sb	zero, 1(zero)
      54: 60 00        	<unknown>
		...
      5e: 02 00        	<unknown>
      60: 9b 00 00 00  	<unknown>
      64: 00 02        	<unknown>
		...
      6e: 02 00        	<unknown>
      70: 8b 00 00 00  	<unknown>
      74: 40 02        	<unknown>
		...
      7e: 02 00        	<unknown>
      80: 83 00 00 00  	lb	ra, 0(zero)
      84: 44 02        	<unknown>
		...
      8e: 02 00        	<unknown>
      90: b7 00 00 00  	lui	ra, 0
      94: 54 02        	<unknown>
		...
      9e: 02 00        	<unknown>
      a0: c0 00        	<unknown>
      a2: 00 00        	<unknown>
      a4: 54 02        	<unknown>
		...
      ae: 02 00        	<unknown>
      b0: 0c 00        	<unknown>
      b2: 00 00        	<unknown>
      b4: 00 00        	<unknown>
      b6: 00 00        	<unknown>
      b8: 80 02        	<unknown>
      ba: 00 00        	<unknown>
      bc: 12 00        	<unknown>
      be: 02 00        	<unknown>
      c0: 70 00        	<unknown>
		...
      ca: 00 00        	<unknown>
      cc: 10 02        	<unknown>
      ce: 00 00        	<unknown>
      d0: 4a 00        	<unknown>
		...
      da: 00 00        	<unknown>
      dc: 10 02        	<unknown>
      de: 00 00        	<unknown>

/workspaces/snax_cluster/target/snitch_cluster/sw/math/build/libmath.a(sqrt_data.o):	file format elf32-littleriscv

Disassembly of section .strtab:

00000000 <.strtab>:
       0: 00 2e        	<unknown>
       2: 74 65        	<unknown>
       4: 78 74        	<unknown>
       6: 00 2e        	<unknown>
       8: 63 6f 6d 6d  	bltu	s10, s6, 0x6e6 <.strtab+0x6e6>
       c: 65 6e        	<unknown>
       e: 74 00        	<unknown>
      10: 2e 72        	<unknown>
      12: 69 73        	<unknown>
      14: 63 76 2e 61  	bgeu	t3, s2, 0x620 <.strtab+0x620>
      18: 74 74        	<unknown>
      1a: 72 69        	<unknown>
      1c: 62 75        	<unknown>
      1e: 74 65        	<unknown>
      20: 73 00 2e 6e  	<unknown>
      24: 6f 74 65 2e  	jal	s0, 0x5730a <.strtab+0x5730a>
      28: 47 4e 55 2d  	fmsub.h	ft8, fa0, fs5, ft5, rmm
      2c: 73 74 61 63  	csrrci	s0, 1590, 2
      30: 6b 00 2e 6c  	<unknown>
      34: 6c 76        	<unknown>
      36: 6d 5f        	<unknown>
      38: 61 64        	<unknown>
      3a: 64 72        	<unknown>
      3c: 73 69 67 00  	csrrsi	s2, 6, 14
      40: 73 71 72 74  	csrrci	sp, mseccfg, 4
      44: 5f 64 61 74  	<unknown>
      48: 61 2e        	<unknown>
      4a: 63 00 2e 73  	beq	t3, s2, 0x76a <.strtab+0x76a>
      4e: 74 72        	<unknown>
      50: 74 61        	<unknown>
      52: 62 00        	<unknown>
      54: 2e 73        	<unknown>
      56: 79 6d        	<unknown>
      58: 74 61        	<unknown>
      5a: 62 00        	<unknown>
      5c: 5f 5f 72 73  	<unknown>
      60: 71 72        	<unknown>
      62: 74 5f        	<unknown>
      64: 74 61        	<unknown>
      66: 62 00        	<unknown>
      68: 2e 72        	<unknown>
      6a: 6f 64 61 74  	jal	s0, 0x167b0 <.strtab+0x167b0>
      6e: 61 00        	<unknown>

Disassembly of section .rodata:

00000000 <__rsqrt_tab>:
       0: 51 b4        	<unknown>
       2: f0 b2        	<unknown>
       4: 96 b1        	<unknown>
       6: 44 b0        	<unknown>
       8: f9 ae        	<unknown>
       a: b6 ad        	<unknown>
       c: 79 ac        	<unknown>
       e: 43 ab 14 aa  	fmadd.d	fs6, fs1, ft1, fs5, rdn
      12: eb a8 c8 a7  	<unknown>
      16: aa a6        	<unknown>
      18: 92 a5        	<unknown>
      1a: 80 a4        	<unknown>
      1c: 73 a3 6b a2  	csrrs	t1, 2598, s7
      20: 68 a1        	<unknown>
      22: 6a a0        	<unknown>
      24: 70 9f        	<unknown>
      26: 7b 9e 8a 9d  	<unknown>
      2a: 9d 9c        	<unknown>
      2c: b5 9b        	<unknown>
      2e: d1 9a        	<unknown>
      30: f0 99        	<unknown>
      32: 13 99 3a 98  	<unknown>
      36: 65 97        	<unknown>
      38: 93 96 c4 95  	<unknown>
      3c: f8 94        	<unknown>
      3e: 30 94        	<unknown>
      40: 6b 93 a9 92  	<unknown>
      44: ea 91        	<unknown>
      46: 2e 91        	<unknown>
      48: 75 90        	<unknown>
      4a: be 8f        	<unknown>
      4c: 0a 8f        	<unknown>
      4e: 59 8e        	<unknown>
      50: aa 8d        	<unknown>
      52: fe 8c        	<unknown>
      54: 54 8c        	<unknown>
      56: ac 8b        	<unknown>
      58: 07 8b 64 8a  	<unknown>
      5c: c4 89        	<unknown>
      5e: 25 89        	<unknown>
      60: 89 88        	<unknown>
      62: ee 87        	<unknown>
      64: 56 87        	<unknown>
      66: c0 86        	<unknown>
      68: 2b 86 99 85  	<unknown>
      6c: 08 85        	<unknown>
      6e: 79 84        	<unknown>
      70: ec 83        	<unknown>
      72: 61 83        	<unknown>
      74: d8 82        	<unknown>
      76: 50 82        	<unknown>
      78: c9 81        	<unknown>
      7a: 45 81        	<unknown>
      7c: c2 80        	<unknown>
      7e: 40 80        	<unknown>
      80: 02 ff        	<unknown>
      82: 0e fd        	<unknown>
      84: 25 fb        	<unknown>
      86: 47 f9 73 f7  	<unknown>
      8a: aa f5        	<unknown>
      8c: ea f3        	<unknown>
      8e: 34 f2        	<unknown>
      90: 87 f0 e3 ee  	<unknown>
      94: 47 ed b3 eb  	<unknown>
      98: 27 ea a3 e8  	<unknown>
      9c: 27 e7 b2 e5  	<unknown>
      a0: 43 e4 dc e2  	<unknown>
      a4: 7a e1        	<unknown>
      a6: 20 e0        	<unknown>
      a8: cb de 7d dd  	<unknown>
      ac: 34 dc        	<unknown>
      ae: f1 da        	<unknown>
      b0: b3 d9 7b d8  	<unknown>
      b4: 48 d7        	<unknown>
      b6: 1a d6        	<unknown>
      b8: f1 d4        	<unknown>
      ba: cd d3        	<unknown>
      bc: ad d2        	<unknown>
      be: 92 d1        	<unknown>
      c0: 7b d0 69 cf  	<unknown>
      c4: 5b ce 51 cd  	<unknown>
      c8: 4a cc        	<unknown>
      ca: 48 cb        	<unknown>
      cc: 4a ca        	<unknown>
      ce: 4f c9 58 c8  	fnmadd.s	fs2, fa7, ft5, fs9, rmm
      d2: 64 c7        	<unknown>
      d4: 74 c6        	<unknown>
      d6: 87 c5 9d c4  	<unknown>
      da: b7 c3 d4 c2  	lui	t2, 798028
      de: f4 c1        	<unknown>
      e0: 16 c1        	<unknown>
      e2: 3c c0        	<unknown>
      e4: 65 bf        	<unknown>
      e6: 90 be        	<unknown>
      e8: be bd        	<unknown>
      ea: ef bc 23 bc  	jal	s9, 0xfff3b4ac <__rsqrt_tab+0xfffffffffff3b4ac>
      ee: 59 bb        	<unknown>
      f0: 91 ba        	<unknown>
      f2: cc b9        	<unknown>
      f4: 0a b9        	<unknown>
      f6: 4a b8        	<unknown>
      f8: 8c b7        	<unknown>
      fa: d0 b6        	<unknown>
      fc: 17 b6 60 b5  	auipc	a2, 742923

Disassembly of section .comment:

00000000 <.comment>:
       0: 00 55        	<unknown>
       2: 62 75        	<unknown>
       4: 6e 74        	<unknown>
       6: 75 20        	<unknown>
       8: 63 6c 61 6e  	bltu	sp, t1, 0x700 <.comment+0x700>
       c: 67 20 76 65  	<unknown>
      10: 72 73        	<unknown>
      12: 69 6f        	<unknown>
      14: 6e 20        	<unknown>
      16: 31 37        	<unknown>
      18: 2e 30        	<unknown>
      1a: 2e 36        	<unknown>
      1c: 20 28        	<unknown>
      1e: 39 75        	<unknown>
      20: 62 75        	<unknown>
      22: 6e 74        	<unknown>
      24: 75 31        	<unknown>
      26: 29 00        	<unknown>

Disassembly of section .riscv.attributes:

00000000 <.riscv.attributes>:
       0: 41 3f        	<unknown>
       2: 00 00        	<unknown>
       4: 00 72        	<unknown>
       6: 69 73        	<unknown>
       8: 63 76 00 01  	bgeu	zero, a6, 0x14 <.riscv.attributes+0x14>
       c: 35 00        	<unknown>
       e: 00 00        	<unknown>
      10: 04 10        	<unknown>
      12: 05 72        	<unknown>
      14: 76 33        	<unknown>
      16: 32 69        	<unknown>
      18: 32 70        	<unknown>
      1a: 31 5f        	<unknown>
      1c: 6d 32        	<unknown>
      1e: 70 30        	<unknown>
      20: 5f 61 32 70  	<unknown>
      24: 31 5f        	<unknown>
      26: 66 32        	<unknown>
      28: 70 32        	<unknown>
      2a: 5f 64 32 70  	<unknown>
      2e: 32 5f        	<unknown>
      30: 7a 69        	<unknown>
      32: 63 73 72 32  	bgeu	tp, t2, 0x358 <.riscv.attributes+0x358>
      36: 70 30        	<unknown>
      38: 5f 7a 66 68  	<unknown>
      3c: 31 70        	<unknown>
      3e: 30 00        	<unknown>

Disassembly of section .symtab:

00000000 <.symtab>:
		...
      10: 40 00        	<unknown>
		...
      1a: 00 00        	<unknown>
      1c: 04 00        	<unknown>
      1e: f1 ff        	<unknown>
      20: 5c 00        	<unknown>
      22: 00 00        	<unknown>
      24: 00 00        	<unknown>
      26: 00 00        	<unknown>
      28: 00 01        	<unknown>
      2a: 00 00        	<unknown>
      2c: 11 02        	<unknown>
      2e: 03           	<unknown>
      2f: 00           	<unknown>

/workspaces/snax_cluster/target/snitch_cluster/sw/math/build/libmath.a(sqrtf.o):	file format elf32-littleriscv

Disassembly of section .strtab:

00000000 <.strtab>:
       0: 00 2e        	<unknown>
       2: 72 65        	<unknown>
       4: 6c 61        	<unknown>
       6: 2e 74        	<unknown>
       8: 65 78        	<unknown>
       a: 74 00        	<unknown>
       c: 2e 63        	<unknown>
       e: 6f 6d 6d 65  	jal	s10, 0xd6664 <.strtab+0xd6664>
      12: 6e 74        	<unknown>
      14: 00 2e        	<unknown>
      16: 72 69        	<unknown>
      18: 73 63 76 2e  	csrrsi	t1, 743, 12
      1c: 61 74        	<unknown>
      1e: 74 72        	<unknown>
      20: 69 62        	<unknown>
      22: 75 74        	<unknown>
      24: 65 73        	<unknown>
      26: 00 2e        	<unknown>
      28: 6e 6f        	<unknown>
      2a: 74 65        	<unknown>
      2c: 2e 47        	<unknown>
      2e: 4e 55        	<unknown>
      30: 2d 73        	<unknown>
      32: 74 61        	<unknown>
      34: 63 6b 00 2e  	bltu	zero, zero, 0x32a <.strtab+0x32a>
      38: 6c 6c        	<unknown>
      3a: 76 6d        	<unknown>
      3c: 5f 61 64 64  	<unknown>
      40: 72 73        	<unknown>
      42: 69 67        	<unknown>
      44: 00 73        	<unknown>
      46: 71 72        	<unknown>
      48: 74 66        	<unknown>
      4a: 00 5f        	<unknown>
      4c: 5f 6d 61 74  	<unknown>
      50: 68 5f        	<unknown>
      52: 69 6e        	<unknown>
      54: 76 61        	<unknown>
      56: 6c 69        	<unknown>
      58: 64 66        	<unknown>
      5a: 00 73        	<unknown>
      5c: 71 72        	<unknown>
      5e: 74 66        	<unknown>
      60: 2e 63        	<unknown>
      62: 00 2e        	<unknown>
      64: 73 74 72 74  	csrrci	s0, mseccfg, 4
      68: 61 62        	<unknown>
      6a: 00 2e        	<unknown>
      6c: 73 79 6d 74  	csrrci	s2, 1862, 26
      70: 61 62        	<unknown>
      72: 00 5f        	<unknown>
      74: 5f 72 73 71  	<unknown>
      78: 72 74        	<unknown>
      7a: 5f 74 61 62  	<unknown>
      7e: 00 2e        	<unknown>
      80: 4c 42        	<unknown>
      82: 42 30        	<unknown>
      84: 5f 39 00 2e  	<unknown>
      88: 4c 42        	<unknown>
      8a: 42 30        	<unknown>
      8c: 5f 38 00 2e  	<unknown>
      90: 4c 42        	<unknown>
      92: 42 30        	<unknown>
      94: 5f 33 00 2e  	<unknown>
      98: 4c 42        	<unknown>
      9a: 42 30        	<unknown>
      9c: 5f 32 00 2e  	<unknown>
      a0: 4c 42        	<unknown>
      a2: 42 30        	<unknown>
      a4: 5f 31 31 00  	<unknown>
      a8: 2e 4c        	<unknown>
      aa: 70 63        	<unknown>
      ac: 72 65        	<unknown>
      ae: 6c 5f        	<unknown>
      b0: 68 69        	<unknown>
      b2: 30 00        	<unknown>
      b4: 2e 4c        	<unknown>
      b6: 42 42        	<unknown>
      b8: 30 5f        	<unknown>
      ba: 31 30        	<unknown>
      bc: 00           	<unknown>

Disassembly of section .text:

00000000 <sqrtf>:
       0: 53 05 05 e0  	fmv.x.w	a0, fa0
       4: 13 05 05 00  	mv	a0, a0
       8: d3 05 05 e0  	fmv.x.w	a1, fa0
       c: 37 05 80 80  	lui	a0, 526336
      10: 33 85 a5 00  	add	a0, a1, a0
      14: 13 55 85 01  	srli	a0, a0, 24
      18: 13 06 00 08  	li	a2, 128
      1c: 63 70 a6 00  	bgeu	a2, a0, 0x1c <sqrtf+0x1c>
      20: 13 96 85 00  	slli	a2, a1, 8
      24: 37 05 00 80  	lui	a0, 524288
      28: 63 50 06 00  	bgez	a2, 0x28 <sqrtf+0x28>

0000002c <.LBB0_2>:
      2c: 13 56 16 00  	srli	a2, a2, 1
      30: 6f 00 00 00  	j	0x30 <.LBB0_2+0x4>

00000034 <.LBB0_3>:
      34: 37 05 00 80  	lui	a0, 524288
      38: 63 80 a5 00  	beq	a1, a0, 0x38 <.LBB0_3+0x4>
      3c: 63 80 05 00  	beqz	a1, 0x3c <.LBB0_3+0x8>
      40: 37 05 80 7f  	lui	a0, 522240
      44: 63 80 a5 00  	beq	a1, a0, 0x44 <.LBB0_3+0x10>
      48: 13 05 15 00  	addi	a0, a0, 1
      4c: 63 e0 a5 00  	bltu	a1, a0, 0x4c <.LBB0_3+0x18>
      50: 17 03 00 00  	auipc	t1, 0
      54: 67 00 03 00  	jr	t1

00000058 <.LBB0_8>:
      58: 37 05 00 4b  	lui	a0, 307200
      5c: d3 07 05 f0  	fmv.w.x	fa5, a0
      60: d3 77 f5 10  	fmul.s	fa5, fa0, fa5
      64: 53 05 05 e0  	fmv.x.w	a0, fa0
      68: 13 05 05 00  	mv	a0, a0
      6c: d3 85 07 e0  	fmv.x.w	a1, fa5
      70: 37 05 80 f4  	lui	a0, 1001472
      74: b3 85 a5 00  	add	a1, a1, a0
      78: 13 96 85 00  	slli	a2, a1, 8
      7c: 37 05 00 80  	lui	a0, 524288
      80: 63 40 06 00  	bltz	a2, 0x80 <.LBB0_8+0x28>

00000084 <.LBB0_9>:
      84: 33 66 a6 00  	or	a2, a2, a0

00000088 <.LBB0_10>:
      88: 93 d6 15 00  	srli	a3, a1, 1
      8c: 37 07 c0 1f  	lui	a4, 130048
      90: 93 d5 05 01  	srli	a1, a1, 16
      94: 93 f5 e5 0f  	andi	a1, a1, 254

00000098 <.Lpcrel_hi0>:
      98: 97 07 00 00  	auipc	a5, 0
      9c: 93 87 07 00  	mv	a5, a5
      a0: b3 85 b7 00  	add	a1, a5, a1
      a4: 83 95 05 00  	lh	a1, 0(a1)
      a8: b3 86 e6 00  	add	a3, a3, a4
      ac: 37 07 80 7f  	lui	a4, 522240
      b0: b3 f6 e6 00  	and	a3, a3, a4
      b4: 93 95 05 01  	slli	a1, a1, 16
      b8: 33 b7 c5 02  	mulhu	a4, a1, a2
      bc: b3 37 b7 02  	mulhu	a5, a4, a1
      c0: 37 08 00 c0  	lui	a6, 786432
      c4: b3 07 f8 40  	sub	a5, a6, a5
      c8: b3 b5 b7 02  	mulhu	a1, a5, a1
      cc: 93 95 15 00  	slli	a1, a1, 1
      d0: 33 37 f7 02  	mulhu	a4, a4, a5
      d4: 13 17 17 00  	slli	a4, a4, 1
      d8: b3 b5 e5 02  	mulhu	a1, a1, a4
      dc: b3 05 b8 40  	sub	a1, a6, a1
      e0: b3 35 b7 02  	mulhu	a1, a4, a1
      e4: 93 85 f5 ff  	addi	a1, a1, -1
      e8: 93 d5 65 00  	srli	a1, a1, 6
      ec: 13 16 06 01  	slli	a2, a2, 16
      f0: 33 87 b5 02  	mul	a4, a1, a1
      f4: 33 06 b6 40  	sub	a2, a2, a1
      f8: 33 07 c7 40  	sub	a4, a4, a2
      fc: 33 86 e5 00  	add	a2, a1, a4
     100: 13 06 16 00  	addi	a2, a2, 1
     104: b3 37 c0 00  	snez	a5, a2
     108: 13 58 f7 01  	srli	a6, a4, 31
     10c: b3 05 b8 00  	add	a1, a6, a1
     110: 93 95 95 00  	slli	a1, a1, 9
     114: 93 d5 95 00  	srli	a1, a1, 9
     118: b3 e5 d5 00  	or	a1, a1, a3
     11c: d3 06 05 e0  	fmv.x.w	a3, fa0
     120: 93 86 06 00  	mv	a3, a3
     124: d3 87 05 f0  	fmv.w.x	fa5, a1
     128: 93 97 87 01  	slli	a5, a5, 24
     12c: 33 46 e6 00  	xor	a2, a2, a4
     130: 33 75 a6 00  	and	a0, a2, a0
     134: d3 05 05 e0  	fmv.x.w	a1, fa0
     138: 93 85 05 00  	mv	a1, a1
     13c: 33 e5 a7 00  	or	a0, a5, a0
     140: 53 07 05 f0  	fmv.w.x	fa4, a0
     144: 53 f5 e7 00  	fadd.s	fa0, fa5, fa4

00000148 <.LBB0_11>:
     148: 67 80 00 00  	ret

Disassembly of section .rela.text:

00000000 <.rela.text>:
       0: 1c 00        	<unknown>
       2: 00 00        	<unknown>
       4: 10 02        	<unknown>
       6: 00 00        	<unknown>
       8: 00 00        	<unknown>
       a: 00 00        	<unknown>
       c: 28 00        	<unknown>
       e: 00 00        	<unknown>
      10: 10 03        	<unknown>
      12: 00 00        	<unknown>
      14: 00 00        	<unknown>
      16: 00 00        	<unknown>
      18: 30 00        	<unknown>
      1a: 00 00        	<unknown>
      1c: 11 05        	<unknown>
      1e: 00 00        	<unknown>
      20: 00 00        	<unknown>
      22: 00 00        	<unknown>
      24: 38 00        	<unknown>
      26: 00 00        	<unknown>
      28: 10 06        	<unknown>
      2a: 00 00        	<unknown>
      2c: 00 00        	<unknown>
      2e: 00 00        	<unknown>
      30: 3c 00        	<unknown>
      32: 00 00        	<unknown>
      34: 10 06        	<unknown>
      36: 00 00        	<unknown>
      38: 00 00        	<unknown>
      3a: 00 00        	<unknown>
      3c: 44 00        	<unknown>
      3e: 00 00        	<unknown>
      40: 10 06        	<unknown>
      42: 00 00        	<unknown>
      44: 00 00        	<unknown>
      46: 00 00        	<unknown>
      48: 4c 00        	<unknown>
      4a: 00 00        	<unknown>
      4c: 10 07        	<unknown>
      4e: 00 00        	<unknown>
      50: 00 00        	<unknown>
      52: 00 00        	<unknown>
      54: 50 00        	<unknown>
      56: 00 00        	<unknown>
      58: 13 0a 00 00  	li	s4, 0
      5c: 00 00        	<unknown>
      5e: 00 00        	<unknown>
      60: 50 00        	<unknown>
      62: 00 00        	<unknown>
      64: 33 00 00 00  	add	zero, zero, zero
      68: 00 00        	<unknown>
      6a: 00 00        	<unknown>
      6c: 80 00        	<unknown>
      6e: 00 00        	<unknown>
      70: 10 04        	<unknown>
      72: 00 00        	<unknown>
      74: 00 00        	<unknown>
      76: 00 00        	<unknown>
      78: 98 00        	<unknown>
      7a: 00 00        	<unknown>
      7c: 17 0b 00 00  	auipc	s6, 0
      80: 00 00        	<unknown>
      82: 00 00        	<unknown>
      84: 98 00        	<unknown>
      86: 00 00        	<unknown>
      88: 33 00 00 00  	add	zero, zero, zero
      8c: 00 00        	<unknown>
      8e: 00 00        	<unknown>
      90: 9c 00        	<unknown>
      92: 00 00        	<unknown>
      94: 18 08        	<unknown>
      96: 00 00        	<unknown>
      98: 00 00        	<unknown>
      9a: 00 00        	<unknown>
      9c: 9c 00        	<unknown>
      9e: 00 00        	<unknown>
      a0: 33 00 00 00  	add	zero, zero, zero
      a4: 00 00        	<unknown>
      a6: 00 00        	<unknown>

Disassembly of section .comment:

00000000 <.comment>:
       0: 00 55        	<unknown>
       2: 62 75        	<unknown>
       4: 6e 74        	<unknown>
       6: 75 20        	<unknown>
       8: 63 6c 61 6e  	bltu	sp, t1, 0x700 <.comment+0x700>
       c: 67 20 76 65  	<unknown>
      10: 72 73        	<unknown>
      12: 69 6f        	<unknown>
      14: 6e 20        	<unknown>
      16: 31 37        	<unknown>
      18: 2e 30        	<unknown>
      1a: 2e 36        	<unknown>
      1c: 20 28        	<unknown>
      1e: 39 75        	<unknown>
      20: 62 75        	<unknown>
      22: 6e 74        	<unknown>
      24: 75 31        	<unknown>
      26: 29 00        	<unknown>

Disassembly of section .riscv.attributes:

00000000 <.riscv.attributes>:
       0: 41 3f        	<unknown>
       2: 00 00        	<unknown>
       4: 00 72        	<unknown>
       6: 69 73        	<unknown>
       8: 63 76 00 01  	bgeu	zero, a6, 0x14 <.riscv.attributes+0x14>
       c: 35 00        	<unknown>
       e: 00 00        	<unknown>
      10: 04 10        	<unknown>
      12: 05 72        	<unknown>
      14: 76 33        	<unknown>
      16: 32 69        	<unknown>
      18: 32 70        	<unknown>
      1a: 31 5f        	<unknown>
      1c: 6d 32        	<unknown>
      1e: 70 30        	<unknown>
      20: 5f 61 32 70  	<unknown>
      24: 31 5f        	<unknown>
      26: 66 32        	<unknown>
      28: 70 32        	<unknown>
      2a: 5f 64 32 70  	<unknown>
      2e: 32 5f        	<unknown>
      30: 7a 69        	<unknown>
      32: 63 73 72 32  	bgeu	tp, t2, 0x358 <.riscv.attributes+0x358>
      36: 70 30        	<unknown>
      38: 5f 7a 66 68  	<unknown>
      3c: 31 70        	<unknown>
      3e: 30 00        	<unknown>

Disassembly of section .symtab:

00000000 <.symtab>:
		...
      10: 5b 00 00 00  	<unknown>
		...
      1c: 04 00        	<unknown>
      1e: f1 ff        	<unknown>
      20: 8f 00 00 00  	<unknown>
      24: 34 00        	<unknown>
		...
      2e: 02 00        	<unknown>
      30: 7f 00 00 00  	<unknown>
      34: 84 00        	<unknown>
		...
      3e: 02 00        	<unknown>
      40: 97 00 00 00  	auipc	ra, 0
      44: 2c 00        	<unknown>
		...
      4e: 02 00        	<unknown>
      50: b4 00        	<unknown>
      52: 00 00        	<unknown>
      54: 88 00        	<unknown>
		...
      5e: 02 00        	<unknown>
      60: 9f 00 00 00  	<unknown>
      64: 48 01        	<unknown>
		...
      6e: 02 00        	<unknown>
      70: 87 00 00 00  	<unknown>
      74: 58 00        	<unknown>
		...
      7e: 02 00        	<unknown>
      80: a8 00        	<unknown>
      82: 00 00        	<unknown>
      84: 98 00        	<unknown>
		...
      8e: 02 00        	<unknown>
      90: 45 00        	<unknown>
      92: 00 00        	<unknown>
      94: 00 00        	<unknown>
      96: 00 00        	<unknown>
      98: 4c 01        	<unknown>
      9a: 00 00        	<unknown>
      9c: 12 00        	<unknown>
      9e: 02 00        	<unknown>
      a0: 4b 00 00 00  	fnmsub.s	ft0, ft0, ft0, ft0, rne
		...
      ac: 10 02        	<unknown>
      ae: 00 00        	<unknown>
      b0: 73 00 00 00  	ecall
		...
      bc: 10 02        	<unknown>
      be: 00 00        	<unknown>

/workspaces/snax_cluster/target/snitch_cluster/sw/math/build/libmath.a(tanh.o):	file format elf32-littleriscv

Disassembly of section .strtab:

00000000 <.strtab>:
       0: 00 2e        	<unknown>
       2: 72 65        	<unknown>
       4: 6c 61        	<unknown>
       6: 2e 74        	<unknown>
       8: 65 78        	<unknown>
       a: 74 00        	<unknown>
       c: 2e 63        	<unknown>
       e: 6f 6d 6d 65  	jal	s10, 0xd6664 <.strtab+0xd6664>
      12: 6e 74        	<unknown>
      14: 00 2e        	<unknown>
      16: 72 69        	<unknown>
      18: 73 63 76 2e  	csrrsi	t1, 743, 12
      1c: 61 74        	<unknown>
      1e: 74 72        	<unknown>
      20: 69 62        	<unknown>
      22: 75 74        	<unknown>
      24: 65 73        	<unknown>
      26: 00 2e        	<unknown>
      28: 6e 6f        	<unknown>
      2a: 74 65        	<unknown>
      2c: 2e 47        	<unknown>
      2e: 4e 55        	<unknown>
      30: 2d 73        	<unknown>
      32: 74 61        	<unknown>
      34: 63 6b 00 74  	bltu	zero, zero, 0x78a <.strtab+0x78a>
      38: 61 6e        	<unknown>
      3a: 68 00        	<unknown>
      3c: 2e 6c        	<unknown>
      3e: 6c 76        	<unknown>
      40: 6d 5f        	<unknown>
      42: 61 64        	<unknown>
      44: 64 72        	<unknown>
      46: 73 69 67 00  	csrrsi	s2, 6, 14
      4a: 74 61        	<unknown>
      4c: 6e 68        	<unknown>
      4e: 2e 63        	<unknown>
      50: 00 2e        	<unknown>
      52: 73 74 72 74  	csrrci	s0, mseccfg, 4
      56: 61 62        	<unknown>
      58: 00 2e        	<unknown>
      5a: 73 79 6d 74  	csrrci	s2, 1862, 26
      5e: 61 62        	<unknown>
      60: 00 2e        	<unknown>
      62: 73 64 61 74  	csrrsi	s0, 1862, 2
      66: 61 00        	<unknown>
      68: 2e 4c        	<unknown>
      6a: 42 42        	<unknown>
      6c: 30 5f        	<unknown>
      6e: 39 00        	<unknown>
      70: 2e 4c        	<unknown>
      72: 42 42        	<unknown>
      74: 30 5f        	<unknown>
      76: 38 00        	<unknown>
      78: 2e 4c        	<unknown>
      7a: 42 42        	<unknown>
      7c: 30 5f        	<unknown>
      7e: 36 00        	<unknown>
      80: 2e 4c        	<unknown>
      82: 42 42        	<unknown>
      84: 30 5f        	<unknown>
      86: 35 00        	<unknown>
      88: 2e 4c        	<unknown>
      8a: 70 63        	<unknown>
      8c: 72 65        	<unknown>
      8e: 6c 5f        	<unknown>
      90: 68 69        	<unknown>
      92: 33 00 2e 4c  	<unknown>
      96: 42 42        	<unknown>
      98: 30 5f        	<unknown>
      9a: 33 00 2e 4c  	<unknown>
      9e: 70 63        	<unknown>
      a0: 72 65        	<unknown>
      a2: 6c 5f        	<unknown>
      a4: 68 69        	<unknown>
      a6: 32 00        	<unknown>
      a8: 2e 4c        	<unknown>
      aa: 43 50 49 30  	<unknown>
      ae: 5f 32 00 65  	<unknown>
      b2: 78 70        	<unknown>
      b4: 6d 31        	<unknown>
      b6: 00 2e        	<unknown>
      b8: 4c 70        	<unknown>
      ba: 63 72 65 6c  	bgeu	a0, t1, 0x77e <.strtab+0x77e>
      be: 5f 68 69 31  	<unknown>
      c2: 00 2e        	<unknown>
      c4: 4c 43        	<unknown>
      c6: 50 49        	<unknown>
      c8: 30 5f        	<unknown>
      ca: 31 00        	<unknown>
      cc: 2e 4c        	<unknown>
      ce: 70 63        	<unknown>
      d0: 72 65        	<unknown>
      d2: 6c 5f        	<unknown>
      d4: 68 69        	<unknown>
      d6: 30 00        	<unknown>
      d8: 2e 4c        	<unknown>
      da: 43 50 49 30  	<unknown>
      de: 5f 30 00 2e  	<unknown>
      e2: 4c 42        	<unknown>
      e4: 42 30        	<unknown>
      e6: 5f 31 30 00  	<unknown>

Disassembly of section .text:

00000000 <tanh>:
       0: 13 01 01 fd  	addi	sp, sp, -48
       4: 23 26 11 02  	sw	ra, 44(sp)
       8: 23 24 81 02  	sw	s0, 40(sp)
       c: 23 22 91 02  	sw	s1, 36(sp)
      10: 27 3c 81 00  	fsd	fs0, 24(sp)
      14: 27 34 a1 00  	fsd	fa0, 8(sp)
      18: 13 05 01 01  	addi	a0, sp, 16
      1c: 27 30 a5 00  	fsd	fa0, 0(a0)
      20: 87 31 05 00  	fld	ft3, 0(a0)
      24: d3 82 01 e0  	fmv.x.w	t0, ft3
      28: 93 82 02 00  	mv	t0, t0
      2c: 03 24 45 00  	lw	s0, 4(a0)
      30: 13 15 14 00  	slli	a0, s0, 1
      34: 13 55 15 00  	srli	a0, a0, 1
      38: 93 05 81 00  	addi	a1, sp, 8
      3c: 23 a2 a5 00  	sw	a0, 4(a1)
      40: 03 a5 45 00  	lw	a0, 4(a1)
      44: d3 01 05 f0  	fmv.w.x	ft3, a0
      48: b7 95 e1 3f  	lui	a1, 261657
      4c: 93 85 b5 3e  	addi	a1, a1, 1003
      50: 63 60 b5 00  	bltu	a0, a1, 0x50 <tanh+0x50>
      54: b7 05 34 40  	lui	a1, 262976

00000058 <.Lpcrel_hi0>:
      58: 97 04 00 00  	auipc	s1, 0
      5c: 63 f0 a5 00  	bgeu	a1, a0, 0x5c <.Lpcrel_hi0+0x4>
      60: 07 b5 04 00  	fld	fa0, 0(s1)
      64: 63 40 04 00  	bltz	s0, 0x64 <.Lpcrel_hi0+0xc>
      68: 6f 00 00 00  	j	0x68 <.Lpcrel_hi0+0x10>

0000006c <.LBB0_3>:
      6c: b7 65 d0 3f  	lui	a1, 261382
      70: 93 85 f5 8a  	addi	a1, a1, -1873
      74: 63 60 b5 00  	bltu	a0, a1, 0x74 <.LBB0_3+0x8>
      78: 87 37 81 00  	fld	fa5, 8(sp)
      7c: 53 f5 f7 02  	fadd.d	fa0, fa5, fa5
      80: 97 00 00 00  	auipc	ra, 0
      84: e7 80 00 00  	jalr	ra

00000088 <.Lpcrel_hi2>:
      88: 17 05 00 00  	auipc	a0, 0
      8c: 87 37 05 00  	fld	fa5, 0(a0)
      90: d3 77 f5 02  	fadd.d	fa5, fa0, fa5
      94: 53 75 f5 1a  	fdiv.d	fa0, fa0, fa5
      98: 63 40 04 00  	bltz	s0, 0x98 <.Lpcrel_hi2+0x10>
      9c: 6f 00 00 00  	j	0x9c <.Lpcrel_hi2+0x14>

000000a0 <.LBB0_5>:
      a0: 87 37 81 00  	fld	fa5, 8(sp)
      a4: 53 f5 f7 02  	fadd.d	fa0, fa5, fa5
      a8: 97 00 00 00  	auipc	ra, 0
      ac: e7 80 00 00  	jalr	ra

000000b0 <.Lpcrel_hi1>:
      b0: 17 05 00 00  	auipc	a0, 0
      b4: 87 37 05 00  	fld	fa5, 0(a0)
      b8: 07 b7 04 00  	fld	fa4, 0(s1)
      bc: d3 76 f5 02  	fadd.d	fa3, fa0, fa5
      c0: d3 f7 d7 1a  	fdiv.d	fa5, fa5, fa3
      c4: 53 75 f7 0a  	fsub.d	fa0, fa4, fa5
      c8: 63 40 04 00  	bltz	s0, 0xc8 <.Lpcrel_hi1+0x18>
      cc: 6f 00 00 00  	j	0xcc <.Lpcrel_hi1+0x1c>

000000d0 <.LBB0_6>:
      d0: 07 35 81 00  	fld	fa0, 8(sp)
      d4: 13 55 45 01  	srli	a0, a0, 20
      d8: 63 00 05 00  	beqz	a0, 0xd8 <.LBB0_6+0x8>

000000dc <.Lpcrel_hi3>:
      dc: 17 05 00 00  	auipc	a0, 0
      e0: 07 34 05 00  	fld	fs0, 0(a0)
      e4: 53 75 85 12  	fmul.d	fa0, fa0, fs0
      e8: 97 00 00 00  	auipc	ra, 0
      ec: e7 80 00 00  	jalr	ra
      f0: d3 77 a4 0a  	fsub.d	fa5, fs0, fa0
      f4: 53 75 f5 1a  	fdiv.d	fa0, fa0, fa5
      f8: 63 40 04 00  	bltz	s0, 0xf8 <.Lpcrel_hi3+0x1c>
      fc: 6f 00 00 00  	j	0xfc <.Lpcrel_hi3+0x20>

00000100 <.LBB0_8>:
     100: d3 77 15 40  	fcvt.s.d	fa5, fa0
     104: 27 28 f1 00  	fsw	fa5, 16(sp)
     108: 63 50 04 00  	bgez	s0, 0x108 <.LBB0_8+0x8>

0000010c <.LBB0_9>:
     10c: 53 15 a5 22  	fneg.d	fa0, fa0

00000110 <.LBB0_10>:
     110: 83 20 c1 02  	lw	ra, 44(sp)
     114: 03 24 81 02  	lw	s0, 40(sp)
     118: 83 24 41 02  	lw	s1, 36(sp)
     11c: 07 34 81 01  	fld	fs0, 24(sp)
     120: 13 01 01 03  	addi	sp, sp, 48
     124: 67 80 00 00  	ret

Disassembly of section .rela.text:

00000000 <.rela.text>:
       0: 50 00        	<unknown>
       2: 00 00        	<unknown>
       4: 10 05        	<unknown>
       6: 00 00        	<unknown>
       8: 00 00        	<unknown>
       a: 00 00        	<unknown>
       c: 58 00        	<unknown>
       e: 00 00        	<unknown>
      10: 17 04 00 00  	auipc	s0, 0
      14: 00 00        	<unknown>
      16: 00 00        	<unknown>
      18: 58 00        	<unknown>
      1a: 00 00        	<unknown>
      1c: 33 00 00 00  	add	zero, zero, zero
      20: 00 00        	<unknown>
      22: 00 00        	<unknown>
      24: 5c 00        	<unknown>
      26: 00 00        	<unknown>
      28: 10 07        	<unknown>
      2a: 00 00        	<unknown>
      2c: 00 00        	<unknown>
      2e: 00 00        	<unknown>
      30: 60 00        	<unknown>
      32: 00 00        	<unknown>
      34: 18 06        	<unknown>
      36: 00 00        	<unknown>
      38: 00 00        	<unknown>
      3a: 00 00        	<unknown>
      3c: 60 00        	<unknown>
      3e: 00 00        	<unknown>
      40: 33 00 00 00  	add	zero, zero, zero
      44: 00 00        	<unknown>
      46: 00 00        	<unknown>
      48: 64 00        	<unknown>
      4a: 00 00        	<unknown>
      4c: 10 08        	<unknown>
      4e: 00 00        	<unknown>
      50: 00 00        	<unknown>
      52: 00 00        	<unknown>
      54: 68 00        	<unknown>
      56: 00 00        	<unknown>
      58: 11 09        	<unknown>
      5a: 00 00        	<unknown>
      5c: 00 00        	<unknown>
      5e: 00 00        	<unknown>
      60: 74 00        	<unknown>
      62: 00 00        	<unknown>
      64: 10 0a        	<unknown>
      66: 00 00        	<unknown>
      68: 00 00        	<unknown>
      6a: 00 00        	<unknown>
      6c: 80 00        	<unknown>
      6e: 00 00        	<unknown>
      70: 13 10 00 00  	slli	zero, zero, 0
      74: 00 00        	<unknown>
      76: 00 00        	<unknown>
      78: 80 00        	<unknown>
      7a: 00 00        	<unknown>
      7c: 33 00 00 00  	add	zero, zero, zero
      80: 00 00        	<unknown>
      82: 00 00        	<unknown>
      84: 88 00        	<unknown>
      86: 00 00        	<unknown>
      88: 17 03 00 00  	auipc	t1, 0
      8c: 00 00        	<unknown>
      8e: 00 00        	<unknown>
      90: 88 00        	<unknown>
      92: 00 00        	<unknown>
      94: 33 00 00 00  	add	zero, zero, zero
      98: 00 00        	<unknown>
      9a: 00 00        	<unknown>
      9c: 8c 00        	<unknown>
      9e: 00 00        	<unknown>
      a0: 18 0b        	<unknown>
      a2: 00 00        	<unknown>
      a4: 00 00        	<unknown>
      a6: 00 00        	<unknown>
      a8: 8c 00        	<unknown>
      aa: 00 00        	<unknown>
      ac: 33 00 00 00  	add	zero, zero, zero
      b0: 00 00        	<unknown>
      b2: 00 00        	<unknown>
      b4: 98 00        	<unknown>
      b6: 00 00        	<unknown>
      b8: 10 08        	<unknown>
      ba: 00 00        	<unknown>
      bc: 00 00        	<unknown>
      be: 00 00        	<unknown>
      c0: 9c 00        	<unknown>
      c2: 00 00        	<unknown>
      c4: 11 09        	<unknown>
      c6: 00 00        	<unknown>
      c8: 00 00        	<unknown>
      ca: 00 00        	<unknown>
      cc: a8 00        	<unknown>
      ce: 00 00        	<unknown>
      d0: 13 10 00 00  	slli	zero, zero, 0
      d4: 00 00        	<unknown>
      d6: 00 00        	<unknown>
      d8: a8 00        	<unknown>
      da: 00 00        	<unknown>
      dc: 33 00 00 00  	add	zero, zero, zero
      e0: 00 00        	<unknown>
      e2: 00 00        	<unknown>
      e4: b0 00        	<unknown>
      e6: 00 00        	<unknown>
      e8: 17 03 00 00  	auipc	t1, 0
      ec: 00 00        	<unknown>
      ee: 00 00        	<unknown>
      f0: b0 00        	<unknown>
      f2: 00 00        	<unknown>
      f4: 33 00 00 00  	add	zero, zero, zero
      f8: 00 00        	<unknown>
      fa: 00 00        	<unknown>
      fc: b4 00        	<unknown>
      fe: 00 00        	<unknown>
     100: 18 0c        	<unknown>
     102: 00 00        	<unknown>
     104: 00 00        	<unknown>
     106: 00 00        	<unknown>
     108: b4 00        	<unknown>
     10a: 00 00        	<unknown>
     10c: 33 00 00 00  	add	zero, zero, zero
     110: 00 00        	<unknown>
     112: 00 00        	<unknown>
     114: b8 00        	<unknown>
     116: 00 00        	<unknown>
     118: 18 06        	<unknown>
     11a: 00 00        	<unknown>
     11c: 00 00        	<unknown>
     11e: 00 00        	<unknown>
     120: b8 00        	<unknown>
     122: 00 00        	<unknown>
     124: 33 00 00 00  	add	zero, zero, zero
     128: 00 00        	<unknown>
     12a: 00 00        	<unknown>
     12c: c8 00        	<unknown>
     12e: 00 00        	<unknown>
     130: 10 08        	<unknown>
     132: 00 00        	<unknown>
     134: 00 00        	<unknown>
     136: 00 00        	<unknown>
     138: cc 00        	<unknown>
     13a: 00 00        	<unknown>
     13c: 11 09        	<unknown>
     13e: 00 00        	<unknown>
     140: 00 00        	<unknown>
     142: 00 00        	<unknown>
     144: d8 00        	<unknown>
     146: 00 00        	<unknown>
     148: 10 0d        	<unknown>
     14a: 00 00        	<unknown>
     14c: 00 00        	<unknown>
     14e: 00 00        	<unknown>
     150: dc 00        	<unknown>
     152: 00 00        	<unknown>
     154: 17 02 00 00  	auipc	tp, 0
     158: 00 00        	<unknown>
     15a: 00 00        	<unknown>
     15c: dc 00        	<unknown>
     15e: 00 00        	<unknown>
     160: 33 00 00 00  	add	zero, zero, zero
     164: 00 00        	<unknown>
     166: 00 00        	<unknown>
     168: e0 00        	<unknown>
     16a: 00 00        	<unknown>
     16c: 18 0e        	<unknown>
     16e: 00 00        	<unknown>
     170: 00 00        	<unknown>
     172: 00 00        	<unknown>
     174: e0 00        	<unknown>
     176: 00 00        	<unknown>
     178: 33 00 00 00  	add	zero, zero, zero
     17c: 00 00        	<unknown>
     17e: 00 00        	<unknown>
     180: e8 00        	<unknown>
     182: 00 00        	<unknown>
     184: 13 10 00 00  	slli	zero, zero, 0
     188: 00 00        	<unknown>
     18a: 00 00        	<unknown>
     18c: e8 00        	<unknown>
     18e: 00 00        	<unknown>
     190: 33 00 00 00  	add	zero, zero, zero
     194: 00 00        	<unknown>
     196: 00 00        	<unknown>
     198: f8 00        	<unknown>
     19a: 00 00        	<unknown>
     19c: 10 08        	<unknown>
     19e: 00 00        	<unknown>
     1a0: 00 00        	<unknown>
     1a2: 00 00        	<unknown>
     1a4: fc 00        	<unknown>
     1a6: 00 00        	<unknown>
     1a8: 11 09        	<unknown>
     1aa: 00 00        	<unknown>
     1ac: 00 00        	<unknown>
     1ae: 00 00        	<unknown>
     1b0: 08 01        	<unknown>
     1b2: 00 00        	<unknown>
     1b4: 10 09        	<unknown>
     1b6: 00 00        	<unknown>
     1b8: 00 00        	<unknown>
     1ba: 00 00        	<unknown>

Disassembly of section .sdata:

00000000 <.LCPI0_0>:
       0: 00 00        	<unknown>
       2: 00 00        	<unknown>
       4: 00 00        	<unknown>
       6: 00 c0        	<unknown>

00000008 <.LCPI0_1>:
       8: 00 00        	<unknown>
       a: 00 00        	<unknown>
       c: 00 00        	<unknown>
       e: 00 40        	<unknown>

00000010 <.LCPI0_2>:
      10: 00 00        	<unknown>
      12: 00 00        	<unknown>
      14: 00 00        	<unknown>
      16: f0 3f        	<unknown>

Disassembly of section .comment:

00000000 <.comment>:
       0: 00 55        	<unknown>
       2: 62 75        	<unknown>
       4: 6e 74        	<unknown>
       6: 75 20        	<unknown>
       8: 63 6c 61 6e  	bltu	sp, t1, 0x700 <.comment+0x700>
       c: 67 20 76 65  	<unknown>
      10: 72 73        	<unknown>
      12: 69 6f        	<unknown>
      14: 6e 20        	<unknown>
      16: 31 37        	<unknown>
      18: 2e 30        	<unknown>
      1a: 2e 36        	<unknown>
      1c: 20 28        	<unknown>
      1e: 39 75        	<unknown>
      20: 62 75        	<unknown>
      22: 6e 74        	<unknown>
      24: 75 31        	<unknown>
      26: 29 00        	<unknown>

Disassembly of section .riscv.attributes:

00000000 <.riscv.attributes>:
       0: 41 3f        	<unknown>
       2: 00 00        	<unknown>
       4: 00 72        	<unknown>
       6: 69 73        	<unknown>
       8: 63 76 00 01  	bgeu	zero, a6, 0x14 <.riscv.attributes+0x14>
       c: 35 00        	<unknown>
       e: 00 00        	<unknown>
      10: 04 10        	<unknown>
      12: 05 72        	<unknown>
      14: 76 33        	<unknown>
      16: 32 69        	<unknown>
      18: 32 70        	<unknown>
      1a: 31 5f        	<unknown>
      1c: 6d 32        	<unknown>
      1e: 70 30        	<unknown>
      20: 5f 61 32 70  	<unknown>
      24: 31 5f        	<unknown>
      26: 66 32        	<unknown>
      28: 70 32        	<unknown>
      2a: 5f 64 32 70  	<unknown>
      2e: 32 5f        	<unknown>
      30: 7a 69        	<unknown>
      32: 63 73 72 32  	bgeu	tp, t2, 0x358 <.riscv.attributes+0x358>
      36: 70 30        	<unknown>
      38: 5f 7a 66 68  	<unknown>
      3c: 31 70        	<unknown>
      3e: 30 00        	<unknown>

Disassembly of section .symtab:

00000000 <.symtab>:
		...
      10: 4a 00        	<unknown>
		...
      1a: 00 00        	<unknown>
      1c: 04 00        	<unknown>
      1e: f1 ff        	<unknown>
      20: d8 00        	<unknown>
		...
      2e: 04 00        	<unknown>
      30: c3 00 00 00  	fmadd.s	ft1, ft0, ft0, ft0, rne
      34: 08 00        	<unknown>
		...
      3e: 04 00        	<unknown>
      40: a8 00        	<unknown>
      42: 00 00        	<unknown>
      44: 10 00        	<unknown>
		...
      4e: 04 00        	<unknown>
      50: 94 00        	<unknown>
      52: 00 00        	<unknown>
      54: 6c 00        	<unknown>
		...
      5e: 02 00        	<unknown>
      60: cc 00        	<unknown>
      62: 00 00        	<unknown>
      64: 58 00        	<unknown>
		...
      6e: 02 00        	<unknown>
      70: 80 00        	<unknown>
      72: 00 00        	<unknown>
      74: a0 00        	<unknown>
		...
      7e: 02 00        	<unknown>
      80: 68 00        	<unknown>
      82: 00 00        	<unknown>
      84: 0c 01        	<unknown>
		...
      8e: 02 00        	<unknown>
      90: e1 00        	<unknown>
      92: 00 00        	<unknown>
      94: 10 01        	<unknown>
		...
      9e: 02 00        	<unknown>
      a0: 78 00        	<unknown>
      a2: 00 00        	<unknown>
      a4: d0 00        	<unknown>
		...
      ae: 02 00        	<unknown>
      b0: 9c 00        	<unknown>
      b2: 00 00        	<unknown>
      b4: 88 00        	<unknown>
		...
      be: 02 00        	<unknown>
      c0: b7 00 00 00  	lui	ra, 0
      c4: b0 00        	<unknown>
		...
      ce: 02 00        	<unknown>
      d0: 70 00        	<unknown>
      d2: 00 00        	<unknown>
      d4: 00 01        	<unknown>
		...
      de: 02 00        	<unknown>
      e0: 88 00        	<unknown>
      e2: 00 00        	<unknown>
      e4: dc 00        	<unknown>
		...
      ee: 02 00        	<unknown>
      f0: 37 00 00 00  	lui	zero, 0
      f4: 00 00        	<unknown>
      f6: 00 00        	<unknown>
      f8: 28 01        	<unknown>
      fa: 00 00        	<unknown>
      fc: 12 00        	<unknown>
      fe: 02 00        	<unknown>
     100: b1 00        	<unknown>
		...
     10a: 00 00        	<unknown>
     10c: 10 00        	<unknown>
     10e: 00 00        	<unknown>
