
/workspaces/snax_cluster/target/snitch_cluster/sw/runtime/rtl-generic/build/libsnRuntime.a(snitch_cluster_start.o):	file format elf32-littleriscv

Disassembly of section .strtab:

00000000 <.strtab>:
       0: 00 2e        	<unknown>
       2: 74 65        	<unknown>
       4: 78 74        	<unknown>
       6: 00 74        	<unknown>
       8: 6f 68 6f 73  	jal	a6, 0xf673e <.strtab+0xf673e>
       c: 74 00        	<unknown>
       e: 66 72        	<unknown>
      10: 6f 6d 68 6f  	jal	s10, 0x86706 <.strtab+0x86706>
      14: 73 74 00 5f  	csrrci	s0, 1520, 0
      18: 5f 74 62 73  	<unknown>
      1c: 73 5f 73 74  	csrrwi	t5, mseccfg, 6
      20: 61 72        	<unknown>
      22: 74 00        	<unknown>
      24: 5f 5f 63 62  	<unknown>
      28: 73 73 5f 73  	csrrci	t1, mhpmevent21h, 30
      2c: 74 61        	<unknown>
      2e: 72 74        	<unknown>
      30: 00 5f        	<unknown>
      32: 5f 74 64 61  	<unknown>
      36: 74 61        	<unknown>
      38: 5f 73 74 61  	<unknown>
      3c: 72 74        	<unknown>
      3e: 00 5f        	<unknown>
      40: 5f 63 64 61  	<unknown>
      44: 74 61        	<unknown>
      46: 5f 73 74 61  	<unknown>
      4a: 72 74        	<unknown>
      4c: 00 2e        	<unknown>
      4e: 72 65        	<unknown>
      50: 6c 61        	<unknown>
      52: 2e 69        	<unknown>
      54: 6e 69        	<unknown>
      56: 74 00        	<unknown>
      58: 73 6e 72 74  	csrrsi	t3, mseccfg, 4
      5c: 2e 63        	<unknown>
      5e: 72 74        	<unknown>
      60: 30 2e        	<unknown>
      62: 69 6e        	<unknown>
      64: 69 74        	<unknown>
      66: 5f 69 6e 74  	<unknown>
      6a: 5f 72 65 67  	<unknown>
      6e: 69 73        	<unknown>
      70: 74 65        	<unknown>
      72: 72 73        	<unknown>
      74: 00 73        	<unknown>
      76: 6e 72        	<unknown>
      78: 74 2e        	<unknown>
      7a: 63 72 74 30  	bgeu	s0, t2, 0x37e <.strtab+0x37e>
      7e: 2e 69        	<unknown>
      80: 6e 69        	<unknown>
      82: 74 5f        	<unknown>
      84: 66 70        	<unknown>
      86: 5f 72 65 67  	<unknown>
      8a: 69 73        	<unknown>
      8c: 74 65        	<unknown>
      8e: 72 73        	<unknown>
      90: 00 73        	<unknown>
      92: 6e 72        	<unknown>
      94: 74 2e        	<unknown>
      96: 63 72 74 30  	bgeu	s0, t2, 0x39a <.strtab+0x39a>
      9a: 2e 69        	<unknown>
      9c: 6e 69        	<unknown>
      9e: 74 5f        	<unknown>
      a0: 74 6c        	<unknown>
      a2: 73 00 73 6e  	<unknown>
      a6: 72 74        	<unknown>
      a8: 2e 63        	<unknown>
      aa: 72 74        	<unknown>
      ac: 30 2e        	<unknown>
      ae: 69 6e        	<unknown>
      b0: 69 74        	<unknown>
      b2: 5f 63 6c 73  	<unknown>
      b6: 00 2e        	<unknown>
      b8: 72 69        	<unknown>
      ba: 73 63 76 2e  	csrrsi	t1, 743, 12
      be: 61 74        	<unknown>
      c0: 74 72        	<unknown>
      c2: 69 62        	<unknown>
      c4: 75 74        	<unknown>
      c6: 65 73        	<unknown>
      c8: 00 73        	<unknown>
      ca: 6e 72        	<unknown>
      cc: 74 2e        	<unknown>
      ce: 63 72 74 30  	bgeu	s0, t2, 0x3d2 <.strtab+0x3d2>
      d2: 2e 69        	<unknown>
      d4: 6e 69        	<unknown>
      d6: 74 5f        	<unknown>
      d8: 67 6c 6f 62  	<unknown>
      dc: 61 6c        	<unknown>
      de: 5f 70 6f 69  	<unknown>
      e2: 6e 74        	<unknown>
      e4: 65 72        	<unknown>
      e6: 00 73        	<unknown>
      e8: 6e 72        	<unknown>
      ea: 74 2e        	<unknown>
      ec: 63 72 74 30  	bgeu	s0, t2, 0x3f0 <.strtab+0x3f0>
      f0: 2e 69        	<unknown>
      f2: 6e 69        	<unknown>
      f4: 74 5f        	<unknown>
      f6: 63 6f 72 65  	bltu	tp, s7, 0x754 <.strtab+0x754>
      fa: 5f 69 6e 66  	<unknown>
      fe: 6f 00 73 6e  	j	0x30fe4 <.strtab+0x30fe4>
     102: 72 74        	<unknown>
     104: 5f 6d 61 69  	<unknown>
     108: 6e 00        	<unknown>
     10a: 73 6e 72 74  	csrrsi	t3, mseccfg, 4
     10e: 2e 63        	<unknown>
     110: 72 74        	<unknown>
     112: 30 2e        	<unknown>
     114: 6d 61        	<unknown>
     116: 69 6e        	<unknown>
     118: 00 73        	<unknown>
     11a: 6e 72        	<unknown>
     11c: 74 2e        	<unknown>
     11e: 63 72 74 30  	bgeu	s0, t2, 0x422 <.strtab+0x422>
     122: 2e 69        	<unknown>
     124: 6e 69        	<unknown>
     126: 74 5f        	<unknown>
     128: 73 74 61 63  	csrrci	s0, 1590, 2
     12c: 6b 00 2e 68  	<unknown>
     130: 74 69        	<unknown>
     132: 66 00        	<unknown>
     134: 5f 5f 74 62  	<unknown>
     138: 73 73 5f 65  	csrrci	t1, hviph, 30
     13c: 6e 64        	<unknown>
     13e: 00 5f        	<unknown>
     140: 5f 63 62 73  	<unknown>
     144: 73 5f 65 6e  	csrrwi	t5, 1766, 10
     148: 64 00        	<unknown>
     14a: 5f 5f 74 64  	<unknown>
     14e: 61 74        	<unknown>
     150: 61 5f        	<unknown>
     152: 65 6e        	<unknown>
     154: 64 00        	<unknown>
     156: 5f 5f 63 64  	<unknown>
     15a: 61 74        	<unknown>
     15c: 61 5f        	<unknown>
     15e: 65 6e        	<unknown>
     160: 64 00        	<unknown>
     162: 73 6e 72 74  	csrrsi	t3, mseccfg, 4
     166: 2e 63        	<unknown>
     168: 72 74        	<unknown>
     16a: 30 2e        	<unknown>
     16c: 65 6e        	<unknown>
     16e: 64 00        	<unknown>
     170: 2e 73        	<unknown>
     172: 74 72        	<unknown>
     174: 74 61        	<unknown>
     176: 62 00        	<unknown>
     178: 2e 73        	<unknown>
     17a: 79 6d        	<unknown>
     17c: 74 61        	<unknown>
     17e: 62 00        	<unknown>
     180: 2e 4c        	<unknown>
     182: 70 63        	<unknown>
     184: 72 65        	<unknown>
     186: 6c 5f        	<unknown>
     188: 68 69        	<unknown>
     18a: 37 00 2e 4c  	lui	zero, 312032
     18e: 70 63        	<unknown>
     190: 72 65        	<unknown>
     192: 6c 5f        	<unknown>
     194: 68 69        	<unknown>
     196: 36 00        	<unknown>
     198: 2e 4c        	<unknown>
     19a: 70 63        	<unknown>
     19c: 72 65        	<unknown>
     19e: 6c 5f        	<unknown>
     1a0: 68 69        	<unknown>
     1a2: 35 00        	<unknown>
     1a4: 2e 4c        	<unknown>
     1a6: 70 63        	<unknown>
     1a8: 72 65        	<unknown>
     1aa: 6c 5f        	<unknown>
     1ac: 68 69        	<unknown>
     1ae: 34 00        	<unknown>
     1b0: 2e 4c        	<unknown>
     1b2: 70 63        	<unknown>
     1b4: 72 65        	<unknown>
     1b6: 6c 5f        	<unknown>
     1b8: 68 69        	<unknown>
     1ba: 33 00 2e 4c  	<unknown>
     1be: 74 6d        	<unknown>
     1c0: 70 32        	<unknown>
     1c2: 00 2e        	<unknown>
     1c4: 4c 70        	<unknown>
     1c6: 63 72 65 6c  	bgeu	a0, t1, 0x88a <.strtab+0x88a>
     1ca: 5f 68 69 32  	<unknown>
     1ce: 00 2e        	<unknown>
     1d0: 4c 74        	<unknown>
     1d2: 6d 70        	<unknown>
     1d4: 31 00        	<unknown>
     1d6: 2e 4c        	<unknown>
     1d8: 70 63        	<unknown>
     1da: 72 65        	<unknown>
     1dc: 6c 5f        	<unknown>
     1de: 68 69        	<unknown>
     1e0: 31 00        	<unknown>
     1e2: 2e 4c        	<unknown>
     1e4: 74 6d        	<unknown>
     1e6: 70 30        	<unknown>
     1e8: 00 2e        	<unknown>
     1ea: 4c 70        	<unknown>
     1ec: 63 72 65 6c  	bgeu	a0, t1, 0x8b0 <.strtab+0x8b0>
     1f0: 5f 68 69 30  	<unknown>
     1f4: 00 5f        	<unknown>
     1f6: 5f 67 6c 6f  	<unknown>
     1fa: 62 61        	<unknown>
     1fc: 6c 5f        	<unknown>
     1fe: 70 6f        	<unknown>
     200: 69 6e        	<unknown>
     202: 74 65        	<unknown>
     204: 72 24        	<unknown>
     206: 00           	<unknown>

Disassembly of section .init:

00000000 <snrt.crt0.init_int_registers>:
       0: 93 02 00 00  	li	t0, 0
       4: 13 03 00 00  	li	t1, 0
       8: 93 03 00 00  	li	t2, 0
       c: 13 0e 00 00  	li	t3, 0
      10: 93 0e 00 00  	li	t4, 0
      14: 13 0f 00 00  	li	t5, 0
      18: 93 0f 00 00  	li	t6, 0
      1c: 13 05 00 00  	li	a0, 0
      20: 93 05 00 00  	li	a1, 0
      24: 13 06 00 00  	li	a2, 0
      28: 93 06 00 00  	li	a3, 0
      2c: 13 07 00 00  	li	a4, 0
      30: 93 07 00 00  	li	a5, 0
      34: 13 08 00 00  	li	a6, 0
      38: 93 08 00 00  	li	a7, 0
      3c: 13 04 00 00  	li	s0, 0
      40: 93 04 00 00  	li	s1, 0
      44: 13 09 00 00  	li	s2, 0
      48: 93 09 00 00  	li	s3, 0
      4c: 13 0a 00 00  	li	s4, 0
      50: 93 0a 00 00  	li	s5, 0
      54: 13 0b 00 00  	li	s6, 0
      58: 93 0b 00 00  	li	s7, 0
      5c: 13 0c 00 00  	li	s8, 0
      60: 93 0c 00 00  	li	s9, 0
      64: 13 0d 00 00  	li	s10, 0
      68: 93 0d 00 00  	li	s11, 0

0000006c <snrt.crt0.init_fp_registers>:
      6c: f3 22 10 30  	csrr	t0, misa
      70: 93 f2 82 02  	andi	t0, t0, 40
      74: 63 80 02 00  	beqz	t0, 0x74 <snrt.crt0.init_fp_registers+0x8>
      78: 53 00 00 d2  	fcvt.d.w	ft0, zero
      7c: d3 00 00 d2  	fcvt.d.w	ft1, zero
      80: 53 01 00 d2  	fcvt.d.w	ft2, zero
      84: d3 01 00 d2  	fcvt.d.w	ft3, zero
      88: 53 02 00 d2  	fcvt.d.w	ft4, zero
      8c: d3 02 00 d2  	fcvt.d.w	ft5, zero
      90: 53 03 00 d2  	fcvt.d.w	ft6, zero
      94: d3 03 00 d2  	fcvt.d.w	ft7, zero
      98: 53 04 00 d2  	fcvt.d.w	fs0, zero
      9c: d3 04 00 d2  	fcvt.d.w	fs1, zero
      a0: 53 05 00 d2  	fcvt.d.w	fa0, zero
      a4: d3 05 00 d2  	fcvt.d.w	fa1, zero
      a8: 53 06 00 d2  	fcvt.d.w	fa2, zero
      ac: d3 06 00 d2  	fcvt.d.w	fa3, zero
      b0: 53 07 00 d2  	fcvt.d.w	fa4, zero
      b4: d3 07 00 d2  	fcvt.d.w	fa5, zero
      b8: 53 08 00 d2  	fcvt.d.w	fa6, zero
      bc: d3 08 00 d2  	fcvt.d.w	fa7, zero
      c0: 53 09 00 d2  	fcvt.d.w	fs2, zero
      c4: d3 09 00 d2  	fcvt.d.w	fs3, zero
      c8: 53 0a 00 d2  	fcvt.d.w	fs4, zero
      cc: d3 0a 00 d2  	fcvt.d.w	fs5, zero
      d0: 53 0b 00 d2  	fcvt.d.w	fs6, zero
      d4: d3 0b 00 d2  	fcvt.d.w	fs7, zero
      d8: 53 0c 00 d2  	fcvt.d.w	fs8, zero
      dc: d3 0c 00 d2  	fcvt.d.w	fs9, zero
      e0: 53 0d 00 d2  	fcvt.d.w	fs10, zero
      e4: d3 0d 00 d2  	fcvt.d.w	fs11, zero
      e8: 53 0e 00 d2  	fcvt.d.w	ft8, zero
      ec: d3 0e 00 d2  	fcvt.d.w	ft9, zero
      f0: 53 0f 00 d2  	fcvt.d.w	ft10, zero
      f4: d3 0f 00 d2  	fcvt.d.w	ft11, zero

000000f8 <snrt.crt0.init_global_pointer>:
      f8: 97 01 00 00  	auipc	gp, 0
      fc: 93 81 01 00  	mv	gp, gp

00000100 <snrt.crt0.init_core_info>:
     100: 73 25 40 f1  	csrr	a0, mhartid
     104: 93 02 00 00  	li	t0, 0
     108: 33 05 55 40  	sub	a0, a0, t0
     10c: 93 05 20 00  	li	a1, 2
     110: b3 42 b5 02  	div	t0, a0, a1
     114: 33 75 b5 02  	remu	a0, a0, a1
     118: 37 06 00 10  	lui	a2, 65536
     11c: 13 03 00 00  	li	t1, 0
     120: b3 02 53 02  	mul	t0, t1, t0
     124: 33 06 56 00  	add	a2, a2, t0
     128: b7 02 02 00  	lui	t0, 32
     12c: 33 06 56 00  	add	a2, a2, t0

00000130 <snrt.crt0.init_cls>:
     130: 97 02 00 00  	auipc	t0, 0
     134: 93 82 02 00  	mv	t0, t0

00000138 <.Lpcrel_hi1>:
     138: 17 03 00 00  	auipc	t1, 0
     13c: 13 03 03 00  	mv	t1, t1
     140: b3 82 62 40  	sub	t0, t0, t1
     144: 33 06 56 40  	sub	a2, a2, t0

00000148 <.Lpcrel_hi2>:
     148: 97 02 00 00  	auipc	t0, 0
     14c: 93 82 02 00  	mv	t0, t0

00000150 <.Lpcrel_hi3>:
     150: 17 03 00 00  	auipc	t1, 0
     154: 13 03 03 00  	mv	t1, t1
     158: b3 82 62 40  	sub	t0, t0, t1
     15c: 33 06 56 40  	sub	a2, a2, t0

00000160 <snrt.crt0.init_stack>:
     160: 13 06 86 ff  	addi	a2, a2, -8
     164: 23 20 06 00  	sw	zero, 0(a2)
     168: 93 12 a5 00  	slli	t0, a0, 10
     16c: 33 01 56 40  	sub	sp, a2, t0
     170: 33 93 75 00  	sll	t1, a1, t2
     174: 33 06 66 40  	sub	a2, a2, t1
     178: 93 12 35 00  	slli	t0, a0, 3
     17c: 13 93 35 00  	slli	t1, a1, 3
     180: 33 01 51 40  	sub	sp, sp, t0
     184: 33 06 66 40  	sub	a2, a2, t1

00000188 <snrt.crt0.init_tls>:
     188: 97 02 00 00  	auipc	t0, 0
     18c: 93 82 02 00  	mv	t0, t0

00000190 <.Lpcrel_hi5>:
     190: 17 03 00 00  	auipc	t1, 0
     194: 13 03 03 00  	mv	t1, t1
     198: b3 82 62 40  	sub	t0, t0, t1
     19c: 33 01 51 40  	sub	sp, sp, t0

000001a0 <.Lpcrel_hi6>:
     1a0: 97 02 00 00  	auipc	t0, 0
     1a4: 93 82 02 00  	mv	t0, t0

000001a8 <.Lpcrel_hi7>:
     1a8: 17 03 00 00  	auipc	t1, 0
     1ac: 13 03 03 00  	mv	t1, t1
     1b0: b3 82 62 40  	sub	t0, t0, t1
     1b4: 33 01 51 40  	sub	sp, sp, t0
     1b8: 13 71 81 ff  	andi	sp, sp, -8
     1bc: 13 02 01 00  	mv	tp, sp
     1c0: 13 71 81 ff  	andi	sp, sp, -8

000001c4 <snrt.crt0.main>:
     1c4: 97 00 00 00  	auipc	ra, 0
     1c8: e7 80 00 00  	jalr	ra

000001cc <snrt.crt0.end>:
     1cc: 73 00 50 10  	wfi
     1d0: 6f 00 00 00  	j	0x1d0 <snrt.crt0.end+0x4>

Disassembly of section .rela.init:

00000000 <.rela.init>:
       0: 74 00        	<unknown>
       2: 00 00        	<unknown>
       4: 10 03        	<unknown>
       6: 00 00        	<unknown>
       8: 00 00        	<unknown>
       a: 00 00        	<unknown>
       c: f8 00        	<unknown>
       e: 00 00        	<unknown>
      10: 17 16 00 00  	auipc	a2, 1
      14: 00 00        	<unknown>
      16: 00 00        	<unknown>
      18: fc 00        	<unknown>
      1a: 00 00        	<unknown>
      1c: 18 05        	<unknown>
      1e: 00 00        	<unknown>
      20: 00 00        	<unknown>
      22: 00 00        	<unknown>
      24: 30 01        	<unknown>
      26: 00 00        	<unknown>
      28: 17 17 00 00  	auipc	a4, 1
      2c: 00 00        	<unknown>
      2e: 00 00        	<unknown>
      30: 30 01        	<unknown>
      32: 00 00        	<unknown>
      34: 33 00 00 00  	add	zero, zero, zero
      38: 00 00        	<unknown>
      3a: 00 00        	<unknown>
      3c: 34 01        	<unknown>
      3e: 00 00        	<unknown>
      40: 18 08        	<unknown>
      42: 00 00        	<unknown>
      44: 00 00        	<unknown>
      46: 00 00        	<unknown>
      48: 34 01        	<unknown>
      4a: 00 00        	<unknown>
      4c: 33 00 00 00  	add	zero, zero, zero
      50: 00 00        	<unknown>
      52: 00 00        	<unknown>
      54: 38 01        	<unknown>
      56: 00 00        	<unknown>
      58: 17 18 00 00  	auipc	a6, 1
      5c: 00 00        	<unknown>
      5e: 00 00        	<unknown>
      60: 38 01        	<unknown>
      62: 00 00        	<unknown>
      64: 33 00 00 00  	add	zero, zero, zero
      68: 00 00        	<unknown>
      6a: 00 00        	<unknown>
      6c: 3c 01        	<unknown>
      6e: 00 00        	<unknown>
      70: 18 09        	<unknown>
      72: 00 00        	<unknown>
      74: 00 00        	<unknown>
      76: 00 00        	<unknown>
      78: 3c 01        	<unknown>
      7a: 00 00        	<unknown>
      7c: 33 00 00 00  	add	zero, zero, zero
      80: 00 00        	<unknown>
      82: 00 00        	<unknown>
      84: 48 01        	<unknown>
      86: 00 00        	<unknown>
      88: 17 19 00 00  	auipc	s2, 1
      8c: 00 00        	<unknown>
      8e: 00 00        	<unknown>
      90: 48 01        	<unknown>
      92: 00 00        	<unknown>
      94: 33 00 00 00  	add	zero, zero, zero
      98: 00 00        	<unknown>
      9a: 00 00        	<unknown>
      9c: 4c 01        	<unknown>
      9e: 00 00        	<unknown>
      a0: 18 0a        	<unknown>
      a2: 00 00        	<unknown>
      a4: 00 00        	<unknown>
      a6: 00 00        	<unknown>
      a8: 4c 01        	<unknown>
      aa: 00 00        	<unknown>
      ac: 33 00 00 00  	add	zero, zero, zero
      b0: 00 00        	<unknown>
      b2: 00 00        	<unknown>
      b4: 50 01        	<unknown>
      b6: 00 00        	<unknown>
      b8: 17 1a 00 00  	auipc	s4, 1
      bc: 00 00        	<unknown>
      be: 00 00        	<unknown>
      c0: 50 01        	<unknown>
      c2: 00 00        	<unknown>
      c4: 33 00 00 00  	add	zero, zero, zero
      c8: 00 00        	<unknown>
      ca: 00 00        	<unknown>
      cc: 54 01        	<unknown>
      ce: 00 00        	<unknown>
      d0: 18 0b        	<unknown>
      d2: 00 00        	<unknown>
      d4: 00 00        	<unknown>
      d6: 00 00        	<unknown>
      d8: 54 01        	<unknown>
      da: 00 00        	<unknown>
      dc: 33 00 00 00  	add	zero, zero, zero
      e0: 00 00        	<unknown>
      e2: 00 00        	<unknown>
      e4: 88 01        	<unknown>
      e6: 00 00        	<unknown>
      e8: 17 1b 00 00  	auipc	s6, 1
      ec: 00 00        	<unknown>
      ee: 00 00        	<unknown>
      f0: 88 01        	<unknown>
      f2: 00 00        	<unknown>
      f4: 33 00 00 00  	add	zero, zero, zero
      f8: 00 00        	<unknown>
      fa: 00 00        	<unknown>
      fc: 8c 01        	<unknown>
      fe: 00 00        	<unknown>
     100: 18 0e        	<unknown>
     102: 00 00        	<unknown>
     104: 00 00        	<unknown>
     106: 00 00        	<unknown>
     108: 8c 01        	<unknown>
     10a: 00 00        	<unknown>
     10c: 33 00 00 00  	add	zero, zero, zero
     110: 00 00        	<unknown>
     112: 00 00        	<unknown>
     114: 90 01        	<unknown>
     116: 00 00        	<unknown>
     118: 17 1c 00 00  	auipc	s8, 1
     11c: 00 00        	<unknown>
     11e: 00 00        	<unknown>
     120: 90 01        	<unknown>
     122: 00 00        	<unknown>
     124: 33 00 00 00  	add	zero, zero, zero
     128: 00 00        	<unknown>
     12a: 00 00        	<unknown>
     12c: 94 01        	<unknown>
     12e: 00 00        	<unknown>
     130: 18 0f        	<unknown>
     132: 00 00        	<unknown>
     134: 00 00        	<unknown>
     136: 00 00        	<unknown>
     138: 94 01        	<unknown>
     13a: 00 00        	<unknown>
     13c: 33 00 00 00  	add	zero, zero, zero
     140: 00 00        	<unknown>
     142: 00 00        	<unknown>
     144: a0 01        	<unknown>
     146: 00 00        	<unknown>
     148: 17 1d 00 00  	auipc	s10, 1
     14c: 00 00        	<unknown>
     14e: 00 00        	<unknown>
     150: a0 01        	<unknown>
     152: 00 00        	<unknown>
     154: 33 00 00 00  	add	zero, zero, zero
     158: 00 00        	<unknown>
     15a: 00 00        	<unknown>
     15c: a4 01        	<unknown>
     15e: 00 00        	<unknown>
     160: 18 10        	<unknown>
     162: 00 00        	<unknown>
     164: 00 00        	<unknown>
     166: 00 00        	<unknown>
     168: a4 01        	<unknown>
     16a: 00 00        	<unknown>
     16c: 33 00 00 00  	add	zero, zero, zero
     170: 00 00        	<unknown>
     172: 00 00        	<unknown>
     174: a8 01        	<unknown>
     176: 00 00        	<unknown>
     178: 17 1e 00 00  	auipc	t3, 1
     17c: 00 00        	<unknown>
     17e: 00 00        	<unknown>
     180: a8 01        	<unknown>
     182: 00 00        	<unknown>
     184: 33 00 00 00  	add	zero, zero, zero
     188: 00 00        	<unknown>
     18a: 00 00        	<unknown>
     18c: ac 01        	<unknown>
     18e: 00 00        	<unknown>
     190: 18 11        	<unknown>
     192: 00 00        	<unknown>
     194: 00 00        	<unknown>
     196: 00 00        	<unknown>
     198: ac 01        	<unknown>
     19a: 00 00        	<unknown>
     19c: 33 00 00 00  	add	zero, zero, zero
     1a0: 00 00        	<unknown>
     1a2: 00 00        	<unknown>
     1a4: c4 01        	<unknown>
     1a6: 00 00        	<unknown>
     1a8: 13 1f 00 00  	slli	t5, zero, 0
     1ac: 00 00        	<unknown>
     1ae: 00 00        	<unknown>
     1b0: c4 01        	<unknown>
     1b2: 00 00        	<unknown>
     1b4: 33 00 00 00  	add	zero, zero, zero
     1b8: 00 00        	<unknown>
     1ba: 00 00        	<unknown>
     1bc: d0 01        	<unknown>
     1be: 00 00        	<unknown>
     1c0: 11 14        	<unknown>
     1c2: 00 00        	<unknown>
     1c4: 00 00        	<unknown>
     1c6: 00 00        	<unknown>

Disassembly of section .htif:

00000000 <tohost>:
		...

00000040 <fromhost>:
		...

Disassembly of section .riscv.attributes:

00000000 <.riscv.attributes>:
       0: 41 3d        	<unknown>
       2: 00 00        	<unknown>
       4: 00 72        	<unknown>
       6: 69 73        	<unknown>
       8: 63 76 00 01  	bgeu	zero, a6, 0x14 <.riscv.attributes+0x14>
       c: 33 00 00 00  	add	zero, zero, zero
      10: 05 72        	<unknown>
      12: 76 33        	<unknown>
      14: 32 69        	<unknown>
      16: 32 70        	<unknown>
      18: 31 5f        	<unknown>
      1a: 6d 32        	<unknown>
      1c: 70 30        	<unknown>
      1e: 5f 61 32 70  	<unknown>
      22: 31 5f        	<unknown>
      24: 66 32        	<unknown>
      26: 70 32        	<unknown>
      28: 5f 64 32 70  	<unknown>
      2c: 32 5f        	<unknown>
      2e: 7a 69        	<unknown>
      30: 63 73 72 32  	bgeu	tp, t2, 0x356 <.riscv.attributes+0x356>
      34: 70 30        	<unknown>
      36: 5f 7a 66 68  	<unknown>
      3a: 31 70        	<unknown>
      3c: 30 00        	<unknown>

Disassembly of section .symtab:

00000000 <.symtab>:
		...
      10: 58 00        	<unknown>
		...
      1e: 03 00 75 00  	lb	zero, 7(a0)
      22: 00 00        	<unknown>
      24: 6c 00        	<unknown>
		...
      2e: 03 00 e2 01  	lb	zero, 30(tp)
      32: 00 00        	<unknown>
      34: f8 00        	<unknown>
		...
      3e: 03 00 c9 00  	lb	zero, 12(s2)
      42: 00 00        	<unknown>
      44: f8 00        	<unknown>
		...
      4e: 03 00 cf 01  	lb	zero, 28(t5)
      52: 00 00        	<unknown>
      54: f8 00        	<unknown>
		...
      5e: 03 00 e7 00  	lb	zero, 14(a4)
      62: 00 00        	<unknown>
      64: 00 01        	<unknown>
		...
      6e: 03 00 a4 00  	lb	zero, 10(s0)
      72: 00 00        	<unknown>
      74: 30 01        	<unknown>
		...
      7e: 03 00 e9 01  	lb	zero, 30(s2)
      82: 00 00        	<unknown>
      84: 30 01        	<unknown>
		...
      8e: 03 00 d6 01  	lb	zero, 29(a2)
      92: 00 00        	<unknown>
      94: 38 01        	<unknown>
		...
      9e: 03 00 c3 01  	lb	zero, 28(t1)
      a2: 00 00        	<unknown>
      a4: 48 01        	<unknown>
		...
      ae: 03 00 b0 01  	lb	zero, 27(zero)
      b2: 00 00        	<unknown>
      b4: 50 01        	<unknown>
		...
      be: 03 00 19 01  	lb	zero, 17(s2)
      c2: 00 00        	<unknown>
      c4: 60 01        	<unknown>
		...
      ce: 03 00 91 00  	lb	zero, 9(sp)
      d2: 00 00        	<unknown>
      d4: 88 01        	<unknown>
		...
      de: 03 00 a4 01  	lb	zero, 26(s0)
      e2: 00 00        	<unknown>
      e4: 88 01        	<unknown>
		...
      ee: 03 00 98 01  	lb	zero, 25(a6)
      f2: 00 00        	<unknown>
      f4: 90 01        	<unknown>
		...
      fe: 03 00 8c 01  	lb	zero, 24(s8)
     102: 00 00        	<unknown>
     104: a0 01        	<unknown>
		...
     10e: 03 00 80 01  	lb	zero, 24(zero)
     112: 00 00        	<unknown>
     114: a8 01        	<unknown>
		...
     11e: 03 00 0a 01  	lb	zero, 16(s4)
     122: 00 00        	<unknown>
     124: c4 01        	<unknown>
		...
     12e: 03 00 62 01  	lb	zero, 22(tp)
     132: 00 00        	<unknown>
     134: cc 01        	<unknown>
		...
     13e: 03 00 bc 01  	lb	zero, 27(s8)
     142: 00 00        	<unknown>
     144: cc 01        	<unknown>
		...
     14e: 03 00 46 00  	lb	zero, 4(a2)
		...
     15a: 00 00        	<unknown>
     15c: 10 00        	<unknown>
     15e: 03 00 f5 01  	lb	zero, 31(a0)
		...
     16a: 00 00        	<unknown>
     16c: 10 00        	<unknown>
     16e: 00 00        	<unknown>
     170: 56 01        	<unknown>
		...
     17a: 00 00        	<unknown>
     17c: 10 00        	<unknown>
     17e: 00 00        	<unknown>
     180: 3f 00 00 00  	<unknown>
		...
     18c: 10 00        	<unknown>
     18e: 00 00        	<unknown>
     190: 3f 01 00 00  	<unknown>
		...
     19c: 10 00        	<unknown>
     19e: 00 00        	<unknown>
     1a0: 24 00        	<unknown>
		...
     1aa: 00 00        	<unknown>
     1ac: 10 00        	<unknown>
     1ae: 00 00        	<unknown>
     1b0: 4a 01        	<unknown>
		...
     1ba: 00 00        	<unknown>
     1bc: 10 00        	<unknown>
     1be: 00 00        	<unknown>
     1c0: 31 00        	<unknown>
		...
     1ca: 00 00        	<unknown>
     1cc: 10 00        	<unknown>
     1ce: 00 00        	<unknown>
     1d0: 34 01        	<unknown>
		...
     1da: 00 00        	<unknown>
     1dc: 10 00        	<unknown>
     1de: 00 00        	<unknown>
     1e0: 17 00 00 00  	auipc	zero, 0
		...
     1ec: 10 00        	<unknown>
     1ee: 00 00        	<unknown>
     1f0: 00 01        	<unknown>
		...
     1fa: 00 00        	<unknown>
     1fc: 10 00        	<unknown>
     1fe: 00 00        	<unknown>
     200: 07 00 00 00  	<unknown>
		...
     20c: 10 00        	<unknown>
     20e: 05 00        	<unknown>
     210: 0e 00        	<unknown>
     212: 00 00        	<unknown>
     214: 40 00        	<unknown>
     216: 00 00        	<unknown>
     218: 00 00        	<unknown>
     21a: 00 00        	<unknown>
     21c: 10 00        	<unknown>
     21e: 05 00        	<unknown>

/workspaces/snax_cluster/target/snitch_cluster/sw/runtime/rtl-generic/build/libsnRuntime.a(snrt.o):	file format elf32-littleriscv

Disassembly of section .strtab:

00000000 <.strtab>:
       0: 00 65        	<unknown>
       2: 75 5f        	<unknown>
       4: 72 75        	<unknown>
       6: 6e 5f        	<unknown>
       8: 65 6d        	<unknown>
       a: 70 74        	<unknown>
       c: 79 00        	<unknown>
       e: 5f 73 6e 72  	<unknown>
      12: 74 5f        	<unknown>
      14: 6d 75        	<unknown>
      16: 74 65        	<unknown>
      18: 78 00        	<unknown>
      1a: 73 6e 72 74  	csrrsi	t3, mseccfg, 4
      1e: 5f 63 6c 75  	<unknown>
      22: 73 74 65 72  	csrrci	s0, mhpmevent6h, 10
      26: 5f 69 64 78  	<unknown>
      2a: 00 73        	<unknown>
      2c: 6e 72        	<unknown>
      2e: 74 5f        	<unknown>
      30: 63 6c 75 73  	bltu	a0, s7, 0x768 <.strtab+0x768>
      34: 74 65        	<unknown>
      36: 72 5f        	<unknown>
      38: 63 6f 72 65  	bltu	tp, s7, 0x696 <.strtab+0x696>
      3c: 5f 69 64 78  	<unknown>
      40: 00 73        	<unknown>
      42: 6e 72        	<unknown>
      44: 74 5f        	<unknown>
      46: 67 6c 6f 62  	<unknown>
      4a: 61 6c        	<unknown>
      4c: 5f 63 6f 72  	<unknown>
      50: 65 5f        	<unknown>
      52: 69 64        	<unknown>
      54: 78 00        	<unknown>
      56: 2e 72        	<unknown>
      58: 65 6c        	<unknown>
      5a: 61 2e        	<unknown>
      5c: 74 65        	<unknown>
      5e: 78 74        	<unknown>
      60: 00 73        	<unknown>
      62: 6e 72        	<unknown>
      64: 74 5f        	<unknown>
      66: 6c 31        	<unknown>
      68: 5f 75 70 64  	<unknown>
      6c: 61 74        	<unknown>
      6e: 65 5f        	<unknown>
      70: 6e 65        	<unknown>
      72: 78 74        	<unknown>
      74: 00 73        	<unknown>
      76: 6e 72        	<unknown>
      78: 74 5f        	<unknown>
      7a: 6c 33        	<unknown>
      7c: 5f 6e 65 78  	<unknown>
      80: 74 00        	<unknown>
      82: 73 6e 72 74  	csrrsi	t3, mseccfg, 4
      86: 5f 6c 31 5f  	<unknown>
      8a: 6e 65        	<unknown>
      8c: 78 74        	<unknown>
      8e: 00 74        	<unknown>
      90: 6f 68 6f 73  	jal	a6, 0xf67c6 <.strtab+0xf67c6>
      94: 74 00        	<unknown>
      96: 66 72        	<unknown>
      98: 6f 6d 68 6f  	jal	s10, 0x8678e <.strtab+0x8678e>
      9c: 73 74 00 5f  	csrrci	s0, 1520, 0
      a0: 5f 74 62 73  	<unknown>
      a4: 73 5f 73 74  	csrrwi	t5, mseccfg, 6
      a8: 61 72        	<unknown>
      aa: 74 00        	<unknown>
      ac: 5f 5f 63 62  	<unknown>
      b0: 73 73 5f 73  	csrrci	t1, mhpmevent21h, 30
      b4: 74 61        	<unknown>
      b6: 72 74        	<unknown>
      b8: 00 5f        	<unknown>
      ba: 5f 62 73 73  	<unknown>
      be: 5f 73 74 61  	<unknown>
      c2: 72 74        	<unknown>
      c4: 00 5f        	<unknown>
      c6: 5f 74 64 61  	<unknown>
      ca: 74 61        	<unknown>
      cc: 5f 73 74 61  	<unknown>
      d0: 72 74        	<unknown>
      d2: 00 5f        	<unknown>
      d4: 5f 63 64 61  	<unknown>
      d8: 74 61        	<unknown>
      da: 5f 73 74 61  	<unknown>
      de: 72 74        	<unknown>
      e0: 00 2e        	<unknown>
      e2: 63 6f 6d 6d  	bltu	s10, s6, 0x7c0 <.strtab+0x7c0>
      e6: 65 6e        	<unknown>
      e8: 74 00        	<unknown>
      ea: 5f 72 65 64  	<unknown>
      ee: 75 63        	<unknown>
      f0: 74 69        	<unknown>
      f2: 6f 6e 5f 72  	jal	t3, 0xf7016 <.strtab+0xf7016>
      f6: 65 73        	<unknown>
      f8: 75 6c        	<unknown>
      fa: 74 00        	<unknown>
      fc: 65 75        	<unknown>
      fe: 5f 65 78 69  	<unknown>
     102: 74 00        	<unknown>
     104: 65 75        	<unknown>
     106: 5f 69 6e 69  	<unknown>
     10a: 74 00        	<unknown>
     10c: 73 6e 72 74  	csrrsi	t3, mseccfg, 4
     110: 5f 61 6c 6c  	<unknown>
     114: 6f 63 5f 69  	jal	t1, 0xf6fa8 <.strtab+0xf6fa8>
     118: 6e 69        	<unknown>
     11a: 74 00        	<unknown>
     11c: 73 6e 72 74  	csrrsi	t3, mseccfg, 4
     120: 5f 64 6d 61  	<unknown>
     124: 5f 77 61 69  	<unknown>
     128: 74 00        	<unknown>
     12a: 73 6e 72 74  	csrrsi	t3, mseccfg, 4
     12e: 5f 69 6e 74  	<unknown>
     132: 5f 63 6c 75  	<unknown>
     136: 73 74 65 72  	csrrci	s0, mhpmevent6h, 10
     13a: 5f 73 65 74  	<unknown>
     13e: 00 5f        	<unknown>
     140: 6f 75 74 5f  	jal	a0, 0x47f36 <.strtab+0x47f36>
     144: 66 63        	<unknown>
     146: 74 00        	<unknown>
     148: 65 75        	<unknown>
     14a: 5f 70 72 69  	<unknown>
     14e: 6e 74        	<unknown>
     150: 5f 73 74 61  	<unknown>
     154: 74 75        	<unknown>
     156: 73 00 2e 74  	<unknown>
     15a: 62 73        	<unknown>
     15c: 73 00 2e 73  	<unknown>
     160: 62 73        	<unknown>
     162: 73 00 2e 63  	<unknown>
     166: 62 73        	<unknown>
     168: 73 00 2e 62  	<unknown>
     16c: 73 73 00 5f  	csrrci	t1, 1520, 0
     170: 63 6c 73 00  	bltu	t1, t2, 0x188 <.strtab+0x188>
     174: 2e 72        	<unknown>
     176: 69 73        	<unknown>
     178: 63 76 2e 61  	bgeu	t3, s2, 0x784 <.strtab+0x784>
     17c: 74 74        	<unknown>
     17e: 72 69        	<unknown>
     180: 62 75        	<unknown>
     182: 74 65        	<unknown>
     184: 73 00 73 6e  	<unknown>
     188: 72 74        	<unknown>
     18a: 5f 64 6d 61  	<unknown>
     18e: 5f 73 74 61  	<unknown>
     192: 72 74        	<unknown>
     194: 5f 32 64 5f  	<unknown>
     198: 77 69 64 65  	<unknown>
     19c: 70 74        	<unknown>
     19e: 72 00        	<unknown>
     1a0: 73 6e 72 74  	csrrsi	t3, mseccfg, 4
     1a4: 5f 64 6d 61  	<unknown>
     1a8: 5f 73 74 61  	<unknown>
     1ac: 72 74        	<unknown>
     1ae: 5f 31 64 5f  	<unknown>
     1b2: 77 69 64 65  	<unknown>
     1b6: 70 74        	<unknown>
     1b8: 72 00        	<unknown>
     1ba: 5f 63 6c 73  	<unknown>
     1be: 5f 70 74 72  	<unknown>
     1c2: 00 6c        	<unknown>
     1c4: 33 5f 61 6c  	<unknown>
     1c8: 6c 6f        	<unknown>
     1ca: 63 61 74 6f  	bltu	s0, s7, 0x8ac <.strtab+0x8ac>
     1ce: 72 00        	<unknown>
     1d0: 73 6e 72 74  	csrrsi	t3, mseccfg, 4
     1d4: 5f 69 6e 74  	<unknown>
     1d8: 5f 63 6c 75  	<unknown>
     1dc: 73 74 65 72  	csrrci	s0, mhpmevent6h, 10
     1e0: 5f 63 6c 72  	<unknown>
     1e4: 00 73        	<unknown>
     1e6: 6e 72        	<unknown>
     1e8: 74 5f        	<unknown>
     1ea: 63 6c 75 73  	bltu	a0, s7, 0x922 <.strtab+0x922>
     1ee: 74 65        	<unknown>
     1f0: 72 5f        	<unknown>
     1f2: 68 77        	<unknown>
     1f4: 5f 62 61 72  	<unknown>
     1f8: 72 69        	<unknown>
     1fa: 65 72        	<unknown>
     1fc: 00 5f        	<unknown>
     1fe: 73 6e 72 74  	csrrsi	t3, mseccfg, 4
     202: 5f 62 61 72  	<unknown>
     206: 72 69        	<unknown>
     208: 65 72        	<unknown>
     20a: 00 73        	<unknown>
     20c: 6e 72        	<unknown>
     20e: 74 5f        	<unknown>
     210: 70 61        	<unknown>
     212: 72 74        	<unknown>
     214: 69 61        	<unknown>
     216: 6c 5f        	<unknown>
     218: 62 61        	<unknown>
     21a: 72 72        	<unknown>
     21c: 69 65        	<unknown>
     21e: 72 00        	<unknown>
     220: 73 6e 72 74  	csrrsi	t3, mseccfg, 4
     224: 5f 67 6c 6f  	<unknown>
     228: 62 61        	<unknown>
     22a: 6c 5f        	<unknown>
     22c: 62 61        	<unknown>
     22e: 72 72        	<unknown>
     230: 69 65        	<unknown>
     232: 72 00        	<unknown>
     234: 5f 6f 75 74  	<unknown>
     238: 5f 62 75 66  	<unknown>
     23c: 66 65        	<unknown>
     23e: 72 00        	<unknown>
     240: 73 6e 72 74  	csrrsi	t3, mseccfg, 4
     244: 5f 70 75 74  	<unknown>
     248: 63 68 61 72  	bltu	sp, t1, 0x978 <.strtab+0x978>
     24c: 00 5f        	<unknown>
     24e: 6f 75 74 5f  	jal	a0, 0x48044 <.strtab+0x48044>
     252: 63 68 61 72  	bltu	sp, t1, 0x982 <.strtab+0x982>
     256: 00 65        	<unknown>
     258: 75 5f        	<unknown>
     25a: 65 76        	<unknown>
     25c: 65 6e        	<unknown>
     25e: 74 5f        	<unknown>
     260: 6c 6f        	<unknown>
     262: 6f 70 00 65  	j	0x78b2 <.strtab+0x78b2>
     266: 75 5f        	<unknown>
     268: 67 65 74 5f  	<unknown>
     26c: 77 6f 72 6b  	<unknown>
     270: 65 72        	<unknown>
     272: 73 5f 69 6e  	csrrwi	t5, 1766, 18
     276: 5f 6c 6f 6f  	<unknown>
     27a: 70 00        	<unknown>
     27c: 73 6e 72 74  	csrrsi	t3, mseccfg, 4
     280: 5f 69 6e 74  	<unknown>
     284: 5f 73 65 74  	<unknown>
     288: 5f 6d 63 69  	<unknown>
     28c: 70 00        	<unknown>
     28e: 73 6e 72 74  	csrrsi	t3, mseccfg, 4
     292: 5f 69 6e 74  	<unknown>
     296: 5f 63 6c 72  	<unknown>
     29a: 5f 6d 63 69  	<unknown>
     29e: 70 00        	<unknown>
     2a0: 65 75        	<unknown>
     2a2: 5f 70 00 73  	<unknown>
     2a6: 6e 72        	<unknown>
     2a8: 74 5f        	<unknown>
     2aa: 67 6c 6f 62  	<unknown>
     2ae: 61 6c        	<unknown>
     2b0: 5f 61 6c 6c  	<unknown>
     2b4: 5f 74 6f 5f  	<unknown>
     2b8: 61 6c        	<unknown>
     2ba: 6c 5f        	<unknown>
     2bc: 72 65        	<unknown>
     2be: 64 75        	<unknown>
     2c0: 63 74 69 6f  	bgeu	s2, s6, 0x9a8 <.strtab+0x9a8>
     2c4: 6e 00        	<unknown>
     2c6: 73 6e 72 74  	csrrsi	t3, mseccfg, 4
     2ca: 5f 6d 61 69  	<unknown>
     2ce: 6e 00        	<unknown>
     2d0: 73 6e 72 74  	csrrsi	t3, mseccfg, 4
     2d4: 5f 63 6c 75  	<unknown>
     2d8: 73 74 65 72  	csrrci	s0, mhpmevent6h, 10
     2dc: 5f 6e 75 6d  	<unknown>
     2e0: 00 73        	<unknown>
     2e2: 6e 72        	<unknown>
     2e4: 74 5f        	<unknown>
     2e6: 63 6c 75 73  	bltu	a0, s7, 0xa1e <.strtab+0xa1e>
     2ea: 74 65        	<unknown>
     2ec: 72 5f        	<unknown>
     2ee: 63 6f 72 65  	bltu	tp, s7, 0x94c <.strtab+0x94c>
     2f2: 5f 6e 75 6d  	<unknown>
     2f6: 00 73        	<unknown>
     2f8: 6e 72        	<unknown>
     2fa: 74 5f        	<unknown>
     2fc: 63 6c 75 73  	bltu	a0, s7, 0xa34 <.strtab+0xa34>
     300: 74 65        	<unknown>
     302: 72 5f        	<unknown>
     304: 64 6d        	<unknown>
     306: 5f 63 6f 72  	<unknown>
     30a: 65 5f        	<unknown>
     30c: 6e 75        	<unknown>
     30e: 6d 00        	<unknown>
     310: 73 6e 72 74  	csrrsi	t3, mseccfg, 4
     314: 5f 67 6c 6f  	<unknown>
     318: 62 61        	<unknown>
     31a: 6c 5f        	<unknown>
     31c: 63 6f 72 65  	bltu	tp, s7, 0x97a <.strtab+0x97a>
     320: 5f 6e 75 6d  	<unknown>
     324: 00 73        	<unknown>
     326: 6e 72        	<unknown>
     328: 74 5f        	<unknown>
     32a: 63 6c 75 73  	bltu	a0, s7, 0xa62 <.strtab+0xa62>
     32e: 74 65        	<unknown>
     330: 72 5f        	<unknown>
     332: 63 6f 6d 70  	bltu	s10, t1, 0xa50 <.strtab+0xa50>
     336: 75 74        	<unknown>
     338: 65 5f        	<unknown>
     33a: 63 6f 72 65  	bltu	tp, s7, 0x998 <.strtab+0x998>
     33e: 5f 6e 75 6d  	<unknown>
     342: 00 5f        	<unknown>
     344: 65 64        	<unknown>
     346: 72 61        	<unknown>
     348: 6d 00        	<unknown>
     34a: 5f 6f 75 74  	<unknown>
     34e: 5f 6e 75 6c  	<unknown>
     352: 6c 00        	<unknown>
     354: 73 6e 72 74  	csrrsi	t3, mseccfg, 4
     358: 5f 64 6d 61  	<unknown>
     35c: 5f 77 61 69  	<unknown>
     360: 74 5f        	<unknown>
     362: 61 6c        	<unknown>
     364: 6c 00        	<unknown>
     366: 65 75        	<unknown>
     368: 5f 70 5f 67  	<unknown>
     36c: 6c 6f        	<unknown>
     36e: 62 61        	<unknown>
     370: 6c 00        	<unknown>
     372: 65 75        	<unknown>
     374: 5f 6d 75 74  	<unknown>
     378: 65 78        	<unknown>
     37a: 5f 6c 6f 63  	<unknown>
     37e: 6b 00 2e 6e  	<unknown>
     382: 6f 74 65 2e  	jal	s0, 0x57668 <.strtab+0x57668>
     386: 47 4e 55 2d  	fmsub.h	ft8, fa0, fs5, ft5, rmm
     38a: 73 74 61 63  	csrrci	s0, 1590, 2
     38e: 6b 00 65 75  	<unknown>
     392: 5f 67 65 74  	<unknown>
     396: 5f 77 6f 72  	<unknown>
     39a: 6b 65 72 73  	<unknown>
     39e: 5f 69 6e 5f  	<unknown>
     3a2: 77 66 69 00  	<unknown>
     3a6: 65 75        	<unknown>
     3a8: 5f 64 69 73  	<unknown>
     3ac: 70 61        	<unknown>
     3ae: 74 63        	<unknown>
     3b0: 68 5f        	<unknown>
     3b2: 70 75        	<unknown>
     3b4: 73 68 00 5f  	csrrsi	a6, 1520, 0
     3b8: 6e 74        	<unknown>
     3ba: 6f 61 5f 6c  	jal	sp, 0xf727e <.strtab+0xf727e>
     3be: 6f 6e 67 00  	jal	t3, 0x763c4 <.strtab+0x763c4>
     3c2: 2e 6c        	<unknown>
     3c4: 6c 76        	<unknown>
     3c6: 6d 5f        	<unknown>
     3c8: 61 64        	<unknown>
     3ca: 64 72        	<unknown>
     3cc: 73 69 67 00  	csrrsi	s2, 6, 14
     3d0: 66 63        	<unknown>
     3d2: 74 70        	<unknown>
     3d4: 72 69        	<unknown>
     3d6: 6e 74        	<unknown>
     3d8: 66 00        	<unknown>
     3da: 5f 76 73 6e  	<unknown>
     3de: 70 72        	<unknown>
     3e0: 69 6e        	<unknown>
     3e2: 74 66        	<unknown>
     3e4: 00 65        	<unknown>
     3e6: 75 5f        	<unknown>
     3e8: 6d 75        	<unknown>
     3ea: 74 65        	<unknown>
     3ec: 78 5f        	<unknown>
     3ee: 72 65        	<unknown>
     3f0: 6c 65        	<unknown>
     3f2: 61 73        	<unknown>
     3f4: 65 00        	<unknown>
     3f6: 73 6e 72 74  	csrrsi	t3, mseccfg, 4
     3fa: 5f 6d 75 74  	<unknown>
     3fe: 65 78        	<unknown>
     400: 5f 72 65 6c  	<unknown>
     404: 65 61        	<unknown>
     406: 73 65 00 73  	csrrsi	a0, mhpmevent16h, 0
     40a: 6e 72        	<unknown>
     40c: 74 5f        	<unknown>
     40e: 69 73        	<unknown>
     410: 5f 64 6d 5f  	<unknown>
     414: 63 6f 72 65  	bltu	tp, s7, 0xa72 <.strtab+0xa72>
     418: 00 73        	<unknown>
     41a: 6e 72        	<unknown>
     41c: 74 5f        	<unknown>
     41e: 69 73        	<unknown>
     420: 5f 63 6f 6d  	<unknown>
     424: 70 75        	<unknown>
     426: 74 65        	<unknown>
     428: 5f 63 6f 72  	<unknown>
     42c: 65 00        	<unknown>
     42e: 73 6e 72 74  	csrrsi	t3, mseccfg, 4
     432: 5f 6d 75 74  	<unknown>
     436: 65 78        	<unknown>
     438: 5f 61 63 71  	<unknown>
     43c: 75 69        	<unknown>
     43e: 72 65        	<unknown>
     440: 00 73        	<unknown>
     442: 6e 72        	<unknown>
     444: 74 5f        	<unknown>
     446: 6d 75        	<unknown>
     448: 74 65        	<unknown>
     44a: 78 5f        	<unknown>
     44c: 74 74        	<unknown>
     44e: 61 73        	<unknown>
     450: 5f 61 63 71  	<unknown>
     454: 75 69        	<unknown>
     456: 72 65        	<unknown>
     458: 00 5f        	<unknown>
     45a: 5f 74 62 73  	<unknown>
     45e: 73 5f 65 6e  	csrrwi	t5, 1766, 10
     462: 64 00        	<unknown>
     464: 5f 5f 63 62  	<unknown>
     468: 73 73 5f 65  	csrrci	t1, hviph, 30
     46c: 6e 64        	<unknown>
     46e: 00 5f        	<unknown>
     470: 5f 62 73 73  	<unknown>
     474: 5f 65 6e 64  	<unknown>
     478: 00 5f        	<unknown>
     47a: 5f 74 64 61  	<unknown>
     47e: 74 61        	<unknown>
     480: 5f 65 6e 64  	<unknown>
     484: 00 5f        	<unknown>
     486: 5f 63 64 61  	<unknown>
     48a: 74 61        	<unknown>
     48c: 5f 65 6e 64  	<unknown>
     490: 00 73        	<unknown>
     492: 6e 72        	<unknown>
     494: 74 5f        	<unknown>
     496: 68 61        	<unknown>
     498: 72 74        	<unknown>
     49a: 69 64        	<unknown>
     49c: 00 73        	<unknown>
     49e: 6e 72        	<unknown>
     4a0: 74 5f        	<unknown>
     4a2: 67 6c 6f 62  	<unknown>
     4a6: 61 6c        	<unknown>
     4a8: 5f 63 6f 72  	<unknown>
     4ac: 65 5f        	<unknown>
     4ae: 62 61        	<unknown>
     4b0: 73 65 5f 68  	csrrsi	a0, 1669, 30
     4b4: 61 72        	<unknown>
     4b6: 74 69        	<unknown>
     4b8: 64 00        	<unknown>
     4ba: 73 6e 72 74  	csrrsi	t3, mseccfg, 4
     4be: 5f 64 6d 61  	<unknown>
     4c2: 5f 73 74 61  	<unknown>
     4c6: 72 74        	<unknown>
     4c8: 5f 32 64 00  	<unknown>
     4cc: 73 6e 72 74  	csrrsi	t3, mseccfg, 4
     4d0: 5f 64 6d 61  	<unknown>
     4d4: 5f 73 74 61  	<unknown>
     4d8: 72 74        	<unknown>
     4da: 5f 31 64 00  	<unknown>
     4de: 73 6e 72 74  	csrrsi	t3, mseccfg, 4
     4e2: 5f 6c 33 61  	<unknown>
     4e6: 6c 6c        	<unknown>
     4e8: 6f 63 00 73  	jal	t1, 0x6c18 <.strtab+0x6c18>
     4ec: 6e 72        	<unknown>
     4ee: 74 5f        	<unknown>
     4f0: 6c 31        	<unknown>
     4f2: 61 6c        	<unknown>
     4f4: 6c 6f        	<unknown>
     4f6: 63 00 73 6e  	beq	t1, t2, 0xbd6 <.strtab+0xbd6>
     4fa: 72 74        	<unknown>
     4fc: 2e 63        	<unknown>
     4fe: 00 2e        	<unknown>
     500: 73 74 72 74  	csrrci	s0, mseccfg, 4
     504: 61 62        	<unknown>
     506: 00 2e        	<unknown>
     508: 73 79 6d 74  	csrrci	s2, 1862, 26
     50c: 61 62        	<unknown>
     50e: 00 2e        	<unknown>
     510: 73 64 61 74  	csrrsi	s0, 1862, 2
     514: 61 00        	<unknown>
     516: 2e 72        	<unknown>
     518: 65 6c        	<unknown>
     51a: 61 2e        	<unknown>
     51c: 72 6f        	<unknown>
     51e: 64 61        	<unknown>
     520: 74 61        	<unknown>
     522: 00 5f        	<unknown>
     524: 66 74        	<unknown>
     526: 6f 61 00 5f  	jal	sp, 0x6b16 <.strtab+0x6b16>
     52a: 65 74        	<unknown>
     52c: 6f 61 00 73  	jal	sp, 0x6c5c <.strtab+0x6c5c>
     530: 6e 72        	<unknown>
     532: 74 5f        	<unknown>
     534: 67 6c 6f 62  	<unknown>
     538: 61 6c        	<unknown>
     53a: 5f 72 65 64  	<unknown>
     53e: 75 63        	<unknown>
     540: 74 69        	<unknown>
     542: 6f 6e 5f 64  	jal	t3, 0xf7386 <.strtab+0xf7386>
     546: 6d 61        	<unknown>
     548: 00 76        	<unknown>
     54a: 70 72        	<unknown>
     54c: 69 6e        	<unknown>
     54e: 74 66        	<unknown>
     550: 5f 00 73 70  	<unknown>
     554: 72 69        	<unknown>
     556: 6e 74        	<unknown>
     558: 66 5f        	<unknown>
     55a: 00 76        	<unknown>
     55c: 73 6e 70 72  	csrrsi	t3, mhpmevent7h, 0
     560: 69 6e        	<unknown>
     562: 74 66        	<unknown>
     564: 5f 00 2e 4c  	<unknown>
     568: 70 63        	<unknown>
     56a: 72 65        	<unknown>
     56c: 6c 5f        	<unknown>
     56e: 68 69        	<unknown>
     570: 39 00        	<unknown>
     572: 2e 4c        	<unknown>
     574: 42 42        	<unknown>
     576: 34 38        	<unknown>
     578: 5f 39 00 2e  	<unknown>
     57c: 4c 42        	<unknown>
     57e: 42 31        	<unknown>
     580: 37 5f 39 00  	lui	t5, 917
     584: 2e 4c        	<unknown>
     586: 43 50 49 35  	<unknown>
     58a: 33 5f 39 00  	srl	t5, s2, gp
     58e: 2e 4c        	<unknown>
     590: 42 42        	<unknown>
     592: 32 33        	<unknown>
     594: 5f 39 00 2e  	<unknown>
     598: 4c 42        	<unknown>
     59a: 42 34        	<unknown>
     59c: 38 5f        	<unknown>
     59e: 39 39        	<unknown>
     5a0: 00 2e        	<unknown>
     5a2: 4c 42        	<unknown>
     5a4: 42 34        	<unknown>
     5a6: 38 5f        	<unknown>
     5a8: 38 39        	<unknown>
     5aa: 00 2e        	<unknown>
     5ac: 4c 42        	<unknown>
     5ae: 42 35        	<unknown>
     5b0: 32 5f        	<unknown>
     5b2: 36 39        	<unknown>
     5b4: 00 2e        	<unknown>
     5b6: 4c 70        	<unknown>
     5b8: 63 72 65 6c  	bgeu	a0, t1, 0xc7c <.strtab+0xc7c>
     5bc: 5f 68 69 35  	<unknown>
     5c0: 39 00        	<unknown>
     5c2: 2e 4c        	<unknown>
     5c4: 42 42        	<unknown>
     5c6: 34 38        	<unknown>
     5c8: 5f 35 39 00  	<unknown>
     5cc: 2e 4c        	<unknown>
     5ce: 70 63        	<unknown>
     5d0: 72 65        	<unknown>
     5d2: 6c 5f        	<unknown>
     5d4: 68 69        	<unknown>
     5d6: 34 39        	<unknown>
     5d8: 00 2e        	<unknown>
     5da: 4c 42        	<unknown>
     5dc: 42 34        	<unknown>
     5de: 38 5f        	<unknown>
     5e0: 34 39        	<unknown>
     5e2: 00 2e        	<unknown>
     5e4: 4c 42        	<unknown>
     5e6: 42 35        	<unknown>
     5e8: 32 5f        	<unknown>
     5ea: 34 39        	<unknown>
     5ec: 00 2e        	<unknown>
     5ee: 4c 42        	<unknown>
     5f0: 42 35        	<unknown>
     5f2: 31 5f        	<unknown>
     5f4: 34 39        	<unknown>
     5f6: 00 2e        	<unknown>
     5f8: 4c 70        	<unknown>
     5fa: 63 72 65 6c  	bgeu	a0, t1, 0xcbe <.strtab+0xcbe>
     5fe: 5f 68 69 33  	<unknown>
     602: 39 00        	<unknown>
     604: 2e 4c        	<unknown>
     606: 70 63        	<unknown>
     608: 72 65        	<unknown>
     60a: 6c 5f        	<unknown>
     60c: 68 69        	<unknown>
     60e: 32 39        	<unknown>
     610: 00 2e        	<unknown>
     612: 4c 42        	<unknown>
     614: 42 34        	<unknown>
     616: 38 5f        	<unknown>
     618: 32 39        	<unknown>
     61a: 00 2e        	<unknown>
     61c: 4c 42        	<unknown>
     61e: 42 35        	<unknown>
     620: 32 5f        	<unknown>
     622: 32 39        	<unknown>
     624: 00 2e        	<unknown>
     626: 4c 70        	<unknown>
     628: 63 72 65 6c  	bgeu	a0, t1, 0xcec <.strtab+0xcec>
     62c: 5f 68 69 31  	<unknown>
     630: 39 00        	<unknown>
     632: 2e 4c        	<unknown>
     634: 42 42        	<unknown>
     636: 34 38        	<unknown>
     638: 5f 31 39 00  	<unknown>
     63c: 2e 4c        	<unknown>
     63e: 42 42        	<unknown>
     640: 35 33        	<unknown>
     642: 5f 31 39 00  	<unknown>
     646: 2e 4c        	<unknown>
     648: 42 42        	<unknown>
     64a: 36 32        	<unknown>
     64c: 5f 31 39 00  	<unknown>
     650: 2e 4c        	<unknown>
     652: 42 42        	<unknown>
     654: 35 31        	<unknown>
     656: 5f 31 39 00  	<unknown>
     65a: 2e 4c        	<unknown>
     65c: 42 42        	<unknown>
     65e: 34 38        	<unknown>
     660: 5f 31 31 39  	<unknown>
     664: 00 2e        	<unknown>
     666: 4c 70        	<unknown>
     668: 63 72 65 6c  	bgeu	a0, t1, 0xd2c <.strtab+0xd2c>
     66c: 5f 68 69 38  	<unknown>
     670: 00 2e        	<unknown>
     672: 4c 42        	<unknown>
     674: 42 34        	<unknown>
     676: 38 5f        	<unknown>
     678: 38 00        	<unknown>
     67a: 2e 4c        	<unknown>
     67c: 42 42        	<unknown>
     67e: 31 37        	<unknown>
     680: 5f 38 00 2e  	<unknown>
     684: 4c 43        	<unknown>
     686: 50 49        	<unknown>
     688: 35 33        	<unknown>
     68a: 5f 38 00 2e  	<unknown>
     68e: 4c 42        	<unknown>
     690: 42 35        	<unknown>
     692: 33 5f 38 00  	srl	t5, a6, gp
     696: 2e 4c        	<unknown>
     698: 42 42        	<unknown>
     69a: 32 33        	<unknown>
     69c: 5f 38 00 2e  	<unknown>
     6a0: 4c 42        	<unknown>
     6a2: 42 36        	<unknown>
     6a4: 32 5f        	<unknown>
     6a6: 38 00        	<unknown>
     6a8: 2e 4c        	<unknown>
     6aa: 42 42        	<unknown>
     6ac: 35 31        	<unknown>
     6ae: 5f 38 00 2e  	<unknown>
     6b2: 4c 42        	<unknown>
     6b4: 42 34        	<unknown>
     6b6: 38 5f        	<unknown>
     6b8: 39 38        	<unknown>
     6ba: 00 2e        	<unknown>
     6bc: 4c 42        	<unknown>
     6be: 42 34        	<unknown>
     6c0: 38 5f        	<unknown>
     6c2: 38 38        	<unknown>
     6c4: 00 2e        	<unknown>
     6c6: 4c 42        	<unknown>
     6c8: 42 34        	<unknown>
     6ca: 38 5f        	<unknown>
     6cc: 37 38 00 2e  	lui	a6, 188419
     6d0: 4c 42        	<unknown>
     6d2: 42 35        	<unknown>
     6d4: 32 5f        	<unknown>
     6d6: 36 38        	<unknown>
     6d8: 00 2e        	<unknown>
     6da: 4c 70        	<unknown>
     6dc: 63 72 65 6c  	bgeu	a0, t1, 0xda0 <.strtab+0xda0>
     6e0: 5f 68 69 35  	<unknown>
     6e4: 38 00        	<unknown>
     6e6: 2e 4c        	<unknown>
     6e8: 42 42        	<unknown>
     6ea: 35 32        	<unknown>
     6ec: 5f 35 38 00  	<unknown>
     6f0: 2e 4c        	<unknown>
     6f2: 70 63        	<unknown>
     6f4: 72 65        	<unknown>
     6f6: 6c 5f        	<unknown>
     6f8: 68 69        	<unknown>
     6fa: 34 38        	<unknown>
     6fc: 00 2e        	<unknown>
     6fe: 4c 42        	<unknown>
     700: 42 34        	<unknown>
     702: 38 5f        	<unknown>
     704: 34 38        	<unknown>
     706: 00 2e        	<unknown>
     708: 4c 42        	<unknown>
     70a: 42 35        	<unknown>
     70c: 31 5f        	<unknown>
     70e: 34 38        	<unknown>
     710: 00 2e        	<unknown>
     712: 4c 70        	<unknown>
     714: 63 72 65 6c  	bgeu	a0, t1, 0xdd8 <.strtab+0xdd8>
     718: 5f 68 69 33  	<unknown>
     71c: 38 00        	<unknown>
     71e: 2e 4c        	<unknown>
     720: 42 42        	<unknown>
     722: 34 38        	<unknown>
     724: 5f 33 38 00  	<unknown>
     728: 2e 4c        	<unknown>
     72a: 42 42        	<unknown>
     72c: 35 32        	<unknown>
     72e: 5f 33 38 00  	<unknown>
     732: 2e 4c        	<unknown>
     734: 42 42        	<unknown>
     736: 35 31        	<unknown>
     738: 5f 33 38 00  	<unknown>
     73c: 2e 4c        	<unknown>
     73e: 70 63        	<unknown>
     740: 72 65        	<unknown>
     742: 6c 5f        	<unknown>
     744: 68 69        	<unknown>
     746: 32 38        	<unknown>
     748: 00 2e        	<unknown>
     74a: 4c 42        	<unknown>
     74c: 42 34        	<unknown>
     74e: 38 5f        	<unknown>
     750: 32 38        	<unknown>
     752: 00 2e        	<unknown>
     754: 4c 42        	<unknown>
     756: 42 36        	<unknown>
     758: 32 5f        	<unknown>
     75a: 32 38        	<unknown>
     75c: 00 2e        	<unknown>
     75e: 4c 70        	<unknown>
     760: 63 72 65 6c  	bgeu	a0, t1, 0xe24 <.strtab+0xe24>
     764: 5f 68 69 31  	<unknown>
     768: 38 00        	<unknown>
     76a: 2e 4c        	<unknown>
     76c: 42 42        	<unknown>
     76e: 35 32        	<unknown>
     770: 5f 31 38 00  	<unknown>
     774: 2e 4c        	<unknown>
     776: 42 42        	<unknown>
     778: 35 31        	<unknown>
     77a: 5f 31 38 00  	<unknown>
     77e: 2e 4c        	<unknown>
     780: 42 42        	<unknown>
     782: 34 38        	<unknown>
     784: 5f 31 30 38  	<unknown>
     788: 00 2e        	<unknown>
     78a: 4c 74        	<unknown>
     78c: 6d 70        	<unknown>
     78e: 37 00 2e 4c  	lui	zero, 312032
     792: 70 63        	<unknown>
     794: 72 65        	<unknown>
     796: 6c 5f        	<unknown>
     798: 68 69        	<unknown>
     79a: 37 00 2e 4c  	lui	zero, 312032
     79e: 42 42        	<unknown>
     7a0: 34 38        	<unknown>
     7a2: 5f 37 00 2e  	<unknown>
     7a6: 4c 43        	<unknown>
     7a8: 50 49        	<unknown>
     7aa: 35 33        	<unknown>
     7ac: 5f 37 00 2e  	<unknown>
     7b0: 4c 42        	<unknown>
     7b2: 42 32        	<unknown>
     7b4: 33 5f 37 00  	srl	t5, a4, gp
     7b8: 2e 4c        	<unknown>
     7ba: 42 42        	<unknown>
     7bc: 36 32        	<unknown>
     7be: 5f 37 00 2e  	<unknown>
     7c2: 4c 42        	<unknown>
     7c4: 42 35        	<unknown>
     7c6: 32 5f        	<unknown>
     7c8: 37 00 2e 4c  	lui	zero, 312032
     7cc: 42 42        	<unknown>
     7ce: 35 31        	<unknown>
     7d0: 5f 37 00 2e  	<unknown>
     7d4: 4c 42        	<unknown>
     7d6: 42 34        	<unknown>
     7d8: 38 5f        	<unknown>
     7da: 39 37        	<unknown>
     7dc: 00 2e        	<unknown>
     7de: 4c 42        	<unknown>
     7e0: 42 34        	<unknown>
     7e2: 38 5f        	<unknown>
     7e4: 38 37        	<unknown>
     7e6: 00 2e        	<unknown>
     7e8: 4c 70        	<unknown>
     7ea: 63 72 65 6c  	bgeu	a0, t1, 0xeae <.strtab+0xeae>
     7ee: 5f 68 69 35  	<unknown>
     7f2: 37 00 2e 4c  	lui	zero, 312032
     7f6: 42 42        	<unknown>
     7f8: 34 38        	<unknown>
     7fa: 5f 35 37 00  	<unknown>
     7fe: 2e 4c        	<unknown>
     800: 70 63        	<unknown>
     802: 72 65        	<unknown>
     804: 6c 5f        	<unknown>
     806: 68 69        	<unknown>
     808: 34 37        	<unknown>
     80a: 00 2e        	<unknown>
     80c: 4c 42        	<unknown>
     80e: 42 34        	<unknown>
     810: 38 5f        	<unknown>
     812: 34 37        	<unknown>
     814: 00 2e        	<unknown>
     816: 4c 42        	<unknown>
     818: 42 35        	<unknown>
     81a: 32 5f        	<unknown>
     81c: 34 37        	<unknown>
     81e: 00 2e        	<unknown>
     820: 4c 42        	<unknown>
     822: 42 35        	<unknown>
     824: 31 5f        	<unknown>
     826: 34 37        	<unknown>
     828: 00 2e        	<unknown>
     82a: 4c 70        	<unknown>
     82c: 63 72 65 6c  	bgeu	a0, t1, 0xef0 <.strtab+0xef0>
     830: 5f 68 69 33  	<unknown>
     834: 37 00 2e 4c  	lui	zero, 312032
     838: 42 42        	<unknown>
     83a: 34 38        	<unknown>
     83c: 5f 33 37 00  	<unknown>
     840: 2e 4c        	<unknown>
     842: 70 63        	<unknown>
     844: 72 65        	<unknown>
     846: 6c 5f        	<unknown>
     848: 68 69        	<unknown>
     84a: 32 37        	<unknown>
     84c: 00 2e        	<unknown>
     84e: 4c 42        	<unknown>
     850: 42 34        	<unknown>
     852: 38 5f        	<unknown>
     854: 32 37        	<unknown>
     856: 00 2e        	<unknown>
     858: 4c 42        	<unknown>
     85a: 42 35        	<unknown>
     85c: 33 5f 32 37  	<unknown>
     860: 00 2e        	<unknown>
     862: 4c 42        	<unknown>
     864: 42 36        	<unknown>
     866: 32 5f        	<unknown>
     868: 32 37        	<unknown>
     86a: 00 2e        	<unknown>
     86c: 4c 70        	<unknown>
     86e: 63 72 65 6c  	bgeu	a0, t1, 0xf32 <.strtab+0xf32>
     872: 5f 68 69 31  	<unknown>
     876: 37 00 2e 4c  	lui	zero, 312032
     87a: 42 42        	<unknown>
     87c: 34 38        	<unknown>
     87e: 5f 31 37 00  	<unknown>
     882: 2e 4c        	<unknown>
     884: 42 42        	<unknown>
     886: 35 33        	<unknown>
     888: 5f 31 37 00  	<unknown>
     88c: 2e 4c        	<unknown>
     88e: 42 42        	<unknown>
     890: 36 32        	<unknown>
     892: 5f 31 37 00  	<unknown>
     896: 2e 4c        	<unknown>
     898: 42 42        	<unknown>
     89a: 35 32        	<unknown>
     89c: 5f 31 37 00  	<unknown>
     8a0: 2e 4c        	<unknown>
     8a2: 42 42        	<unknown>
     8a4: 35 31        	<unknown>
     8a6: 5f 31 37 00  	<unknown>
     8aa: 2e 4c        	<unknown>
     8ac: 42 42        	<unknown>
     8ae: 34 38        	<unknown>
     8b0: 5f 31 31 37  	<unknown>
     8b4: 00 2e        	<unknown>
     8b6: 4c 42        	<unknown>
     8b8: 42 34        	<unknown>
     8ba: 38 5f        	<unknown>
     8bc: 31 30        	<unknown>
     8be: 37 00 2e 4c  	lui	zero, 312032
     8c2: 74 6d        	<unknown>
     8c4: 70 36        	<unknown>
     8c6: 00 2e        	<unknown>
     8c8: 4c 70        	<unknown>
     8ca: 63 72 65 6c  	bgeu	a0, t1, 0xf8e <.strtab+0xf8e>
     8ce: 5f 68 69 36  	<unknown>
     8d2: 00 2e        	<unknown>
     8d4: 4c 42        	<unknown>
     8d6: 42 31        	<unknown>
     8d8: 37 5f 36 00  	lui	t5, 869
     8dc: 2e 4c        	<unknown>
     8de: 43 50 49 35  	<unknown>
     8e2: 33 5f 36 00  	srl	t5, a2, gp
     8e6: 2e 4c        	<unknown>
     8e8: 42 42        	<unknown>
     8ea: 35 33        	<unknown>
     8ec: 5f 36 00 2e  	<unknown>
     8f0: 4c 42        	<unknown>
     8f2: 42 36        	<unknown>
     8f4: 32 5f        	<unknown>
     8f6: 36 00        	<unknown>
     8f8: 2e 4c        	<unknown>
     8fa: 42 42        	<unknown>
     8fc: 35 32        	<unknown>
     8fe: 5f 36 00 2e  	<unknown>
     902: 4c 42        	<unknown>
     904: 42 34        	<unknown>
     906: 38 5f        	<unknown>
     908: 39 36        	<unknown>
     90a: 00 2e        	<unknown>
     90c: 4c 42        	<unknown>
     90e: 42 34        	<unknown>
     910: 38 5f        	<unknown>
     912: 38 36        	<unknown>
     914: 00 2e        	<unknown>
     916: 4c 42        	<unknown>
     918: 42 34        	<unknown>
     91a: 38 5f        	<unknown>
     91c: 37 36 00 2e  	lui	a2, 188419
     920: 4c 42        	<unknown>
     922: 42 35        	<unknown>
     924: 32 5f        	<unknown>
     926: 36 36        	<unknown>
     928: 00 2e        	<unknown>
     92a: 4c 70        	<unknown>
     92c: 63 72 65 6c  	bgeu	a0, t1, 0xff0 <.strtab+0xff0>
     930: 5f 68 69 35  	<unknown>
     934: 36 00        	<unknown>
     936: 2e 4c        	<unknown>
     938: 42 42        	<unknown>
     93a: 35 32        	<unknown>
     93c: 5f 35 36 00  	<unknown>
     940: 2e 4c        	<unknown>
     942: 70 63        	<unknown>
     944: 72 65        	<unknown>
     946: 6c 5f        	<unknown>
     948: 68 69        	<unknown>
     94a: 34 36        	<unknown>
     94c: 00 2e        	<unknown>
     94e: 4c 42        	<unknown>
     950: 42 35        	<unknown>
     952: 32 5f        	<unknown>
     954: 34 36        	<unknown>
     956: 00 2e        	<unknown>
     958: 4c 70        	<unknown>
     95a: 63 72 65 6c  	bgeu	a0, t1, 0x101e <.strtab+0x101e>
     95e: 5f 68 69 33  	<unknown>
     962: 36 00        	<unknown>
     964: 2e 4c        	<unknown>
     966: 42 42        	<unknown>
     968: 35 33        	<unknown>
     96a: 5f 33 36 00  	<unknown>
     96e: 2e 4c        	<unknown>
     970: 42 42        	<unknown>
     972: 35 32        	<unknown>
     974: 5f 33 36 00  	<unknown>
     978: 2e 4c        	<unknown>
     97a: 42 42        	<unknown>
     97c: 35 31        	<unknown>
     97e: 5f 33 36 00  	<unknown>
     982: 2e 4c        	<unknown>
     984: 70 63        	<unknown>
     986: 72 65        	<unknown>
     988: 6c 5f        	<unknown>
     98a: 68 69        	<unknown>
     98c: 32 36        	<unknown>
     98e: 00 2e        	<unknown>
     990: 4c 42        	<unknown>
     992: 42 34        	<unknown>
     994: 38 5f        	<unknown>
     996: 32 36        	<unknown>
     998: 00 2e        	<unknown>
     99a: 4c 42        	<unknown>
     99c: 42 35        	<unknown>
     99e: 33 5f 32 36  	<unknown>
     9a2: 00 2e        	<unknown>
     9a4: 4c 42        	<unknown>
     9a6: 42 35        	<unknown>
     9a8: 32 5f        	<unknown>
     9aa: 32 36        	<unknown>
     9ac: 00 2e        	<unknown>
     9ae: 4c 42        	<unknown>
     9b0: 42 35        	<unknown>
     9b2: 31 5f        	<unknown>
     9b4: 32 36        	<unknown>
     9b6: 00 2e        	<unknown>
     9b8: 4c 70        	<unknown>
     9ba: 63 72 65 6c  	bgeu	a0, t1, 0x107e <.strtab+0x107e>
     9be: 5f 68 69 31  	<unknown>
     9c2: 36 00        	<unknown>
     9c4: 2e 4c        	<unknown>
     9c6: 43 50 49 35  	<unknown>
     9ca: 33 5f 31 36  	<unknown>
     9ce: 00 2e        	<unknown>
     9d0: 4c 42        	<unknown>
     9d2: 42 35        	<unknown>
     9d4: 32 5f        	<unknown>
     9d6: 31 36        	<unknown>
     9d8: 00 2e        	<unknown>
     9da: 4c 42        	<unknown>
     9dc: 42 35        	<unknown>
     9de: 31 5f        	<unknown>
     9e0: 31 36        	<unknown>
     9e2: 00 2e        	<unknown>
     9e4: 4c 42        	<unknown>
     9e6: 42 34        	<unknown>
     9e8: 38 5f        	<unknown>
     9ea: 31 31        	<unknown>
     9ec: 36 00        	<unknown>
     9ee: 2e 4c        	<unknown>
     9f0: 42 42        	<unknown>
     9f2: 34 38        	<unknown>
     9f4: 5f 31 30 36  	<unknown>
     9f8: 00 2e        	<unknown>
     9fa: 4c 74        	<unknown>
     9fc: 6d 70        	<unknown>
     9fe: 35 00        	<unknown>
     a00: 2e 4c        	<unknown>
     a02: 70 63        	<unknown>
     a04: 72 65        	<unknown>
     a06: 6c 5f        	<unknown>
     a08: 68 69        	<unknown>
     a0a: 35 00        	<unknown>
     a0c: 2e 4c        	<unknown>
     a0e: 42 42        	<unknown>
     a10: 34 39        	<unknown>
     a12: 5f 35 00 2e  	<unknown>
     a16: 4c 42        	<unknown>
     a18: 42 34        	<unknown>
     a1a: 38 5f        	<unknown>
     a1c: 35 00        	<unknown>
     a1e: 2e 4c        	<unknown>
     a20: 42 42        	<unknown>
     a22: 31 37        	<unknown>
     a24: 5f 35 00 2e  	<unknown>
     a28: 4c 43        	<unknown>
     a2a: 50 49        	<unknown>
     a2c: 35 33        	<unknown>
     a2e: 5f 35 00 2e  	<unknown>
     a32: 4c 42        	<unknown>
     a34: 42 35        	<unknown>
     a36: 33 5f 35 00  	srl	t5, a0, gp
     a3a: 2e 4c        	<unknown>
     a3c: 42 42        	<unknown>
     a3e: 32 33        	<unknown>
     a40: 5f 35 00 2e  	<unknown>
     a44: 4c 42        	<unknown>
     a46: 42 35        	<unknown>
     a48: 31 5f        	<unknown>
     a4a: 35 00        	<unknown>
     a4c: 2e 4c        	<unknown>
     a4e: 42 42        	<unknown>
     a50: 34 38        	<unknown>
     a52: 5f 39 35 00  	<unknown>
     a56: 2e 4c        	<unknown>
     a58: 42 42        	<unknown>
     a5a: 34 38        	<unknown>
     a5c: 5f 37 35 00  	<unknown>
     a60: 2e 4c        	<unknown>
     a62: 42 42        	<unknown>
     a64: 35 32        	<unknown>
     a66: 5f 37 35 00  	<unknown>
     a6a: 2e 4c        	<unknown>
     a6c: 70 63        	<unknown>
     a6e: 72 65        	<unknown>
     a70: 6c 5f        	<unknown>
     a72: 68 69        	<unknown>
     a74: 36 35        	<unknown>
     a76: 00 2e        	<unknown>
     a78: 4c 42        	<unknown>
     a7a: 42 34        	<unknown>
     a7c: 38 5f        	<unknown>
     a7e: 36 35        	<unknown>
     a80: 00 2e        	<unknown>
     a82: 4c 42        	<unknown>
     a84: 42 35        	<unknown>
     a86: 32 5f        	<unknown>
     a88: 36 35        	<unknown>
     a8a: 00 2e        	<unknown>
     a8c: 4c 70        	<unknown>
     a8e: 63 72 65 6c  	bgeu	a0, t1, 0x1152 <.strtab+0x1152>
     a92: 5f 68 69 35  	<unknown>
     a96: 35 00        	<unknown>
     a98: 2e 4c        	<unknown>
     a9a: 42 42        	<unknown>
     a9c: 34 38        	<unknown>
     a9e: 5f 35 35 00  	<unknown>
     aa2: 2e 4c        	<unknown>
     aa4: 70 63        	<unknown>
     aa6: 72 65        	<unknown>
     aa8: 6c 5f        	<unknown>
     aaa: 68 69        	<unknown>
     aac: 34 35        	<unknown>
     aae: 00 2e        	<unknown>
     ab0: 4c 42        	<unknown>
     ab2: 42 34        	<unknown>
     ab4: 38 5f        	<unknown>
     ab6: 34 35        	<unknown>
     ab8: 00 2e        	<unknown>
     aba: 4c 42        	<unknown>
     abc: 42 35        	<unknown>
     abe: 32 5f        	<unknown>
     ac0: 34 35        	<unknown>
     ac2: 00 2e        	<unknown>
     ac4: 4c 42        	<unknown>
     ac6: 42 35        	<unknown>
     ac8: 31 5f        	<unknown>
     aca: 34 35        	<unknown>
     acc: 00 2e        	<unknown>
     ace: 4c 70        	<unknown>
     ad0: 63 72 65 6c  	bgeu	a0, t1, 0x1194 <.strtab+0x1194>
     ad4: 5f 68 69 33  	<unknown>
     ad8: 35 00        	<unknown>
     ada: 2e 4c        	<unknown>
     adc: 42 42        	<unknown>
     ade: 34 38        	<unknown>
     ae0: 5f 33 35 00  	<unknown>
     ae4: 2e 4c        	<unknown>
     ae6: 42 42        	<unknown>
     ae8: 35 33        	<unknown>
     aea: 5f 33 35 00  	<unknown>
     aee: 2e 4c        	<unknown>
     af0: 42 42        	<unknown>
     af2: 35 31        	<unknown>
     af4: 5f 33 35 00  	<unknown>
     af8: 2e 4c        	<unknown>
     afa: 70 63        	<unknown>
     afc: 72 65        	<unknown>
     afe: 6c 5f        	<unknown>
     b00: 68 69        	<unknown>
     b02: 32 35        	<unknown>
     b04: 00 2e        	<unknown>
     b06: 4c 42        	<unknown>
     b08: 42 35        	<unknown>
     b0a: 33 5f 32 35  	<unknown>
     b0e: 00 2e        	<unknown>
     b10: 4c 42        	<unknown>
     b12: 42 36        	<unknown>
     b14: 32 5f        	<unknown>
     b16: 32 35        	<unknown>
     b18: 00 2e        	<unknown>
     b1a: 4c 42        	<unknown>
     b1c: 42 35        	<unknown>
     b1e: 32 5f        	<unknown>
     b20: 32 35        	<unknown>
     b22: 00 2e        	<unknown>
     b24: 4c 70        	<unknown>
     b26: 63 72 65 6c  	bgeu	a0, t1, 0x11ea <.strtab+0x11ea>
     b2a: 5f 68 69 31  	<unknown>
     b2e: 35 00        	<unknown>
     b30: 2e 4c        	<unknown>
     b32: 42 42        	<unknown>
     b34: 34 38        	<unknown>
     b36: 5f 31 35 00  	<unknown>
     b3a: 2e 4c        	<unknown>
     b3c: 42 42        	<unknown>
     b3e: 31 37        	<unknown>
     b40: 5f 31 35 00  	<unknown>
     b44: 2e 4c        	<unknown>
     b46: 43 50 49 35  	<unknown>
     b4a: 33 5f 31 35  	<unknown>
     b4e: 00 2e        	<unknown>
     b50: 4c 42        	<unknown>
     b52: 42 35        	<unknown>
     b54: 33 5f 31 35  	<unknown>
     b58: 00 2e        	<unknown>
     b5a: 4c 42        	<unknown>
     b5c: 42 36        	<unknown>
     b5e: 32 5f        	<unknown>
     b60: 31 35        	<unknown>
     b62: 00 2e        	<unknown>
     b64: 4c 42        	<unknown>
     b66: 42 35        	<unknown>
     b68: 31 5f        	<unknown>
     b6a: 31 35        	<unknown>
     b6c: 00 2e        	<unknown>
     b6e: 4c 42        	<unknown>
     b70: 42 34        	<unknown>
     b72: 38 5f        	<unknown>
     b74: 31 31        	<unknown>
     b76: 35 00        	<unknown>
     b78: 2e 4c        	<unknown>
     b7a: 74 6d        	<unknown>
     b7c: 70 34        	<unknown>
     b7e: 00 2e        	<unknown>
     b80: 4c 70        	<unknown>
     b82: 63 72 65 6c  	bgeu	a0, t1, 0x1246 <.strtab+0x1246>
     b86: 5f 68 69 34  	<unknown>
     b8a: 00 2e        	<unknown>
     b8c: 4c 42        	<unknown>
     b8e: 42 34        	<unknown>
     b90: 38 5f        	<unknown>
     b92: 34 00        	<unknown>
     b94: 2e 4c        	<unknown>
     b96: 42 42        	<unknown>
     b98: 31 37        	<unknown>
     b9a: 5f 34 00 2e  	<unknown>
     b9e: 4c 42        	<unknown>
     ba0: 42 31        	<unknown>
     ba2: 36 5f        	<unknown>
     ba4: 34 00        	<unknown>
     ba6: 2e 4c        	<unknown>
     ba8: 42 42        	<unknown>
     baa: 35 34        	<unknown>
     bac: 5f 34 00 2e  	<unknown>
     bb0: 4c 42        	<unknown>
     bb2: 42 33        	<unknown>
     bb4: 34 5f        	<unknown>
     bb6: 34 00        	<unknown>
     bb8: 2e 4c        	<unknown>
     bba: 43 50 49 35  	<unknown>
     bbe: 33 5f 34 00  	srl	t5, s0, gp
     bc2: 2e 4c        	<unknown>
     bc4: 42 42        	<unknown>
     bc6: 35 33        	<unknown>
     bc8: 5f 34 00 2e  	<unknown>
     bcc: 4c 42        	<unknown>
     bce: 42 33        	<unknown>
     bd0: 33 5f 34 00  	srl	t5, s0, gp
     bd4: 2e 4c        	<unknown>
     bd6: 42 42        	<unknown>
     bd8: 32 33        	<unknown>
     bda: 5f 34 00 2e  	<unknown>
     bde: 4c 43        	<unknown>
     be0: 50 49        	<unknown>
     be2: 35 32        	<unknown>
     be4: 5f 34 00 2e  	<unknown>
     be8: 4c 42        	<unknown>
     bea: 42 35        	<unknown>
     bec: 32 5f        	<unknown>
     bee: 34 00        	<unknown>
     bf0: 2e 4c        	<unknown>
     bf2: 42 42        	<unknown>
     bf4: 35 31        	<unknown>
     bf6: 5f 34 00 2e  	<unknown>
     bfa: 4c 42        	<unknown>
     bfc: 42 33        	<unknown>
     bfe: 31 5f        	<unknown>
     c00: 34 00        	<unknown>
     c02: 2e 4c        	<unknown>
     c04: 42 42        	<unknown>
     c06: 32 31        	<unknown>
     c08: 5f 34 00 2e  	<unknown>
     c0c: 4c 42        	<unknown>
     c0e: 42 34        	<unknown>
     c10: 38 5f        	<unknown>
     c12: 39 34        	<unknown>
     c14: 00 2e        	<unknown>
     c16: 4c 42        	<unknown>
     c18: 42 34        	<unknown>
     c1a: 38 5f        	<unknown>
     c1c: 38 34        	<unknown>
     c1e: 00 2e        	<unknown>
     c20: 4c 42        	<unknown>
     c22: 42 35        	<unknown>
     c24: 32 5f        	<unknown>
     c26: 37 34 00 2e  	lui	s0, 188419
     c2a: 4c 70        	<unknown>
     c2c: 63 72 65 6c  	bgeu	a0, t1, 0x12f0 <.strtab+0x12f0>
     c30: 5f 68 69 36  	<unknown>
     c34: 34 00        	<unknown>
     c36: 2e 4c        	<unknown>
     c38: 42 42        	<unknown>
     c3a: 34 38        	<unknown>
     c3c: 5f 36 34 00  	<unknown>
     c40: 2e 4c        	<unknown>
     c42: 70 63        	<unknown>
     c44: 72 65        	<unknown>
     c46: 6c 5f        	<unknown>
     c48: 68 69        	<unknown>
     c4a: 35 34        	<unknown>
     c4c: 00 2e        	<unknown>
     c4e: 4c 42        	<unknown>
     c50: 42 34        	<unknown>
     c52: 38 5f        	<unknown>
     c54: 35 34        	<unknown>
     c56: 00 2e        	<unknown>
     c58: 4c 42        	<unknown>
     c5a: 42 35        	<unknown>
     c5c: 32 5f        	<unknown>
     c5e: 35 34        	<unknown>
     c60: 00 2e        	<unknown>
     c62: 4c 70        	<unknown>
     c64: 63 72 65 6c  	bgeu	a0, t1, 0x1328 <.strtab+0x1328>
     c68: 5f 68 69 34  	<unknown>
     c6c: 34 00        	<unknown>
     c6e: 2e 4c        	<unknown>
     c70: 42 42        	<unknown>
     c72: 34 38        	<unknown>
     c74: 5f 34 34 00  	<unknown>
     c78: 2e 4c        	<unknown>
     c7a: 42 42        	<unknown>
     c7c: 35 32        	<unknown>
     c7e: 5f 34 34 00  	<unknown>
     c82: 2e 4c        	<unknown>
     c84: 42 42        	<unknown>
     c86: 35 31        	<unknown>
     c88: 5f 34 34 00  	<unknown>
     c8c: 2e 4c        	<unknown>
     c8e: 70 63        	<unknown>
     c90: 72 65        	<unknown>
     c92: 6c 5f        	<unknown>
     c94: 68 69        	<unknown>
     c96: 33 34 00 2e  	<unknown>
     c9a: 4c 42        	<unknown>
     c9c: 42 34        	<unknown>
     c9e: 38 5f        	<unknown>
     ca0: 33 34 00 2e  	<unknown>
     ca4: 4c 42        	<unknown>
     ca6: 42 35        	<unknown>
     ca8: 31 5f        	<unknown>
     caa: 33 34 00 2e  	<unknown>
     cae: 4c 70        	<unknown>
     cb0: 63 72 65 6c  	bgeu	a0, t1, 0x1374 <.strtab+0x1374>
     cb4: 5f 68 69 32  	<unknown>
     cb8: 34 00        	<unknown>
     cba: 2e 4c        	<unknown>
     cbc: 42 42        	<unknown>
     cbe: 34 38        	<unknown>
     cc0: 5f 32 34 00  	<unknown>
     cc4: 2e 4c        	<unknown>
     cc6: 42 42        	<unknown>
     cc8: 35 33        	<unknown>
     cca: 5f 32 34 00  	<unknown>
     cce: 2e 4c        	<unknown>
     cd0: 42 42        	<unknown>
     cd2: 36 32        	<unknown>
     cd4: 5f 32 34 00  	<unknown>
     cd8: 2e 4c        	<unknown>
     cda: 42 42        	<unknown>
     cdc: 35 32        	<unknown>
     cde: 5f 32 34 00  	<unknown>
     ce2: 2e 4c        	<unknown>
     ce4: 42 42        	<unknown>
     ce6: 35 31        	<unknown>
     ce8: 5f 32 34 00  	<unknown>
     cec: 2e 4c        	<unknown>
     cee: 70 63        	<unknown>
     cf0: 72 65        	<unknown>
     cf2: 6c 5f        	<unknown>
     cf4: 68 69        	<unknown>
     cf6: 31 34        	<unknown>
     cf8: 00 2e        	<unknown>
     cfa: 4c 42        	<unknown>
     cfc: 42 34        	<unknown>
     cfe: 38 5f        	<unknown>
     d00: 31 34        	<unknown>
     d02: 00 2e        	<unknown>
     d04: 4c 43        	<unknown>
     d06: 50 49        	<unknown>
     d08: 35 33        	<unknown>
     d0a: 5f 31 34 00  	<unknown>
     d0e: 2e 4c        	<unknown>
     d10: 42 42        	<unknown>
     d12: 35 33        	<unknown>
     d14: 5f 31 34 00  	<unknown>
     d18: 2e 4c        	<unknown>
     d1a: 42 42        	<unknown>
     d1c: 35 32        	<unknown>
     d1e: 5f 31 34 00  	<unknown>
     d22: 2e 4c        	<unknown>
     d24: 42 42        	<unknown>
     d26: 35 31        	<unknown>
     d28: 5f 31 34 00  	<unknown>
     d2c: 2e 4c        	<unknown>
     d2e: 42 42        	<unknown>
     d30: 34 38        	<unknown>
     d32: 5f 31 31 34  	<unknown>
     d36: 00 2e        	<unknown>
     d38: 4c 42        	<unknown>
     d3a: 42 34        	<unknown>
     d3c: 38 5f        	<unknown>
     d3e: 31 30        	<unknown>
     d40: 34 00        	<unknown>
     d42: 2e 4c        	<unknown>
     d44: 74 6d        	<unknown>
     d46: 70 33        	<unknown>
     d48: 00 2e        	<unknown>
     d4a: 4c 70        	<unknown>
     d4c: 63 72 65 6c  	bgeu	a0, t1, 0x1410 <.strtab+0x1410>
     d50: 5f 68 69 33  	<unknown>
     d54: 00 2e        	<unknown>
     d56: 4c 42        	<unknown>
     d58: 42 34        	<unknown>
     d5a: 39 5f        	<unknown>
     d5c: 33 00 2e 4c  	<unknown>
     d60: 42 42        	<unknown>
     d62: 34 38        	<unknown>
     d64: 5f 33 00 2e  	<unknown>
     d68: 4c 42        	<unknown>
     d6a: 42 33        	<unknown>
     d6c: 34 5f        	<unknown>
     d6e: 33 00 2e 4c  	<unknown>
     d72: 43 50 49 35  	<unknown>
     d76: 33 5f 33 00  	srl	t5, t1, gp
     d7a: 2e 4c        	<unknown>
     d7c: 42 42        	<unknown>
     d7e: 33 33 5f 33  	<unknown>
     d82: 00 2e        	<unknown>
     d84: 4c 42        	<unknown>
     d86: 42 32        	<unknown>
     d88: 33 5f 33 00  	srl	t5, t1, gp
     d8c: 2e 4c        	<unknown>
     d8e: 42 42        	<unknown>
     d90: 36 32        	<unknown>
     d92: 5f 33 00 2e  	<unknown>
     d96: 4c 43        	<unknown>
     d98: 50 49        	<unknown>
     d9a: 35 32        	<unknown>
     d9c: 5f 33 00 2e  	<unknown>
     da0: 4c 42        	<unknown>
     da2: 42 35        	<unknown>
     da4: 32 5f        	<unknown>
     da6: 33 00 2e 4c  	<unknown>
     daa: 42 42        	<unknown>
     dac: 33 31 5f 33  	<unknown>
     db0: 00 2e        	<unknown>
     db2: 4c 42        	<unknown>
     db4: 42 32        	<unknown>
     db6: 31 5f        	<unknown>
     db8: 33 00 2e 4c  	<unknown>
     dbc: 42 42        	<unknown>
     dbe: 34 38        	<unknown>
     dc0: 5f 39 33 00  	<unknown>
     dc4: 2e 4c        	<unknown>
     dc6: 42 42        	<unknown>
     dc8: 34 38        	<unknown>
     dca: 5f 38 33 00  	<unknown>
     dce: 2e 4c        	<unknown>
     dd0: 42 42        	<unknown>
     dd2: 35 32        	<unknown>
     dd4: 5f 37 33 00  	<unknown>
     dd8: 2e 4c        	<unknown>
     dda: 70 63        	<unknown>
     ddc: 72 65        	<unknown>
     dde: 6c 5f        	<unknown>
     de0: 68 69        	<unknown>
     de2: 36 33        	<unknown>
     de4: 00 2e        	<unknown>
     de6: 4c 70        	<unknown>
     de8: 63 72 65 6c  	bgeu	a0, t1, 0x14ac <.strtab+0x14ac>
     dec: 5f 68 69 35  	<unknown>
     df0: 33 00 2e 4c  	<unknown>
     df4: 42 42        	<unknown>
     df6: 34 38        	<unknown>
     df8: 5f 35 33 00  	<unknown>
     dfc: 2e 4c        	<unknown>
     dfe: 42 42        	<unknown>
     e00: 35 31        	<unknown>
     e02: 5f 35 33 00  	<unknown>
     e06: 2e 4c        	<unknown>
     e08: 70 63        	<unknown>
     e0a: 72 65        	<unknown>
     e0c: 6c 5f        	<unknown>
     e0e: 68 69        	<unknown>
     e10: 34 33        	<unknown>
     e12: 00 2e        	<unknown>
     e14: 4c 42        	<unknown>
     e16: 42 34        	<unknown>
     e18: 38 5f        	<unknown>
     e1a: 34 33        	<unknown>
     e1c: 00 2e        	<unknown>
     e1e: 4c 70        	<unknown>
     e20: 63 72 65 6c  	bgeu	a0, t1, 0x14e4 <.strtab+0x14e4>
     e24: 5f 68 69 33  	<unknown>
     e28: 33 00 2e 4c  	<unknown>
     e2c: 42 42        	<unknown>
     e2e: 35 33        	<unknown>
     e30: 5f 33 33 00  	<unknown>
     e34: 2e 4c        	<unknown>
     e36: 42 42        	<unknown>
     e38: 35 32        	<unknown>
     e3a: 5f 33 33 00  	<unknown>
     e3e: 2e 4c        	<unknown>
     e40: 70 63        	<unknown>
     e42: 72 65        	<unknown>
     e44: 6c 5f        	<unknown>
     e46: 68 69        	<unknown>
     e48: 32 33        	<unknown>
     e4a: 00 2e        	<unknown>
     e4c: 4c 42        	<unknown>
     e4e: 42 36        	<unknown>
     e50: 32 5f        	<unknown>
     e52: 32 33        	<unknown>
     e54: 00 2e        	<unknown>
     e56: 4c 42        	<unknown>
     e58: 42 35        	<unknown>
     e5a: 31 5f        	<unknown>
     e5c: 32 33        	<unknown>
     e5e: 00 2e        	<unknown>
     e60: 4c 70        	<unknown>
     e62: 63 72 65 6c  	bgeu	a0, t1, 0x1526 <.strtab+0x1526>
     e66: 5f 68 69 31  	<unknown>
     e6a: 33 00 2e 4c  	<unknown>
     e6e: 42 42        	<unknown>
     e70: 34 38        	<unknown>
     e72: 5f 31 33 00  	<unknown>
     e76: 2e 4c        	<unknown>
     e78: 42 42        	<unknown>
     e7a: 31 37        	<unknown>
     e7c: 5f 31 33 00  	<unknown>
     e80: 2e 4c        	<unknown>
     e82: 43 50 49 35  	<unknown>
     e86: 33 5f 31 33  	<unknown>
     e8a: 00 2e        	<unknown>
     e8c: 4c 42        	<unknown>
     e8e: 42 36        	<unknown>
     e90: 32 5f        	<unknown>
     e92: 31 33        	<unknown>
     e94: 00 2e        	<unknown>
     e96: 4c 42        	<unknown>
     e98: 42 35        	<unknown>
     e9a: 32 5f        	<unknown>
     e9c: 31 33        	<unknown>
     e9e: 00 2e        	<unknown>
     ea0: 4c 42        	<unknown>
     ea2: 42 34        	<unknown>
     ea4: 38 5f        	<unknown>
     ea6: 31 31        	<unknown>
     ea8: 33 00 2e 4c  	<unknown>
     eac: 42 42        	<unknown>
     eae: 34 38        	<unknown>
     eb0: 5f 31 30 33  	<unknown>
     eb4: 00 2e        	<unknown>
     eb6: 4c 2e        	<unknown>
     eb8: 73 74 72 2e  	csrrci	s0, 743, 4
     ebc: 33 00 2e 4c  	<unknown>
     ec0: 74 6d        	<unknown>
     ec2: 70 32        	<unknown>
     ec4: 00 2e        	<unknown>
     ec6: 4c 70        	<unknown>
     ec8: 63 72 65 6c  	bgeu	a0, t1, 0x158c <.strtab+0x158c>
     ecc: 5f 68 69 32  	<unknown>
     ed0: 00 2e        	<unknown>
     ed2: 4c 4a        	<unknown>
     ed4: 54 49        	<unknown>
     ed6: 34 38        	<unknown>
     ed8: 5f 32 00 2e  	<unknown>
     edc: 4c 42        	<unknown>
     ede: 42 34        	<unknown>
     ee0: 38 5f        	<unknown>
     ee2: 32 00        	<unknown>
     ee4: 2e 4c        	<unknown>
     ee6: 42 42        	<unknown>
     ee8: 35 36        	<unknown>
     eea: 5f 32 00 2e  	<unknown>
     eee: 4c 42        	<unknown>
     ef0: 42 31        	<unknown>
     ef2: 36 5f        	<unknown>
     ef4: 32 00        	<unknown>
     ef6: 2e 4c        	<unknown>
     ef8: 42 42        	<unknown>
     efa: 35 5f        	<unknown>
     efc: 32 00        	<unknown>
     efe: 2e 4c        	<unknown>
     f00: 42 42        	<unknown>
     f02: 35 34        	<unknown>
     f04: 5f 32 00 2e  	<unknown>
     f08: 4c 42        	<unknown>
     f0a: 42 33        	<unknown>
     f0c: 34 5f        	<unknown>
     f0e: 32 00        	<unknown>
     f10: 2e 4c        	<unknown>
     f12: 43 50 49 35  	<unknown>
     f16: 33 5f 32 00  	srl	t5, tp, gp
     f1a: 2e 4c        	<unknown>
     f1c: 42 42        	<unknown>
     f1e: 35 33        	<unknown>
     f20: 5f 32 00 2e  	<unknown>
     f24: 4c 42        	<unknown>
     f26: 42 31        	<unknown>
     f28: 33 5f 32 00  	srl	t5, tp, gp
     f2c: 2e 4c        	<unknown>
     f2e: 43 50 49 35  	<unknown>
     f32: 32 5f        	<unknown>
     f34: 32 00        	<unknown>
     f36: 2e 4c        	<unknown>
     f38: 42 42        	<unknown>
     f3a: 33 32 5f 32  	<unknown>
     f3e: 00 2e        	<unknown>
     f40: 4c 42        	<unknown>
     f42: 42 31        	<unknown>
     f44: 32 5f        	<unknown>
     f46: 32 00        	<unknown>
     f48: 2e 4c        	<unknown>
     f4a: 42 42        	<unknown>
     f4c: 36 31        	<unknown>
     f4e: 5f 32 00 2e  	<unknown>
     f52: 4c 42        	<unknown>
     f54: 42 35        	<unknown>
     f56: 31 5f        	<unknown>
     f58: 32 00        	<unknown>
     f5a: 2e 4c        	<unknown>
     f5c: 42 42        	<unknown>
     f5e: 33 31 5f 32  	<unknown>
     f62: 00 2e        	<unknown>
     f64: 4c 42        	<unknown>
     f66: 42 32        	<unknown>
     f68: 31 5f        	<unknown>
     f6a: 32 00        	<unknown>
     f6c: 2e 4c        	<unknown>
     f6e: 42 42        	<unknown>
     f70: 31 31        	<unknown>
     f72: 5f 32 00 2e  	<unknown>
     f76: 4c 42        	<unknown>
     f78: 42 31        	<unknown>
     f7a: 30 5f        	<unknown>
     f7c: 32 00        	<unknown>
     f7e: 2e 4c        	<unknown>
     f80: 42 42        	<unknown>
     f82: 34 38        	<unknown>
     f84: 5f 37 32 00  	<unknown>
     f88: 2e 4c        	<unknown>
     f8a: 70 63        	<unknown>
     f8c: 72 65        	<unknown>
     f8e: 6c 5f        	<unknown>
     f90: 68 69        	<unknown>
     f92: 36 32        	<unknown>
     f94: 00 2e        	<unknown>
     f96: 4c 70        	<unknown>
     f98: 63 72 65 6c  	bgeu	a0, t1, 0x165c <.strtab+0x165c>
     f9c: 5f 68 69 35  	<unknown>
     fa0: 32 00        	<unknown>
     fa2: 2e 4c        	<unknown>
     fa4: 42 42        	<unknown>
     fa6: 34 38        	<unknown>
     fa8: 5f 35 32 00  	<unknown>
     fac: 2e 4c        	<unknown>
     fae: 42 42        	<unknown>
     fb0: 35 31        	<unknown>
     fb2: 5f 35 32 00  	<unknown>
     fb6: 2e 4c        	<unknown>
     fb8: 70 63        	<unknown>
     fba: 72 65        	<unknown>
     fbc: 6c 5f        	<unknown>
     fbe: 68 69        	<unknown>
     fc0: 34 32        	<unknown>
     fc2: 00 2e        	<unknown>
     fc4: 4c 42        	<unknown>
     fc6: 42 35        	<unknown>
     fc8: 31 5f        	<unknown>
     fca: 34 32        	<unknown>
     fcc: 00 2e        	<unknown>
     fce: 4c 70        	<unknown>
     fd0: 63 72 65 6c  	bgeu	a0, t1, 0x1694 <.strtab+0x1694>
     fd4: 5f 68 69 33  	<unknown>
     fd8: 32 00        	<unknown>
     fda: 2e 4c        	<unknown>
     fdc: 42 42        	<unknown>
     fde: 34 38        	<unknown>
     fe0: 5f 33 32 00  	<unknown>
     fe4: 2e 4c        	<unknown>
     fe6: 42 42        	<unknown>
     fe8: 35 33        	<unknown>
     fea: 5f 33 32 00  	<unknown>
     fee: 2e 4c        	<unknown>
     ff0: 42 42        	<unknown>
     ff2: 35 32        	<unknown>
     ff4: 5f 33 32 00  	<unknown>
     ff8: 2e 4c        	<unknown>
     ffa: 70 63        	<unknown>
     ffc: 72 65        	<unknown>
     ffe: 6c 5f        	<unknown>
    1000: 68 69        	<unknown>
    1002: 32 32        	<unknown>
    1004: 00 2e        	<unknown>
    1006: 4c 42        	<unknown>
    1008: 42 34        	<unknown>
    100a: 38 5f        	<unknown>
    100c: 32 32        	<unknown>
    100e: 00 2e        	<unknown>
    1010: 4c 42        	<unknown>
    1012: 42 36        	<unknown>
    1014: 32 5f        	<unknown>
    1016: 32 32        	<unknown>
    1018: 00 2e        	<unknown>
    101a: 4c 42        	<unknown>
    101c: 42 35        	<unknown>
    101e: 32 5f        	<unknown>
    1020: 32 32        	<unknown>
    1022: 00 2e        	<unknown>
    1024: 4c 42        	<unknown>
    1026: 42 35        	<unknown>
    1028: 31 5f        	<unknown>
    102a: 32 32        	<unknown>
    102c: 00 2e        	<unknown>
    102e: 4c 70        	<unknown>
    1030: 63 72 65 6c  	bgeu	a0, t1, 0x16f4 <.strtab+0x16f4>
    1034: 5f 68 69 31  	<unknown>
    1038: 32 00        	<unknown>
    103a: 2e 4c        	<unknown>
    103c: 42 42        	<unknown>
    103e: 34 38        	<unknown>
    1040: 5f 31 32 00  	<unknown>
    1044: 2e 4c        	<unknown>
    1046: 42 42        	<unknown>
    1048: 31 37        	<unknown>
    104a: 5f 31 32 00  	<unknown>
    104e: 2e 4c        	<unknown>
    1050: 43 50 49 35  	<unknown>
    1054: 33 5f 31 32  	<unknown>
    1058: 00 2e        	<unknown>
    105a: 4c 42        	<unknown>
    105c: 42 35        	<unknown>
    105e: 31 5f        	<unknown>
    1060: 31 32        	<unknown>
    1062: 00 2e        	<unknown>
    1064: 4c 42        	<unknown>
    1066: 42 34        	<unknown>
    1068: 38 5f        	<unknown>
    106a: 31 30        	<unknown>
    106c: 32 00        	<unknown>
    106e: 2e 4c        	<unknown>
    1070: 2e 73        	<unknown>
    1072: 74 72        	<unknown>
    1074: 2e 32        	<unknown>
    1076: 00 2e        	<unknown>
    1078: 4c 74        	<unknown>
    107a: 6d 70        	<unknown>
    107c: 31 00        	<unknown>
    107e: 2e 4c        	<unknown>
    1080: 70 63        	<unknown>
    1082: 72 65        	<unknown>
    1084: 6c 5f        	<unknown>
    1086: 68 69        	<unknown>
    1088: 31 00        	<unknown>
    108a: 2e 4c        	<unknown>
    108c: 42 42        	<unknown>
    108e: 38 5f        	<unknown>
    1090: 31 00        	<unknown>
    1092: 2e 4c        	<unknown>
    1094: 4a 54        	<unknown>
    1096: 49 34        	<unknown>
    1098: 38 5f        	<unknown>
    109a: 31 00        	<unknown>
    109c: 2e 4c        	<unknown>
    109e: 43 50 49 35  	<unknown>
    10a2: 33 5f 31 00  	srl	t5, sp, gp
    10a6: 2e 4c        	<unknown>
    10a8: 43 50 49 35  	<unknown>
    10ac: 32 5f        	<unknown>
    10ae: 31 00        	<unknown>
    10b0: 2e 4c        	<unknown>
    10b2: 42 42        	<unknown>
    10b4: 32 32        	<unknown>
    10b6: 5f 31 00 2e  	<unknown>
    10ba: 4c 42        	<unknown>
    10bc: 42 32        	<unknown>
    10be: 31 5f        	<unknown>
    10c0: 31 00        	<unknown>
    10c2: 2e 4c        	<unknown>
    10c4: 42 42        	<unknown>
    10c6: 34 38        	<unknown>
    10c8: 5f 39 31 00  	<unknown>
    10cc: 2e 4c        	<unknown>
    10ce: 42 42        	<unknown>
    10d0: 34 38        	<unknown>
    10d2: 5f 38 31 00  	<unknown>
    10d6: 2e 4c        	<unknown>
    10d8: 42 42        	<unknown>
    10da: 34 38        	<unknown>
    10dc: 5f 37 31 00  	<unknown>
    10e0: 2e 4c        	<unknown>
    10e2: 70 63        	<unknown>
    10e4: 72 65        	<unknown>
    10e6: 6c 5f        	<unknown>
    10e8: 68 69        	<unknown>
    10ea: 36 31        	<unknown>
    10ec: 00 2e        	<unknown>
    10ee: 4c 70        	<unknown>
    10f0: 63 72 65 6c  	bgeu	a0, t1, 0x17b4 <.strtab+0x17b4>
    10f4: 5f 68 69 35  	<unknown>
    10f8: 31 00        	<unknown>
    10fa: 2e 4c        	<unknown>
    10fc: 42 42        	<unknown>
    10fe: 34 38        	<unknown>
    1100: 5f 35 31 00  	<unknown>
    1104: 2e 4c        	<unknown>
    1106: 42 42        	<unknown>
    1108: 35 32        	<unknown>
    110a: 5f 35 31 00  	<unknown>
    110e: 2e 4c        	<unknown>
    1110: 42 42        	<unknown>
    1112: 35 31        	<unknown>
    1114: 5f 35 31 00  	<unknown>
    1118: 2e 4c        	<unknown>
    111a: 70 63        	<unknown>
    111c: 72 65        	<unknown>
    111e: 6c 5f        	<unknown>
    1120: 68 69        	<unknown>
    1122: 34 31        	<unknown>
    1124: 00 2e        	<unknown>
    1126: 4c 42        	<unknown>
    1128: 42 34        	<unknown>
    112a: 38 5f        	<unknown>
    112c: 34 31        	<unknown>
    112e: 00 2e        	<unknown>
    1130: 4c 42        	<unknown>
    1132: 42 35        	<unknown>
    1134: 32 5f        	<unknown>
    1136: 34 31        	<unknown>
    1138: 00 2e        	<unknown>
    113a: 4c 42        	<unknown>
    113c: 42 35        	<unknown>
    113e: 31 5f        	<unknown>
    1140: 34 31        	<unknown>
    1142: 00 2e        	<unknown>
    1144: 4c 70        	<unknown>
    1146: 63 72 65 6c  	bgeu	a0, t1, 0x180a <.strtab+0x180a>
    114a: 5f 68 69 33  	<unknown>
    114e: 31 00        	<unknown>
    1150: 2e 4c        	<unknown>
    1152: 42 42        	<unknown>
    1154: 35 33        	<unknown>
    1156: 5f 33 31 00  	<unknown>
    115a: 2e 4c        	<unknown>
    115c: 42 42        	<unknown>
    115e: 35 31        	<unknown>
    1160: 5f 33 31 00  	<unknown>
    1164: 2e 4c        	<unknown>
    1166: 70 63        	<unknown>
    1168: 72 65        	<unknown>
    116a: 6c 5f        	<unknown>
    116c: 68 69        	<unknown>
    116e: 32 31        	<unknown>
    1170: 00 2e        	<unknown>
    1172: 4c 42        	<unknown>
    1174: 42 34        	<unknown>
    1176: 38 5f        	<unknown>
    1178: 32 31        	<unknown>
    117a: 00 2e        	<unknown>
    117c: 4c 42        	<unknown>
    117e: 42 35        	<unknown>
    1180: 33 5f 32 31  	<unknown>
    1184: 00 2e        	<unknown>
    1186: 4c 42        	<unknown>
    1188: 42 35        	<unknown>
    118a: 32 5f        	<unknown>
    118c: 32 31        	<unknown>
    118e: 00 2e        	<unknown>
    1190: 4c 70        	<unknown>
    1192: 63 72 65 6c  	bgeu	a0, t1, 0x1856 <.strtab+0x1856>
    1196: 5f 68 69 31  	<unknown>
    119a: 31 00        	<unknown>
    119c: 2e 4c        	<unknown>
    119e: 42 42        	<unknown>
    11a0: 31 37        	<unknown>
    11a2: 5f 31 31 00  	<unknown>
    11a6: 2e 4c        	<unknown>
    11a8: 43 50 49 35  	<unknown>
    11ac: 33 5f 31 31  	<unknown>
    11b0: 00 2e        	<unknown>
    11b2: 4c 42        	<unknown>
    11b4: 42 35        	<unknown>
    11b6: 33 5f 31 31  	<unknown>
    11ba: 00 2e        	<unknown>
    11bc: 4c 42        	<unknown>
    11be: 42 32        	<unknown>
    11c0: 33 5f 31 31  	<unknown>
    11c4: 00 2e        	<unknown>
    11c6: 4c 42        	<unknown>
    11c8: 42 36        	<unknown>
    11ca: 32 5f        	<unknown>
    11cc: 31 31        	<unknown>
    11ce: 00 2e        	<unknown>
    11d0: 4c 42        	<unknown>
    11d2: 42 35        	<unknown>
    11d4: 32 5f        	<unknown>
    11d6: 31 31        	<unknown>
    11d8: 00 2e        	<unknown>
    11da: 4c 42        	<unknown>
    11dc: 42 34        	<unknown>
    11de: 38 5f        	<unknown>
    11e0: 31 31        	<unknown>
    11e2: 31 00        	<unknown>
    11e4: 2e 4c        	<unknown>
    11e6: 42 42        	<unknown>
    11e8: 34 38        	<unknown>
    11ea: 5f 31 30 31  	<unknown>
    11ee: 00 2e        	<unknown>
    11f0: 72 6f        	<unknown>
    11f2: 64 61        	<unknown>
    11f4: 74 61        	<unknown>
    11f6: 2e 73        	<unknown>
    11f8: 74 72        	<unknown>
    11fa: 31 2e        	<unknown>
    11fc: 31 00        	<unknown>
    11fe: 2e 4c        	<unknown>
    1200: 74 6d        	<unknown>
    1202: 70 30        	<unknown>
    1204: 00 2e        	<unknown>
    1206: 4c 70        	<unknown>
    1208: 63 72 65 6c  	bgeu	a0, t1, 0x18cc <.strtab+0x18cc>
    120c: 5f 68 69 30  	<unknown>
    1210: 00 2e        	<unknown>
    1212: 4c 4a        	<unknown>
    1214: 54 49        	<unknown>
    1216: 34 38        	<unknown>
    1218: 5f 30 00 2e  	<unknown>
    121c: 4c 43        	<unknown>
    121e: 50 49        	<unknown>
    1220: 35 33        	<unknown>
    1222: 5f 30 00 2e  	<unknown>
    1226: 4c 43        	<unknown>
    1228: 50 49        	<unknown>
    122a: 35 32        	<unknown>
    122c: 5f 30 00 2e  	<unknown>
    1230: 4c 42        	<unknown>
    1232: 42 34        	<unknown>
    1234: 38 5f        	<unknown>
    1236: 38 30        	<unknown>
    1238: 00 2e        	<unknown>
    123a: 4c 42        	<unknown>
    123c: 42 34        	<unknown>
    123e: 38 5f        	<unknown>
    1240: 37 30 00 2e  	lui	zero, 188419
    1244: 4c 42        	<unknown>
    1246: 42 35        	<unknown>
    1248: 32 5f        	<unknown>
    124a: 37 30 00 2e  	lui	zero, 188419
    124e: 4c 70        	<unknown>
    1250: 63 72 65 6c  	bgeu	a0, t1, 0x1914 <.strtab+0x1914>
    1254: 5f 68 69 36  	<unknown>
    1258: 30 00        	<unknown>
    125a: 2e 4c        	<unknown>
    125c: 42 42        	<unknown>
    125e: 35 32        	<unknown>
    1260: 5f 36 30 00  	<unknown>
    1264: 2e 4c        	<unknown>
    1266: 70 63        	<unknown>
    1268: 72 65        	<unknown>
    126a: 6c 5f        	<unknown>
    126c: 68 69        	<unknown>
    126e: 35 30        	<unknown>
    1270: 00 2e        	<unknown>
    1272: 4c 42        	<unknown>
    1274: 42 34        	<unknown>
    1276: 38 5f        	<unknown>
    1278: 35 30        	<unknown>
    127a: 00 2e        	<unknown>
    127c: 4c 42        	<unknown>
    127e: 42 35        	<unknown>
    1280: 32 5f        	<unknown>
    1282: 35 30        	<unknown>
    1284: 00 2e        	<unknown>
    1286: 4c 70        	<unknown>
    1288: 63 72 65 6c  	bgeu	a0, t1, 0x194c <.strtab+0x194c>
    128c: 5f 68 69 34  	<unknown>
    1290: 30 00        	<unknown>
    1292: 2e 4c        	<unknown>
    1294: 42 42        	<unknown>
    1296: 34 38        	<unknown>
    1298: 5f 34 30 00  	<unknown>
    129c: 2e 4c        	<unknown>
    129e: 70 63        	<unknown>
    12a0: 72 65        	<unknown>
    12a2: 6c 5f        	<unknown>
    12a4: 68 69        	<unknown>
    12a6: 33 30 00 2e  	<unknown>
    12aa: 4c 42        	<unknown>
    12ac: 42 34        	<unknown>
    12ae: 38 5f        	<unknown>
    12b0: 33 30 00 2e  	<unknown>
    12b4: 4c 42        	<unknown>
    12b6: 42 35        	<unknown>
    12b8: 33 5f 33 30  	<unknown>
    12bc: 00 2e        	<unknown>
    12be: 4c 42        	<unknown>
    12c0: 42 35        	<unknown>
    12c2: 32 5f        	<unknown>
    12c4: 33 30 00 2e  	<unknown>
    12c8: 4c 42        	<unknown>
    12ca: 42 35        	<unknown>
    12cc: 31 5f        	<unknown>
    12ce: 33 30 00 2e  	<unknown>
    12d2: 4c 70        	<unknown>
    12d4: 63 72 65 6c  	bgeu	a0, t1, 0x1998 <.strtab+0x1998>
    12d8: 5f 68 69 32  	<unknown>
    12dc: 30 00        	<unknown>
    12de: 2e 4c        	<unknown>
    12e0: 42 42        	<unknown>
    12e2: 36 32        	<unknown>
    12e4: 5f 32 30 00  	<unknown>
    12e8: 2e 4c        	<unknown>
    12ea: 42 42        	<unknown>
    12ec: 35 31        	<unknown>
    12ee: 5f 32 30 00  	<unknown>
    12f2: 5f 66 74 6f  	<unknown>
    12f6: 61 2e        	<unknown>
    12f8: 70 6f        	<unknown>
    12fa: 77 31 30 00  	<unknown>
    12fe: 2e 4c        	<unknown>
    1300: 70 63        	<unknown>
    1302: 72 65        	<unknown>
    1304: 6c 5f        	<unknown>
    1306: 68 69        	<unknown>
    1308: 31 30        	<unknown>
    130a: 00 2e        	<unknown>
    130c: 4c 42        	<unknown>
    130e: 42 34        	<unknown>
    1310: 38 5f        	<unknown>
    1312: 31 30        	<unknown>
    1314: 00 2e        	<unknown>
    1316: 4c 42        	<unknown>
    1318: 42 31        	<unknown>
    131a: 37 5f 31 30  	lui	t5, 197397
    131e: 00 2e        	<unknown>
    1320: 4c 43        	<unknown>
    1322: 50 49        	<unknown>
    1324: 35 33        	<unknown>
    1326: 5f 31 30 00  	<unknown>
    132a: 2e 4c        	<unknown>
    132c: 42 42        	<unknown>
    132e: 32 33        	<unknown>
    1330: 5f 31 30 00  	<unknown>
    1334: 2e 4c        	<unknown>
    1336: 42 42        	<unknown>
    1338: 36 32        	<unknown>
    133a: 5f 31 30 00  	<unknown>
    133e: 2e 4c        	<unknown>
    1340: 42 42        	<unknown>
    1342: 35 32        	<unknown>
    1344: 5f 31 30 00  	<unknown>
    1348: 2e 4c        	<unknown>
    134a: 42 42        	<unknown>
    134c: 34 38        	<unknown>
    134e: 5f 31 31 30  	<unknown>
    1352: 00 2e        	<unknown>
    1354: 4c 42        	<unknown>
    1356: 42 34        	<unknown>
    1358: 38 5f        	<unknown>
    135a: 31 30        	<unknown>
    135c: 30 00        	<unknown>

Disassembly of section .text:

00000000 <snrt_l1_next>:
       0: 37 05 00 00  	lui	a0, 0
       4: 33 05 45 00  	add	a0, a0, tp
       8: 03 25 05 00  	lw	a0, 0(a0)
       c: 03 25 c5 00  	lw	a0, 12(a0)
      10: 67 80 00 00  	ret

00000014 <snrt_l3_next>:
      14: 17 05 00 00  	auipc	a0, 0
      18: 03 25 05 00  	lw	a0, 0(a0)
      1c: 67 80 00 00  	ret

00000020 <snrt_l1alloc>:
      20: b7 05 00 00  	lui	a1, 0
      24: b3 85 45 00  	add	a1, a1, tp
      28: 03 a6 05 00  	lw	a2, 0(a1)
      2c: 83 25 c6 00  	lw	a1, 12(a2)
      30: 13 05 75 00  	addi	a0, a0, 7
      34: 13 75 85 ff  	andi	a0, a0, -8
      38: 33 85 a5 00  	add	a0, a1, a0
      3c: 23 26 a6 00  	sw	a0, 12(a2)
      40: 13 85 05 00  	mv	a0, a1
      44: 67 80 00 00  	ret

00000048 <snrt_l3alloc>:
      48: 17 06 00 00  	auipc	a2, 0
      4c: 83 25 06 00  	lw	a1, 0(a2)
      50: 33 85 a5 00  	add	a0, a1, a0
      54: 23 20 a6 00  	sw	a0, 0(a2)
      58: 13 85 05 00  	mv	a0, a1
      5c: 67 80 00 00  	ret

00000060 <snrt_l1_update_next>:
      60: b7 05 00 00  	lui	a1, 0
      64: b3 85 45 00  	add	a1, a1, tp
      68: 83 a5 05 00  	lw	a1, 0(a1)
      6c: 23 a6 a5 00  	sw	a0, 12(a1)
      70: 67 80 00 00  	ret

00000074 <snrt_alloc_init>:
      74: 73 25 30 bc  	csrr	a0, 3011
      78: 93 15 05 01  	slli	a1, a0, 16
      7c: 93 d5 05 01  	srli	a1, a1, 16
      80: 13 55 05 01  	srli	a0, a0, 16
      84: 13 05 f5 ff  	addi	a0, a0, -1
      88: 63 e0 a5 00  	bltu	a1, a0, 0x88 <snrt_alloc_init+0x14>
      8c: 37 05 00 00  	lui	a0, 0
      90: 33 05 45 00  	add	a0, a0, tp
      94: 03 25 05 00  	lw	a0, 0(a0)
      98: b7 05 00 10  	lui	a1, 65536
      9c: 23 22 b5 00  	sw	a1, 4(a0)
      a0: 37 06 02 00  	lui	a2, 32
      a4: 23 24 c5 00  	sw	a2, 8(a0)
      a8: 23 26 b5 00  	sw	a1, 12(a0)

000000ac <.Lpcrel_hi2>:
      ac: 17 05 00 00  	auipc	a0, 0
      b0: 13 05 05 00  	mv	a0, a0
      b4: 13 75 85 ff  	andi	a0, a0, -8

000000b8 <.Lpcrel_hi3>:
      b8: 97 05 00 00  	auipc	a1, 0
      bc: 93 85 05 00  	mv	a1, a1
      c0: 23 a0 a5 00  	sw	a0, 0(a1)
      c4: 23 a2 05 00  	sw	zero, 4(a1)
      c8: 23 a4 a5 00  	sw	a0, 8(a1)

000000cc <.LBB5_2>:
      cc: 67 80 00 00  	ret

000000d0 <snrt_int_cluster_set>:
      d0: b7 05 02 10  	lui	a1, 65568
      d4: 23 a0 a5 18  	sw	a0, 384(a1)
      d8: 67 80 00 00  	ret

000000dc <snrt_int_cluster_clr>:
      dc: b7 05 02 10  	lui	a1, 65568
      e0: 23 a4 a5 18  	sw	a0, 392(a1)
      e4: 67 80 00 00  	ret

000000e8 <snrt_int_clr_mcip>:
      e8: 73 25 30 bc  	csrr	a0, 3011
      ec: 93 05 10 00  	li	a1, 1
      f0: 33 95 a5 00  	sll	a0, a1, a0
      f4: b7 05 02 10  	lui	a1, 65568
      f8: 23 a4 a5 18  	sw	a0, 392(a1)

000000fc <.LBB8_1>:
      fc: 73 25 40 34  	csrr	a0, mip
     100: 13 15 c5 00  	slli	a0, a0, 12
     104: 63 40 05 00  	bltz	a0, 0x104 <.LBB8_1+0x8>
     108: 67 80 00 00  	ret

0000010c <snrt_int_set_mcip>:
     10c: 73 25 30 bc  	csrr	a0, 3011
     110: 93 05 10 00  	li	a1, 1
     114: 33 95 a5 00  	sll	a0, a1, a0
     118: b7 05 02 10  	lui	a1, 65568
     11c: 23 a0 a5 18  	sw	a0, 384(a1)
     120: 67 80 00 00  	ret

00000124 <snrt_dma_start_1d_wideptr>:
     124: 63 00 07 00  	beqz	a4, 0x124 <snrt_dma_start_1d_wideptr>
     128: 2b 00 d6 00  	<unknown>
     12c: 2b 00 b5 02  	<unknown>
     130: 2b 05 07 04  	<unknown>
     134: 67 80 00 00  	ret

00000138 <.LBB10_2>:
     138: 13 05 f0 ff  	li	a0, -1
     13c: 67 80 00 00  	ret

00000140 <snrt_dma_start_1d>:
     140: 63 00 06 00  	beqz	a2, 0x140 <snrt_dma_start_1d>
     144: 13 07 06 00  	mv	a4, a2
     148: 93 06 00 00  	li	a3, 0
     14c: 13 86 05 00  	mv	a2, a1
     150: 2b 00 d6 00  	<unknown>
     154: 93 05 00 00  	li	a1, 0
     158: 2b 00 b5 02  	<unknown>
     15c: 2b 05 07 04  	<unknown>
     160: 67 80 00 00  	ret

00000164 <.LBB11_2>:
     164: 13 05 f0 ff  	li	a0, -1
     168: 67 80 00 00  	ret

0000016c <snrt_dma_start_2d_wideptr>:
     16c: 63 00 07 00  	beqz	a4, 0x16c <snrt_dma_start_2d_wideptr>
     170: 2b 00 d6 00  	<unknown>
     174: 2b 00 b5 02  	<unknown>
     178: 2b 00 f8 0c  	<unknown>
     17c: 2b 80 08 0e  	<unknown>
     180: 2b 05 27 04  	<unknown>
     184: 67 80 00 00  	ret

00000188 <.LBB12_2>:
     188: 13 05 f0 ff  	li	a0, -1
     18c: 67 80 00 00  	ret

00000190 <snrt_dma_start_2d>:
     190: 63 00 06 00  	beqz	a2, 0x190 <snrt_dma_start_2d>
     194: 93 88 07 00  	mv	a7, a5
     198: 13 08 07 00  	mv	a6, a4
     19c: 93 87 06 00  	mv	a5, a3
     1a0: 13 07 06 00  	mv	a4, a2
     1a4: 93 06 00 00  	li	a3, 0
     1a8: 13 86 05 00  	mv	a2, a1
     1ac: 2b 00 d6 00  	<unknown>
     1b0: 93 05 00 00  	li	a1, 0
     1b4: 2b 00 b5 02  	<unknown>
     1b8: 2b 00 f8 0c  	<unknown>
     1bc: 2b 80 08 0e  	<unknown>
     1c0: 2b 05 27 04  	<unknown>
     1c4: 67 80 00 00  	ret

000001c8 <.LBB13_2>:
     1c8: 13 05 f0 ff  	li	a0, -1
     1cc: 67 80 00 00  	ret

000001d0 <snrt_dma_wait>:
     1d0: ab 02 00 08  	<unknown>
     1d4: b3 82 a2 40  	sub	t0, t0, a0
     1d8: 63 50 50 00  	blez	t0, 0x1d8 <snrt_dma_wait+0x8>
     1dc: 67 80 00 00  	ret

000001e0 <snrt_dma_wait_all>:
     1e0: ab 02 20 08  	<unknown>
     1e4: 63 90 02 00  	bnez	t0, 0x1e4 <snrt_dma_wait_all+0x4>
     1e8: 67 80 00 00  	ret

000001ec <eu_init>:
     1ec: 73 25 30 bc  	csrr	a0, 3011
     1f0: 13 15 05 01  	slli	a0, a0, 16
     1f4: 63 00 05 00  	beqz	a0, 0x1f4 <eu_init+0x8>

000001f8 <.Lpcrel_hi4>:
     1f8: 17 05 00 00  	auipc	a0, 0

000001fc <.LBB16_2>:
     1fc: 83 25 05 00  	lw	a1, 0(a0)
     200: 63 80 05 00  	beqz	a1, 0x200 <.LBB16_2+0x4>
     204: 03 25 05 00  	lw	a0, 0(a0)
     208: b7 05 00 00  	lui	a1, 0
     20c: b3 85 45 00  	add	a1, a1, tp
     210: 23 a0 a5 00  	sw	a0, 0(a1)
     214: 67 80 00 00  	ret

00000218 <.LBB16_4>:
     218: 37 05 00 00  	lui	a0, 0
     21c: 33 05 45 00  	add	a0, a0, tp
     220: 03 25 05 00  	lw	a0, 0(a0)
     224: 83 25 c5 00  	lw	a1, 12(a0)
     228: 13 86 85 02  	addi	a2, a1, 40
     22c: 23 26 c5 00  	sw	a2, 12(a0)
     230: 37 05 00 00  	lui	a0, 0
     234: 33 05 45 00  	add	a0, a0, tp
     238: 23 20 b5 00  	sw	a1, 0(a0)
     23c: 23 80 05 00  	sb	zero, 0(a1)
     240: a3 80 05 00  	sb	zero, 1(a1)
     244: 23 81 05 00  	sb	zero, 2(a1)
     248: a3 81 05 00  	sb	zero, 3(a1)
     24c: 23 82 05 00  	sb	zero, 4(a1)
     250: a3 82 05 00  	sb	zero, 5(a1)
     254: 23 83 05 00  	sb	zero, 6(a1)
     258: a3 83 05 00  	sb	zero, 7(a1)
     25c: 23 84 05 00  	sb	zero, 8(a1)
     260: a3 84 05 00  	sb	zero, 9(a1)
     264: 23 85 05 00  	sb	zero, 10(a1)
     268: a3 85 05 00  	sb	zero, 11(a1)
     26c: 23 86 05 00  	sb	zero, 12(a1)
     270: a3 86 05 00  	sb	zero, 13(a1)
     274: 23 87 05 00  	sb	zero, 14(a1)
     278: a3 87 05 00  	sb	zero, 15(a1)
     27c: 23 88 05 00  	sb	zero, 16(a1)
     280: a3 88 05 00  	sb	zero, 17(a1)
     284: 23 89 05 00  	sb	zero, 18(a1)
     288: a3 89 05 00  	sb	zero, 19(a1)
     28c: 23 8a 05 00  	sb	zero, 20(a1)
     290: a3 8a 05 00  	sb	zero, 21(a1)
     294: 23 8b 05 00  	sb	zero, 22(a1)
     298: a3 8b 05 00  	sb	zero, 23(a1)
     29c: 23 8c 05 00  	sb	zero, 24(a1)
     2a0: a3 8c 05 00  	sb	zero, 25(a1)
     2a4: 23 8d 05 00  	sb	zero, 26(a1)
     2a8: a3 8d 05 00  	sb	zero, 27(a1)
     2ac: 23 8e 05 00  	sb	zero, 28(a1)
     2b0: a3 8e 05 00  	sb	zero, 29(a1)
     2b4: 23 8f 05 00  	sb	zero, 30(a1)
     2b8: a3 8f 05 00  	sb	zero, 31(a1)
     2bc: 23 80 05 02  	sb	zero, 32(a1)
     2c0: a3 80 05 02  	sb	zero, 33(a1)
     2c4: 23 81 05 02  	sb	zero, 34(a1)
     2c8: a3 81 05 02  	sb	zero, 35(a1)
     2cc: 03 25 05 00  	lw	a0, 0(a0)

000002d0 <.Lpcrel_hi5>:
     2d0: 97 05 00 00  	auipc	a1, 0
     2d4: 23 a0 a5 00  	sw	a0, 0(a1)
     2d8: 67 80 00 00  	ret

000002dc <eu_exit>:
     2dc: 13 01 01 ff  	addi	sp, sp, -16
     2e0: 23 26 11 00  	sw	ra, 12(sp)
     2e4: 23 24 81 00  	sw	s0, 8(sp)
     2e8: 23 22 91 00  	sw	s1, 4(sp)
     2ec: 23 20 21 01  	sw	s2, 0(sp)
     2f0: b7 05 00 00  	lui	a1, 0
     2f4: 33 86 45 00  	add	a2, a1, tp
     2f8: 83 25 06 00  	lw	a1, 0(a2)
     2fc: 83 a6 c5 01  	lw	a3, 28(a1)
     300: 37 04 00 80  	lui	s0, 524288
     304: 13 04 e4 ff  	addi	s0, s0, -2
     308: 63 90 06 00  	bnez	a3, 0x308 <eu_exit+0x2c>
     30c: 83 a4 c5 01  	lw	s1, 28(a1)
     310: 63 80 04 00  	beqz	s1, 0x310 <eu_exit+0x34>
     314: 93 06 10 00  	li	a3, 1
     318: 23 a0 05 02  	sw	zero, 32(a1)
     31c: 63 90 d4 00  	bne	s1, a3, 0x31c <eu_exit+0x40>
     320: 83 a6 c5 01  	lw	a3, 28(a1)
     324: 63 60 d5 00  	bltu	a0, a3, 0x324 <eu_exit+0x48>

00000328 <.LBB17_4>:
     328: 13 05 10 00  	li	a0, 1
     32c: 63 90 a4 00  	bne	s1, a0, 0x32c <.LBB17_4+0x4>
     330: 6f 00 00 00  	j	0x330 <.LBB17_4+0x8>

00000334 <.LBB17_5>:
     334: 83 a6 05 00  	lw	a3, 0(a1)

00000338 <.LBB17_6>:
     338: 03 a7 c5 00  	lw	a4, 12(a1)
     33c: 63 10 d7 00  	bne	a4, a3, 0x33c <.LBB17_6+0x4>
     340: f3 26 30 bc  	csrr	a3, 3011
     344: 93 d6 06 01  	srli	a3, a3, 16
     348: 93 86 f6 ff  	addi	a3, a3, -1
     34c: 13 07 f0 ff  	li	a4, -1
     350: b3 16 d7 00  	sll	a3, a4, a3
     354: 93 c6 f6 ff  	not	a3, a3
     358: b3 f6 86 00  	and	a3, a3, s0
     35c: 37 07 02 10  	lui	a4, 65568
     360: 23 20 d7 18  	sw	a3, 384(a4)
     364: 83 a6 c5 01  	lw	a3, 28(a1)
     368: 63 70 d5 00  	bgeu	a0, a3, 0x368 <.LBB17_6+0x30>

0000036c <.LBB17_8>:
     36c: 83 a6 05 01  	lw	a3, 16(a1)
     370: 03 a5 45 01  	lw	a0, 20(a1)
     374: 83 a5 85 01  	lw	a1, 24(a1)
     378: 13 09 06 00  	mv	s2, a2
     37c: e7 80 06 00  	jalr	a3
     380: 83 25 09 00  	lw	a1, 0(s2)
     384: 13 05 10 00  	li	a0, 1
     388: 63 80 a4 00  	beq	s1, a0, 0x388 <.LBB17_8+0x1c>

0000038c <.LBB17_9>:
     38c: 03 a5 05 00  	lw	a0, 0(a1)

00000390 <.LBB17_10>:
     390: 03 a6 05 02  	lw	a2, 32(a1)
     394: 63 10 a6 00  	bne	a2, a0, 0x394 <.LBB17_10+0x4>

00000398 <.LBB17_11>:
     398: 23 ae 05 00  	sw	zero, 28(a1)

0000039c <.LBB17_12>:
     39c: 03 a5 05 00  	lw	a0, 0(a1)

000003a0 <.LBB17_13>:
     3a0: 03 a6 c5 00  	lw	a2, 12(a1)
     3a4: 63 10 a6 00  	bne	a2, a0, 0x3a4 <.LBB17_13+0x4>
     3a8: 13 05 10 00  	li	a0, 1
     3ac: 23 a2 a5 00  	sw	a0, 4(a1)
     3b0: 03 a5 05 00  	lw	a0, 0(a1)

000003b4 <.LBB17_15>:
     3b4: 03 a6 c5 00  	lw	a2, 12(a1)
     3b8: 63 10 a6 00  	bne	a2, a0, 0x3b8 <.LBB17_15+0x4>
     3bc: 73 25 30 bc  	csrr	a0, 3011
     3c0: 13 55 05 01  	srli	a0, a0, 16
     3c4: 13 05 f5 ff  	addi	a0, a0, -1
     3c8: 93 05 f0 ff  	li	a1, -1
     3cc: 33 95 a5 00  	sll	a0, a1, a0
     3d0: 13 45 f5 ff  	not	a0, a0
     3d4: 33 75 85 00  	and	a0, a0, s0
     3d8: b7 05 02 10  	lui	a1, 65568
     3dc: 23 a0 a5 18  	sw	a0, 384(a1)
     3e0: 83 20 c1 00  	lw	ra, 12(sp)
     3e4: 03 24 81 00  	lw	s0, 8(sp)
     3e8: 83 24 41 00  	lw	s1, 4(sp)
     3ec: 03 29 01 00  	lw	s2, 0(sp)
     3f0: 13 01 01 01  	addi	sp, sp, 16
     3f4: 67 80 00 00  	ret

000003f8 <eu_get_workers_in_loop>:
     3f8: 37 05 00 00  	lui	a0, 0
     3fc: 33 05 45 00  	add	a0, a0, tp
     400: 03 25 05 00  	lw	a0, 0(a0)
     404: 03 25 05 00  	lw	a0, 0(a0)
     408: 67 80 00 00  	ret

0000040c <eu_get_workers_in_wfi>:
     40c: 37 05 00 00  	lui	a0, 0
     410: 33 05 45 00  	add	a0, a0, tp
     414: 03 25 05 00  	lw	a0, 0(a0)
     418: 03 25 c5 00  	lw	a0, 12(a0)
     41c: 67 80 00 00  	ret

00000420 <eu_print_status>:
     420: 67 80 00 00  	ret

00000424 <eu_event_loop>:
     424: 13 01 01 fe  	addi	sp, sp, -32
     428: 23 2e 11 00  	sw	ra, 28(sp)
     42c: 23 2c 81 00  	sw	s0, 24(sp)
     430: 23 2a 91 00  	sw	s1, 20(sp)
     434: 23 28 21 01  	sw	s2, 16(sp)
     438: 23 26 31 01  	sw	s3, 12(sp)
     43c: 23 24 41 01  	sw	s4, 8(sp)
     440: 23 22 51 01  	sw	s5, 4(sp)
     444: b7 05 00 00  	lui	a1, 0
     448: 33 86 45 00  	add	a2, a1, tp
     44c: 83 25 06 00  	lw	a1, 0(a2)
     450: 93 04 10 00  	li	s1, 1
     454: af a5 95 00  	amoadd.w	a1, s1, (a1)
     458: b7 05 08 00  	lui	a1, 128
     45c: f3 a5 45 30  	csrrs	a1, mie, a1
     460: 83 25 06 00  	lw	a1, 0(a2)
     464: 83 a6 45 00  	lw	a3, 4(a1)
     468: 63 80 06 00  	beqz	a3, 0x468 <eu_event_loop+0x44>

0000046c <.LBB21_1>:
     46c: 37 05 08 00  	lui	a0, 128
     470: 73 25 45 30  	csrrs	a0, mie, a0
     474: 83 20 c1 01  	lw	ra, 28(sp)
     478: 03 24 81 01  	lw	s0, 24(sp)
     47c: 83 24 41 01  	lw	s1, 20(sp)
     480: 03 29 01 01  	lw	s2, 16(sp)
     484: 83 29 c1 00  	lw	s3, 12(sp)
     488: 03 2a 81 00  	lw	s4, 8(sp)
     48c: 83 2a 41 00  	lw	s5, 4(sp)
     490: 13 01 01 02  	addi	sp, sp, 32
     494: 67 80 00 00  	ret

00000498 <.LBB21_2>:
     498: 13 04 05 00  	mv	s0, a0
     49c: 13 09 06 00  	mv	s2, a2
     4a0: b3 99 a4 00  	sll	s3, s1, a0
     4a4: 37 0a 02 10  	lui	s4, 65568
     4a8: 93 0a f0 ff  	li	s5, -1
     4ac: 6f 00 00 00  	j	0x4ac <.LBB21_2+0x14>

000004b0 <.LBB21_3>:
     4b0: 13 85 05 02  	addi	a0, a1, 32
     4b4: 2f 25 95 00  	amoadd.w	a0, s1, (a0)
     4b8: 03 25 09 00  	lw	a0, 0(s2)
     4bc: 13 05 c5 00  	addi	a0, a0, 12
     4c0: 2f 25 95 00  	amoadd.w	a0, s1, (a0)
     4c4: 73 00 50 10  	wfi
     4c8: 23 24 3a 19  	sw	s3, 392(s4)
     4cc: 03 25 09 00  	lw	a0, 0(s2)
     4d0: 13 05 c5 00  	addi	a0, a0, 12
     4d4: 2f 25 55 01  	amoadd.w	a0, s5, (a0)
     4d8: 83 25 09 00  	lw	a1, 0(s2)
     4dc: 03 a5 45 00  	lw	a0, 4(a1)
     4e0: 63 10 05 00  	bnez	a0, 0x4e0 <.LBB21_3+0x30>

000004e4 <.LBB21_4>:
     4e4: 03 a5 c5 01  	lw	a0, 28(a1)
     4e8: 63 70 a4 00  	bgeu	s0, a0, 0x4e8 <.LBB21_4+0x4>
     4ec: 03 a5 c5 01  	lw	a0, 28(a1)
     4f0: 03 a6 05 01  	lw	a2, 16(a1)
     4f4: 03 a5 45 01  	lw	a0, 20(a1)
     4f8: 83 a5 85 01  	lw	a1, 24(a1)
     4fc: e7 00 06 00  	jalr	a2
     500: 83 25 09 00  	lw	a1, 0(s2)
     504: 6f 00 00 00  	j	0x504 <.LBB21_4+0x20>

00000508 <eu_dispatch_push>:
     508: 37 07 00 00  	lui	a4, 0
     50c: b3 07 47 00  	add	a5, a4, tp
     510: 03 a7 07 00  	lw	a4, 0(a5)
     514: 03 28 07 00  	lw	a6, 0(a4)
     518: 93 87 07 00  	mv	a5, a5

0000051c <.LBB22_1>:
     51c: 83 28 c7 00  	lw	a7, 12(a4)
     520: 63 90 08 01  	bne	a7, a6, 0x520 <.LBB22_1+0x4>
     524: 23 28 a7 00  	sw	a0, 16(a4)
     528: 03 a5 07 00  	lw	a0, 0(a5)
     52c: 23 2a c5 00  	sw	a2, 20(a0)
     530: 03 a5 07 00  	lw	a0, 0(a5)
     534: 23 2c b5 00  	sw	a1, 24(a0)
     538: 23 2e d5 00  	sw	a3, 28(a0)
     53c: 13 05 00 00  	li	a0, 0
     540: 67 80 00 00  	ret

00000544 <eu_run_empty>:
     544: 13 01 01 ff  	addi	sp, sp, -16
     548: 23 26 11 00  	sw	ra, 12(sp)
     54c: 23 24 81 00  	sw	s0, 8(sp)
     550: 23 22 91 00  	sw	s1, 4(sp)
     554: b7 05 00 00  	lui	a1, 0
     558: 33 86 45 00  	add	a2, a1, tp
     55c: 83 25 06 00  	lw	a1, 0(a2)
     560: 03 a4 c5 01  	lw	s0, 28(a1)
     564: 63 00 04 00  	beqz	s0, 0x564 <eu_run_empty+0x20>
     568: 93 06 10 00  	li	a3, 1
     56c: 23 a0 05 02  	sw	zero, 32(a1)
     570: 63 10 d4 00  	bne	s0, a3, 0x570 <eu_run_empty+0x2c>
     574: 83 a6 c5 01  	lw	a3, 28(a1)
     578: 63 60 d5 00  	bltu	a0, a3, 0x578 <eu_run_empty+0x34>

0000057c <.LBB23_3>:
     57c: 13 05 10 00  	li	a0, 1
     580: 63 10 a4 00  	bne	s0, a0, 0x580 <.LBB23_3+0x4>
     584: 6f 00 00 00  	j	0x584 <.LBB23_3+0x8>

00000588 <.LBB23_4>:
     588: 83 a6 05 00  	lw	a3, 0(a1)

0000058c <.LBB23_5>:
     58c: 03 a7 c5 00  	lw	a4, 12(a1)
     590: 63 10 d7 00  	bne	a4, a3, 0x590 <.LBB23_5+0x4>
     594: f3 26 30 bc  	csrr	a3, 3011
     598: 93 d6 06 01  	srli	a3, a3, 16
     59c: 93 86 f6 ff  	addi	a3, a3, -1
     5a0: 13 07 f0 ff  	li	a4, -1
     5a4: b3 16 d7 00  	sll	a3, a4, a3
     5a8: 93 c6 f6 ff  	not	a3, a3
     5ac: 93 f6 e6 ff  	andi	a3, a3, -2
     5b0: 37 07 02 10  	lui	a4, 65568
     5b4: 23 20 d7 18  	sw	a3, 384(a4)
     5b8: 83 a6 c5 01  	lw	a3, 28(a1)
     5bc: 63 70 d5 00  	bgeu	a0, a3, 0x5bc <.LBB23_5+0x30>

000005c0 <.LBB23_7>:
     5c0: 83 a6 05 01  	lw	a3, 16(a1)
     5c4: 03 a5 45 01  	lw	a0, 20(a1)
     5c8: 83 a5 85 01  	lw	a1, 24(a1)
     5cc: 93 04 06 00  	mv	s1, a2
     5d0: e7 80 06 00  	jalr	a3
     5d4: 83 a5 04 00  	lw	a1, 0(s1)
     5d8: 13 05 10 00  	li	a0, 1
     5dc: 63 00 a4 00  	beq	s0, a0, 0x5dc <.LBB23_7+0x1c>

000005e0 <.LBB23_8>:
     5e0: 03 a5 05 00  	lw	a0, 0(a1)

000005e4 <.LBB23_9>:
     5e4: 03 a6 05 02  	lw	a2, 32(a1)
     5e8: 63 10 a6 00  	bne	a2, a0, 0x5e8 <.LBB23_9+0x4>

000005ec <.LBB23_10>:
     5ec: 23 ae 05 00  	sw	zero, 28(a1)

000005f0 <.LBB23_11>:
     5f0: 83 20 c1 00  	lw	ra, 12(sp)
     5f4: 03 24 81 00  	lw	s0, 8(sp)
     5f8: 83 24 41 00  	lw	s1, 4(sp)
     5fc: 13 01 01 01  	addi	sp, sp, 16
     600: 67 80 00 00  	ret

00000604 <eu_mutex_lock>:
     604: 37 05 00 00  	lui	a0, 0
     608: 33 05 45 00  	add	a0, a0, tp
     60c: 03 25 05 00  	lw	a0, 0(a0)
     610: 13 05 85 00  	addi	a0, a0, 8
     614: 93 02 10 00  	li	t0, 1

00000618 <.Ltmp2>:
     618: af 22 55 0c  	amoswap.w.aq	t0, t0, (a0)
     61c: 63 90 02 00  	bnez	t0, 0x61c <.Ltmp2+0x4>
     620: 67 80 00 00  	ret

00000624 <eu_mutex_release>:
     624: 37 05 00 00  	lui	a0, 0
     628: 33 05 45 00  	add	a0, a0, tp
     62c: 03 25 05 00  	lw	a0, 0(a0)
     630: 13 05 85 00  	addi	a0, a0, 8
     634: 2f 20 05 0a  	amoswap.w.rl	zero, zero, (a0)
     638: 67 80 00 00  	ret

0000063c <snrt_mutex>:
     63c: 17 05 00 00  	auipc	a0, 0
     640: 13 05 05 00  	mv	a0, a0
     644: 67 80 00 00  	ret

00000648 <snrt_mutex_acquire>:
     648: 93 02 10 00  	li	t0, 1

0000064c <.Ltmp3>:
     64c: af 22 55 0c  	amoswap.w.aq	t0, t0, (a0)
     650: 63 90 02 00  	bnez	t0, 0x650 <.Ltmp3+0x4>
     654: 67 80 00 00  	ret

00000658 <snrt_mutex_ttas_acquire>:
     658: 83 22 05 00  	lw	t0, 0(a0)
     65c: 63 90 02 00  	bnez	t0, 0x65c <snrt_mutex_ttas_acquire+0x4>
     660: 93 02 10 00  	li	t0, 1

00000664 <.Ltmp5>:
     664: af 22 55 0c  	amoswap.w.aq	t0, t0, (a0)
     668: 63 90 02 00  	bnez	t0, 0x668 <.Ltmp5+0x4>
     66c: 67 80 00 00  	ret

00000670 <snrt_mutex_release>:
     670: 2f 20 05 0a  	amoswap.w.rl	zero, zero, (a0)
     674: 67 80 00 00  	ret

00000678 <snrt_cluster_hw_barrier>:
     678: 73 20 20 7c  	csrr	zero, 1986
     67c: 67 80 00 00  	ret

00000680 <snrt_global_barrier>:
     680: 73 20 20 7c  	csrr	zero, 1986
     684: 73 25 30 bc  	csrr	a0, 3011
     688: 93 15 05 01  	slli	a1, a0, 16
     68c: 93 d5 05 01  	srli	a1, a1, 16
     690: 13 55 05 01  	srli	a0, a0, 16
     694: 13 05 f5 ff  	addi	a0, a0, -1
     698: 63 e0 a5 00  	bltu	a1, a0, 0x698 <snrt_global_barrier+0x18>

0000069c <.Lpcrel_hi7>:
     69c: 17 05 00 00  	auipc	a0, 0
     6a0: 13 05 05 00  	mv	a0, a0
     6a4: 83 25 45 00  	lw	a1, 4(a0)
     6a8: 13 06 10 00  	li	a2, 1
     6ac: af 26 c5 00  	amoadd.w	a3, a2, (a0)
     6b0: 63 80 06 00  	beqz	a3, 0x6b0 <.Lpcrel_hi7+0x14>

000006b4 <.LBB31_2>:
     6b4: 03 26 45 00  	lw	a2, 4(a0)
     6b8: 63 80 c5 00  	beq	a1, a2, 0x6b8 <.LBB31_2+0x4>

000006bc <.LBB31_3>:
     6bc: 73 20 20 7c  	csrr	zero, 1986
     6c0: 67 80 00 00  	ret

000006c4 <.LBB31_4>:
     6c4: 23 20 05 00  	sw	zero, 0(a0)
     6c8: 13 05 45 00  	addi	a0, a0, 4
     6cc: 2f 25 c5 00  	amoadd.w	a0, a2, (a0)
     6d0: 73 20 20 7c  	csrr	zero, 1986
     6d4: 67 80 00 00  	ret

000006d8 <snrt_partial_barrier>:
     6d8: 03 26 45 00  	lw	a2, 4(a0)
     6dc: 93 06 10 00  	li	a3, 1
     6e0: 2f 27 d5 00  	amoadd.w	a4, a3, (a0)
     6e4: 13 07 17 00  	addi	a4, a4, 1
     6e8: 63 10 b7 00  	bne	a4, a1, 0x6e8 <snrt_partial_barrier+0x10>
     6ec: 23 20 05 00  	sw	zero, 0(a0)
     6f0: 13 05 45 00  	addi	a0, a0, 4
     6f4: 2f 25 d5 00  	amoadd.w	a0, a3, (a0)
     6f8: 67 80 00 00  	ret

000006fc <.LBB32_2>:
     6fc: 83 25 45 00  	lw	a1, 4(a0)
     700: 63 00 b6 00  	beq	a2, a1, 0x700 <.LBB32_2+0x4>
     704: 67 80 00 00  	ret

00000708 <snrt_global_reduction_dma>:
     708: f3 26 30 bc  	csrr	a3, 3011
     70c: 13 97 06 01  	slli	a4, a3, 16
     710: 13 57 07 01  	srli	a4, a4, 16
     714: 93 d6 06 01  	srli	a3, a3, 16
     718: 93 86 f6 ff  	addi	a3, a3, -1
     71c: 63 60 d7 00  	bltu	a4, a3, 0x71c <snrt_global_reduction_dma+0x14>
     720: 13 17 36 00  	slli	a4, a2, 3
     724: 63 00 07 00  	beqz	a4, 0x724 <snrt_global_reduction_dma+0x1c>
     728: 93 06 00 00  	li	a3, 0
     72c: 13 86 05 00  	mv	a2, a1
     730: 2b 00 d6 00  	<unknown>
     734: 93 05 00 00  	li	a1, 0
     738: 2b 00 b5 02  	<unknown>
     73c: 2b 05 07 04  	<unknown>

00000740 <.Ltmp6>:
     740: ab 02 20 08  	<unknown>
     744: 63 90 02 00  	bnez	t0, 0x744 <.Ltmp6+0x4>

00000748 <.LBB33_4>:
     748: 73 20 20 7c  	csrr	zero, 1986
     74c: 67 80 00 00  	ret

00000750 <snrt_global_all_to_all_reduction>:
     750: 97 05 00 00  	auipc	a1, 0
     754: 93 85 05 00  	mv	a1, a1
     758: 2f a5 a5 00  	amoadd.w	a0, a0, (a1)
     75c: 73 20 20 7c  	csrr	zero, 1986
     760: 73 25 30 bc  	csrr	a0, 3011
     764: 13 16 05 01  	slli	a2, a0, 16
     768: 13 56 06 01  	srli	a2, a2, 16
     76c: 13 55 05 01  	srli	a0, a0, 16
     770: 13 05 f5 ff  	addi	a0, a0, -1
     774: 63 60 a6 00  	bltu	a2, a0, 0x774 <snrt_global_all_to_all_reduction+0x24>

00000778 <.Lpcrel_hi9>:
     778: 17 05 00 00  	auipc	a0, 0
     77c: 13 05 05 00  	mv	a0, a0
     780: 03 26 45 00  	lw	a2, 4(a0)
     784: 93 06 10 00  	li	a3, 1
     788: 2f 27 d5 00  	amoadd.w	a4, a3, (a0)
     78c: 63 00 07 00  	beqz	a4, 0x78c <.Lpcrel_hi9+0x14>

00000790 <.LBB34_2>:
     790: 83 26 45 00  	lw	a3, 4(a0)
     794: 63 00 d6 00  	beq	a2, a3, 0x794 <.LBB34_2+0x4>

00000798 <.LBB34_3>:
     798: 73 20 20 7c  	csrr	zero, 1986
     79c: 03 a5 05 00  	lw	a0, 0(a1)
     7a0: 67 80 00 00  	ret

000007a4 <.LBB34_4>:
     7a4: 23 20 05 00  	sw	zero, 0(a0)
     7a8: 13 05 45 00  	addi	a0, a0, 4
     7ac: 2f 25 d5 00  	amoadd.w	a0, a3, (a0)
     7b0: 73 20 20 7c  	csrr	zero, 1986
     7b4: 03 a5 05 00  	lw	a0, 0(a1)
     7b8: 67 80 00 00  	ret

000007bc <snrt_hartid>:
     7bc: 73 25 40 f1  	csrr	a0, mhartid
     7c0: 67 80 00 00  	ret

000007c4 <snrt_global_core_base_hartid>:
     7c4: 13 05 00 00  	li	a0, 0
     7c8: 67 80 00 00  	ret

000007cc <snrt_global_core_idx>:
     7cc: 73 25 40 f1  	csrr	a0, mhartid
     7d0: 67 80 00 00  	ret

000007d4 <snrt_global_core_num>:
     7d4: 73 25 30 bc  	csrr	a0, 3011
     7d8: 13 55 05 01  	srli	a0, a0, 16
     7dc: 67 80 00 00  	ret

000007e0 <snrt_cluster_idx>:
     7e0: 73 25 10 bc  	csrr	a0, 3009
     7e4: 13 15 85 00  	slli	a0, a0, 8
     7e8: 13 55 a5 01  	srli	a0, a0, 26
     7ec: 67 80 00 00  	ret

000007f0 <snrt_cluster_num>:
     7f0: 13 05 10 00  	li	a0, 1
     7f4: 67 80 00 00  	ret

000007f8 <snrt_cluster_core_idx>:
     7f8: 73 25 30 bc  	csrr	a0, 3011
     7fc: 13 15 05 01  	slli	a0, a0, 16
     800: 13 55 05 01  	srli	a0, a0, 16
     804: 67 80 00 00  	ret

00000808 <snrt_cluster_core_num>:
     808: 73 25 30 bc  	csrr	a0, 3011
     80c: 13 55 05 01  	srli	a0, a0, 16
     810: 67 80 00 00  	ret

00000814 <snrt_cluster_compute_core_num>:
     814: 73 25 30 bc  	csrr	a0, 3011
     818: 13 55 05 01  	srli	a0, a0, 16
     81c: 13 05 f5 ff  	addi	a0, a0, -1
     820: 67 80 00 00  	ret

00000824 <snrt_is_compute_core>:
     824: 73 25 30 bc  	csrr	a0, 3011
     828: 93 15 05 01  	slli	a1, a0, 16
     82c: 93 d5 05 01  	srli	a1, a1, 16
     830: 13 55 05 01  	srli	a0, a0, 16
     834: 13 05 f5 ff  	addi	a0, a0, -1
     838: 33 b5 a5 00  	sltu	a0, a1, a0
     83c: 67 80 00 00  	ret

00000840 <snrt_is_dm_core>:
     840: 73 25 30 bc  	csrr	a0, 3011
     844: 93 15 05 01  	slli	a1, a0, 16
     848: 93 d5 05 01  	srli	a1, a1, 16
     84c: 13 55 05 01  	srli	a0, a0, 16
     850: 13 05 f5 ff  	addi	a0, a0, -1
     854: 33 b5 a5 00  	sltu	a0, a1, a0
     858: 13 45 15 00  	xori	a0, a0, 1
     85c: 67 80 00 00  	ret

00000860 <snrt_cluster_dm_core_num>:
     860: 13 05 10 00  	li	a0, 1
     864: 67 80 00 00  	ret

00000868 <printf_>:
     868: 13 01 01 fd  	addi	sp, sp, -48
     86c: 23 26 11 00  	sw	ra, 12(sp)
     870: 93 02 05 00  	mv	t0, a0
     874: 23 26 11 03  	sw	a7, 44(sp)
     878: 23 24 01 03  	sw	a6, 40(sp)
     87c: 23 22 f1 02  	sw	a5, 36(sp)
     880: 23 20 e1 02  	sw	a4, 32(sp)
     884: 23 2e d1 00  	sw	a3, 28(sp)
     888: 23 2c c1 00  	sw	a2, 24(sp)
     88c: 23 2a b1 00  	sw	a1, 20(sp)
     890: 13 05 41 01  	addi	a0, sp, 20
     894: 23 24 a1 00  	sw	a0, 8(sp)

00000898 <.Lpcrel_hi10>:
     898: 17 05 00 00  	auipc	a0, 0
     89c: 13 05 05 00  	mv	a0, a0
     8a0: 93 05 71 00  	addi	a1, sp, 7
     8a4: 13 06 f0 ff  	li	a2, -1
     8a8: 13 07 41 01  	addi	a4, sp, 20
     8ac: 93 86 02 00  	mv	a3, t0
     8b0: 97 00 00 00  	auipc	ra, 0
     8b4: e7 80 00 00  	jalr	ra
     8b8: 83 20 c1 00  	lw	ra, 12(sp)
     8bc: 13 01 01 03  	addi	sp, sp, 48
     8c0: 67 80 00 00  	ret

000008c4 <_vsnprintf>:
     8c4: 13 01 01 fb  	addi	sp, sp, -80
     8c8: 23 26 11 04  	sw	ra, 76(sp)
     8cc: 23 24 81 04  	sw	s0, 72(sp)
     8d0: 23 22 91 04  	sw	s1, 68(sp)
     8d4: 23 20 21 05  	sw	s2, 64(sp)
     8d8: 23 2e 31 03  	sw	s3, 60(sp)
     8dc: 23 2c 41 03  	sw	s4, 56(sp)
     8e0: 23 2a 51 03  	sw	s5, 52(sp)
     8e4: 23 28 61 03  	sw	s6, 48(sp)
     8e8: 23 26 71 03  	sw	s7, 44(sp)
     8ec: 23 24 81 03  	sw	s8, 40(sp)
     8f0: 23 22 91 03  	sw	s9, 36(sp)
     8f4: 23 20 a1 03  	sw	s10, 32(sp)
     8f8: 23 2e b1 01  	sw	s11, 28(sp)
     8fc: 23 2c e1 00  	sw	a4, 24(sp)
     900: 93 8a 06 00  	mv	s5, a3
     904: 13 04 06 00  	mv	s0, a2
     908: 93 84 05 00  	mv	s1, a1
     90c: 63 80 05 00  	beqz	a1, 0x90c <_vsnprintf+0x48>
     910: 13 09 05 00  	mv	s2, a0
     914: 6f 00 00 00  	j	0x914 <_vsnprintf+0x50>

00000918 <.Lpcrel_hi11>:
     918: 17 05 00 00  	auipc	a0, 0
     91c: 13 09 05 00  	mv	s2, a0

00000920 <.LBB48_3>:
     920: 13 0a 00 00  	li	s4, 0
     924: 93 0b 50 02  	li	s7, 37
     928: 13 0c 00 01  	li	s8, 16
     92c: 93 0c 90 00  	li	s9, 9
     930: 13 0d a0 00  	li	s10, 10
     934: 13 05 10 00  	li	a0, 1
     938: 13 15 b5 00  	slli	a0, a0, 11
     93c: 23 2a a1 00  	sw	a0, 20(sp)

00000940 <.LBB48_4>:
     940: 13 8b 2a 00  	addi	s6, s5, 2
     944: 03 c5 0a 00  	lbu	a0, 0(s5)
     948: 63 00 05 00  	beqz	a0, 0x948 <.LBB48_4+0x8>

0000094c <.LBB48_5>:
     94c: 63 00 75 01  	beq	a0, s7, 0x94c <.LBB48_5>
     950: 93 09 1a 00  	addi	s3, s4, 1
     954: 93 85 04 00  	mv	a1, s1
     958: 13 06 0a 00  	mv	a2, s4
     95c: 93 06 04 00  	mv	a3, s0
     960: e7 00 09 00  	jalr	s2
     964: 93 8a 1a 00  	addi	s5, s5, 1
     968: 13 0b 1b 00  	addi	s6, s6, 1
     96c: 13 8a 09 00  	mv	s4, s3
     970: 03 c5 0a 00  	lbu	a0, 0(s5)
     974: 63 10 05 00  	bnez	a0, 0x974 <.LBB48_5+0x28>
     978: 6f 00 00 00  	j	0x978 <.LBB48_5+0x2c>

0000097c <.LBB48_7>:
     97c: 13 0e 00 00  	li	t3, 0
     980: 6f 00 00 00  	j	0x980 <.LBB48_7+0x4>

00000984 <.LBB48_8>:
     984: 93 05 00 01  	li	a1, 16

00000988 <.LBB48_9>:
     988: 33 6e be 00  	or	t3, t3, a1
     98c: 13 0b 1b 00  	addi	s6, s6, 1

00000990 <.LBB48_10>:
     990: 03 45 fb ff  	lbu	a0, -1(s6)
     994: 93 05 05 fe  	addi	a1, a0, -32
     998: 63 60 bc 00  	bltu	s8, a1, 0x998 <.LBB48_10+0x8>
     99c: 93 95 25 00  	slli	a1, a1, 2

000009a0 <.Lpcrel_hi12>:
     9a0: 17 06 00 00  	auipc	a2, 0
     9a4: 13 06 06 00  	mv	a2, a2
     9a8: b3 85 c5 00  	add	a1, a1, a2
     9ac: 03 a6 05 00  	lw	a2, 0(a1)
     9b0: 93 05 10 00  	li	a1, 1
     9b4: 67 00 06 00  	jr	a2

000009b8 <.LBB48_12>:
     9b8: 93 05 80 00  	li	a1, 8
     9bc: 6f 00 00 00  	j	0x9bc <.LBB48_12+0x4>

000009c0 <.LBB48_13>:
     9c0: 93 05 40 00  	li	a1, 4
     9c4: 6f 00 00 00  	j	0x9c4 <.LBB48_13+0x4>

000009c8 <.LBB48_14>:
     9c8: 93 05 20 00  	li	a1, 2
     9cc: 6f 00 00 00  	j	0x9cc <.LBB48_14+0x4>

000009d0 <.LBB48_15>:
     9d0: 93 05 05 fd  	addi	a1, a0, -48
     9d4: 93 f5 f5 0f  	andi	a1, a1, 255
     9d8: 93 0d fb ff  	addi	s11, s6, -1
     9dc: 63 e0 bc 00  	bltu	s9, a1, 0x9dc <.LBB48_15+0xc>
     9e0: 93 0a 00 00  	li	s5, 0

000009e4 <.LBB48_17>:
     9e4: 93 75 f5 0f  	andi	a1, a0, 255
     9e8: 03 c5 1d 00  	lbu	a0, 1(s11)
     9ec: 33 86 aa 03  	mul	a2, s5, s10
     9f0: 93 8d 1d 00  	addi	s11, s11, 1
     9f4: b3 05 b6 00  	add	a1, a2, a1
     9f8: 13 06 05 fd  	addi	a2, a0, -48
     9fc: 13 76 f6 0f  	andi	a2, a2, 255
     a00: 93 8a 05 fd  	addi	s5, a1, -48
     a04: 63 60 a6 01  	bltu	a2, s10, 0xa04 <.LBB48_17+0x20>
     a08: 93 05 e0 02  	li	a1, 46
     a0c: 63 10 b5 00  	bne	a0, a1, 0xa0c <.LBB48_17+0x28>

00000a10 <.LBB48_19>:
     a10: 03 c5 1d 00  	lbu	a0, 1(s11)
     a14: 13 6e 0e 40  	ori	t3, t3, 1024
     a18: 93 05 05 fd  	addi	a1, a0, -48
     a1c: 13 f6 f5 0f  	andi	a2, a1, 255
     a20: 93 85 1d 00  	addi	a1, s11, 1
     a24: 63 e0 cc 00  	bltu	s9, a2, 0xa24 <.LBB48_19+0x14>
     a28: 13 0b 00 00  	li	s6, 0

00000a2c <.LBB48_21>:
     a2c: 13 76 f5 0f  	andi	a2, a0, 255
     a30: 03 c5 15 00  	lbu	a0, 1(a1)
     a34: b3 06 ab 03  	mul	a3, s6, s10
     a38: 93 85 15 00  	addi	a1, a1, 1
     a3c: 33 86 c6 00  	add	a2, a3, a2
     a40: 93 06 05 fd  	addi	a3, a0, -48
     a44: 93 f6 f6 0f  	andi	a3, a3, 255
     a48: 13 0b 06 fd  	addi	s6, a2, -48
     a4c: 63 e0 a6 01  	bltu	a3, s10, 0xa4c <.LBB48_21+0x20>
     a50: 6f 00 00 00  	j	0xa50 <.LBB48_21+0x24>

00000a54 <.LBB48_22>:
     a54: 93 05 a0 02  	li	a1, 42
     a58: 63 10 b5 00  	bne	a0, a1, 0xa58 <.LBB48_22+0x4>
     a5c: 03 26 81 01  	lw	a2, 24(sp)
     a60: 83 25 06 00  	lw	a1, 0(a2)
     a64: 13 06 46 00  	addi	a2, a2, 4
     a68: 13 d5 f5 41  	srai	a0, a1, 31
     a6c: b3 c6 a5 00  	xor	a3, a1, a0
     a70: b3 8a a6 40  	sub	s5, a3, a0
     a74: 03 45 0b 00  	lbu	a0, 0(s6)
     a78: 93 d5 e5 01  	srli	a1, a1, 30
     a7c: 93 f5 25 00  	andi	a1, a1, 2
     a80: 33 6e be 00  	or	t3, t3, a1
     a84: 93 0d 0b 00  	mv	s11, s6
     a88: 23 2c c1 00  	sw	a2, 24(sp)
     a8c: 93 05 e0 02  	li	a1, 46
     a90: 63 10 b5 00  	bne	a0, a1, 0xa90 <.LBB48_22+0x3c>
     a94: 6f 00 00 00  	j	0xa94 <.LBB48_22+0x40>

00000a98 <.LBB48_24>:
     a98: 13 06 a0 02  	li	a2, 42
     a9c: 63 10 c5 00  	bne	a0, a2, 0xa9c <.LBB48_24+0x4>
     aa0: 03 26 81 01  	lw	a2, 24(sp)
     aa4: 83 25 06 00  	lw	a1, 0(a2)
     aa8: 13 06 46 00  	addi	a2, a2, 4
     aac: b3 26 b0 00  	sgtz	a3, a1
     ab0: 03 c5 2d 00  	lbu	a0, 2(s11)
     ab4: b3 06 d0 40  	neg	a3, a3
     ab8: 93 8d 2d 00  	addi	s11, s11, 2
     abc: 33 fb b6 00  	and	s6, a3, a1
     ac0: 23 2c c1 00  	sw	a2, 24(sp)
     ac4: 6f 00 00 00  	j	0xac4 <.LBB48_24+0x2c>

00000ac8 <.LBB48_26>:
     ac8: 93 0a 00 00  	li	s5, 0
     acc: 93 05 e0 02  	li	a1, 46
     ad0: 63 00 b5 00  	beq	a0, a1, 0xad0 <.LBB48_26+0x8>

00000ad4 <.LBB48_27>:
     ad4: 13 0b 00 00  	li	s6, 0
     ad8: 6f 00 00 00  	j	0xad8 <.LBB48_27+0x4>

00000adc <.LBB48_28>:
     adc: 13 0b 00 00  	li	s6, 0

00000ae0 <.LBB48_29>:
     ae0: 93 8d 05 00  	mv	s11, a1

00000ae4 <.LBB48_30>:
     ae4: 93 05 85 f9  	addi	a1, a0, -104
     ae8: 13 16 f5 01  	slli	a2, a0, 31
     aec: 93 d5 15 00  	srli	a1, a1, 1
     af0: b3 65 b6 00  	or	a1, a2, a1
     af4: 63 e0 bc 00  	bltu	s9, a1, 0xaf4 <.LBB48_30+0x10>
     af8: 93 95 25 00  	slli	a1, a1, 2

00000afc <.Lpcrel_hi13>:
     afc: 17 06 00 00  	auipc	a2, 0
     b00: 13 06 06 00  	mv	a2, a2
     b04: b3 85 c5 00  	add	a1, a1, a2
     b08: 83 a6 05 00  	lw	a3, 0(a1)
     b0c: 93 05 10 00  	li	a1, 1
     b10: 13 06 00 10  	li	a2, 256
     b14: 67 80 06 00  	jr	a3

00000b18 <.LBB48_32>:
     b18: 03 c5 1d 00  	lbu	a0, 1(s11)
     b1c: 93 05 80 06  	li	a1, 104
     b20: 63 10 b5 00  	bne	a0, a1, 0xb20 <.LBB48_32+0x8>
     b24: 93 05 20 00  	li	a1, 2
     b28: 13 06 00 0c  	li	a2, 192
     b2c: 6f 00 00 00  	j	0xb2c <.LBB48_32+0x14>

00000b30 <.LBB48_34>:
     b30: 13 06 00 20  	li	a2, 512
     b34: 6f 00 00 00  	j	0xb34 <.LBB48_34+0x4>

00000b38 <.LBB48_35>:
     b38: 03 c5 1d 00  	lbu	a0, 1(s11)
     b3c: 93 05 c0 06  	li	a1, 108
     b40: 63 10 b5 00  	bne	a0, a1, 0xb40 <.LBB48_35+0x8>
     b44: 93 05 20 00  	li	a1, 2
     b48: 13 06 00 30  	li	a2, 768

00000b4c <.LBB48_37>:
     b4c: b3 8d bd 00  	add	s11, s11, a1
     b50: 03 c5 0d 00  	lbu	a0, 0(s11)
     b54: 33 6e ce 00  	or	t3, t3, a2

00000b58 <.LBB48_38>:
     b58: 93 05 b5 fd  	addi	a1, a0, -37
     b5c: 13 06 30 05  	li	a2, 83
     b60: 63 60 b6 00  	bltu	a2, a1, 0xb60 <.LBB48_38+0x8>
     b64: 93 95 25 00  	slli	a1, a1, 2

00000b68 <.Lpcrel_hi14>:
     b68: 17 06 00 00  	auipc	a2, 0
     b6c: 13 06 06 00  	mv	a2, a2
     b70: b3 85 c5 00  	add	a1, a1, a2
     b74: 03 a6 05 00  	lw	a2, 0(a1)
     b78: 93 05 80 00  	li	a1, 8
     b7c: 13 08 00 01  	li	a6, 16
     b80: 67 00 06 00  	jr	a2

00000b84 <.LBB48_40>:
     b84: 13 7e fe fe  	andi	t3, t3, -17
     b88: 13 08 a0 00  	li	a6, 10

00000b8c <.LBB48_41>:
     b8c: 93 05 85 fa  	addi	a1, a0, -88
     b90: 93 b5 15 00  	seqz	a1, a1
     b94: 93 95 55 00  	slli	a1, a1, 5
     b98: 33 6e be 00  	or	t3, t3, a1
     b9c: 93 05 40 06  	li	a1, 100
     ba0: 63 00 b5 00  	beq	a0, a1, 0xba0 <.LBB48_41+0x14>
     ba4: 93 05 08 00  	mv	a1, a6
     ba8: 13 06 90 06  	li	a2, 105
     bac: 63 00 c5 00  	beq	a0, a2, 0xbac <.LBB48_41+0x20>
     bb0: 6f 00 00 00  	j	0xbb0 <.LBB48_41+0x24>

00000bb4 <.LBB48_43>:
     bb4: 13 05 a5 fb  	addi	a0, a0, -70
     bb8: 13 35 15 00  	seqz	a0, a0
     bbc: 83 25 81 01  	lw	a1, 24(sp)
     bc0: 93 85 75 00  	addi	a1, a1, 7
     bc4: 93 f5 85 ff  	andi	a1, a1, -8
     bc8: 07 b5 05 00  	fld	fa0, 0(a1)
     bcc: 13 15 55 00  	slli	a0, a0, 5
     bd0: 33 68 ae 00  	or	a6, t3, a0
     bd4: 93 85 85 00  	addi	a1, a1, 8
     bd8: 23 2c b1 00  	sw	a1, 24(sp)
     bdc: 13 05 09 00  	mv	a0, s2
     be0: 93 85 04 00  	mv	a1, s1
     be4: 13 06 0a 00  	mv	a2, s4
     be8: 93 06 04 00  	mv	a3, s0
     bec: 13 07 0b 00  	mv	a4, s6
     bf0: 93 87 0a 00  	mv	a5, s5
     bf4: 97 00 00 00  	auipc	ra, 0
     bf8: e7 80 00 00  	jalr	ra
     bfc: 13 0a 05 00  	mv	s4, a0
     c00: 93 8a 1d 00  	addi	s5, s11, 1
     c04: 6f 00 00 00  	j	0xc04 <.LBB48_43+0x50>

00000c08 <.LBB48_44>:
     c08: 83 25 41 01  	lw	a1, 20(sp)
     c0c: 33 6e be 00  	or	t3, t3, a1

00000c10 <.LBB48_45>:
     c10: 13 65 25 00  	ori	a0, a0, 2
     c14: 93 05 70 04  	li	a1, 71
     c18: 63 10 b5 00  	bne	a0, a1, 0xc18 <.LBB48_45+0x8>
     c1c: 13 6e 0e 02  	ori	t3, t3, 32

00000c20 <.LBB48_47>:
     c20: 03 25 81 01  	lw	a0, 24(sp)
     c24: 13 05 75 00  	addi	a0, a0, 7
     c28: 13 75 85 ff  	andi	a0, a0, -8
     c2c: 07 35 05 00  	fld	fa0, 0(a0)
     c30: 13 05 85 00  	addi	a0, a0, 8
     c34: 23 2c a1 00  	sw	a0, 24(sp)
     c38: 13 05 09 00  	mv	a0, s2
     c3c: 93 85 04 00  	mv	a1, s1
     c40: 13 06 0a 00  	mv	a2, s4
     c44: 93 06 04 00  	mv	a3, s0
     c48: 13 07 0b 00  	mv	a4, s6
     c4c: 93 87 0a 00  	mv	a5, s5
     c50: 13 08 0e 00  	mv	a6, t3
     c54: 97 00 00 00  	auipc	ra, 0
     c58: e7 80 00 00  	jalr	ra
     c5c: 13 0a 05 00  	mv	s4, a0
     c60: 93 8a 1d 00  	addi	s5, s11, 1
     c64: 6f 00 00 00  	j	0xc64 <.LBB48_47+0x44>

00000c68 <.LBB48_48>:
     c68: 13 6e 0e 08  	ori	t3, t3, 128
     c6c: 93 8d 1d 00  	addi	s11, s11, 1
     c70: 6f 00 00 00  	j	0xc70 <.LBB48_48+0x8>

00000c74 <.LBB48_49>:
     c74: 13 6e 0e 10  	ori	t3, t3, 256
     c78: 93 8d 1d 00  	addi	s11, s11, 1
     c7c: 6f 00 00 00  	j	0xc7c <.LBB48_49+0x8>

00000c80 <.LBB48_50>:
     c80: 93 09 1a 00  	addi	s3, s4, 1
     c84: 13 05 50 02  	li	a0, 37
     c88: 6f 00 00 00  	j	0xc88 <.LBB48_50+0x8>

00000c8c <.LBB48_51>:
     c8c: 93 09 1a 00  	addi	s3, s4, 1

00000c90 <.LBB48_52>:
     c90: 93 85 04 00  	mv	a1, s1
     c94: 13 06 0a 00  	mv	a2, s4
     c98: 93 06 04 00  	mv	a3, s0
     c9c: e7 00 09 00  	jalr	s2
     ca0: 6f 00 00 00  	j	0xca0 <.LBB48_52+0x10>

00000ca4 <.LBB48_53>:
     ca4: 93 05 20 00  	li	a1, 2

00000ca8 <.LBB48_54>:
     ca8: 13 7e 3e ff  	andi	t3, t3, -13
     cac: 13 88 05 00  	mv	a6, a1

00000cb0 <.LBB48_55>:
     cb0: 93 75 0e 40  	andi	a1, t3, 1024
     cb4: 63 80 05 00  	beqz	a1, 0xcb4 <.LBB48_55+0x4>
     cb8: 13 7e ee ff  	andi	t3, t3, -2

00000cbc <.LBB48_57>:
     cbc: 93 05 90 06  	li	a1, 105
     cc0: 63 00 b5 00  	beq	a0, a1, 0xcc0 <.LBB48_57+0x4>
     cc4: 93 05 40 06  	li	a1, 100
     cc8: 63 10 b5 00  	bne	a0, a1, 0xcc8 <.LBB48_57+0xc>

00000ccc <.LBB48_59>:
     ccc: 13 75 0e 20  	andi	a0, t3, 512
     cd0: 63 10 05 00  	bnez	a0, 0xcd0 <.LBB48_59+0x4>
     cd4: 13 75 0e 10  	andi	a0, t3, 256
     cd8: 63 10 05 00  	bnez	a0, 0xcd8 <.LBB48_59+0xc>
     cdc: 13 75 0e 04  	andi	a0, t3, 64
     ce0: 63 10 05 00  	bnez	a0, 0xce0 <.LBB48_59+0x14>
     ce4: 03 25 81 01  	lw	a0, 24(sp)
     ce8: 83 27 05 00  	lw	a5, 0(a0)
     cec: 13 75 0e 08  	andi	a0, t3, 128
     cf0: 63 00 05 00  	beqz	a0, 0xcf0 <.LBB48_59+0x24>
     cf4: 93 97 07 01  	slli	a5, a5, 16
     cf8: 93 d7 07 41  	srai	a5, a5, 16

00000cfc <.LBB48_64>:
     cfc: 03 25 81 01  	lw	a0, 24(sp)
     d00: 6f 00 00 00  	j	0xd00 <.LBB48_64+0x4>

00000d04 <.LBB48_65>:
     d04: 13 75 0e 20  	andi	a0, t3, 512
     d08: 63 10 05 00  	bnez	a0, 0xd08 <.LBB48_65+0x4>
     d0c: 13 75 0e 10  	andi	a0, t3, 256
     d10: 63 10 05 00  	bnez	a0, 0xd10 <.LBB48_65+0xc>
     d14: 13 75 0e 04  	andi	a0, t3, 64
     d18: 63 10 05 00  	bnez	a0, 0xd18 <.LBB48_65+0x14>
     d1c: 03 25 81 01  	lw	a0, 24(sp)
     d20: 03 27 05 00  	lw	a4, 0(a0)
     d24: 13 75 0e 08  	andi	a0, t3, 128
     d28: 63 00 05 00  	beqz	a0, 0xd28 <.LBB48_65+0x24>
     d2c: 13 17 07 01  	slli	a4, a4, 16
     d30: 13 57 07 01  	srli	a4, a4, 16

00000d34 <.LBB48_70>:
     d34: 03 25 81 01  	lw	a0, 24(sp)
     d38: 6f 00 00 00  	j	0xd38 <.LBB48_70+0x4>

00000d3c <.LBB48_71>:
     d3c: 83 29 81 01  	lw	s3, 24(sp)
     d40: 83 a7 09 00  	lw	a5, 0(s3)
     d44: 93 89 49 00  	addi	s3, s3, 4
     d48: 13 d5 f7 41  	srai	a0, a5, 31
     d4c: 33 c7 a7 00  	xor	a4, a5, a0
     d50: 33 07 a7 40  	sub	a4, a4, a0
     d54: 93 d7 f7 01  	srli	a5, a5, 31
     d58: 13 05 09 00  	mv	a0, s2
     d5c: 93 85 04 00  	mv	a1, s1
     d60: 13 06 0a 00  	mv	a2, s4
     d64: 93 06 04 00  	mv	a3, s0
     d68: 6f 00 00 00  	j	0xd68 <.LBB48_71+0x2c>

00000d6c <.LBB48_72>:
     d6c: 93 79 2e 00  	andi	s3, t3, 2
     d70: 13 0b 10 00  	li	s6, 1
     d74: 63 90 09 00  	bnez	s3, 0xd74 <.LBB48_72+0x8>
     d78: 13 0b 20 00  	li	s6, 2
     d7c: 63 e0 6a 01  	bltu	s5, s6, 0xd7c <.LBB48_72+0x10>
     d80: 13 8b 1a 00  	addi	s6, s5, 1
     d84: 93 8c fa ff  	addi	s9, s5, -1

00000d88 <.LBB48_75>:
     d88: 13 06 0a 00  	mv	a2, s4
     d8c: 13 0a 1a 00  	addi	s4, s4, 1
     d90: 13 05 00 02  	li	a0, 32
     d94: 93 85 04 00  	mv	a1, s1
     d98: 93 06 04 00  	mv	a3, s0
     d9c: e7 00 09 00  	jalr	s2
     da0: 93 8c fc ff  	addi	s9, s9, -1
     da4: 63 90 0c 00  	bnez	s9, 0xda4 <.LBB48_75+0x1c>

00000da8 <.LBB48_76>:
     da8: 03 25 81 01  	lw	a0, 24(sp)
     dac: 13 06 0a 00  	mv	a2, s4
     db0: 93 05 05 00  	mv	a1, a0
     db4: 03 45 05 00  	lbu	a0, 0(a0)
     db8: b3 3c 30 01  	snez	s9, s3
     dbc: 93 89 45 00  	addi	s3, a1, 4
     dc0: 13 0a 1a 00  	addi	s4, s4, 1
     dc4: 93 85 04 00  	mv	a1, s1
     dc8: 93 06 04 00  	mv	a3, s0
     dcc: e7 00 09 00  	jalr	s2
     dd0: 33 35 5b 01  	sltu	a0, s6, s5
     dd4: 33 f5 ac 00  	and	a0, s9, a0
     dd8: 63 00 05 00  	beqz	a0, 0xdd8 <.LBB48_76+0x30>
     ddc: b3 8a 6a 41  	sub	s5, s5, s6
     de0: 93 0c 90 00  	li	s9, 9

00000de4 <.LBB48_78>:
     de4: 13 06 0a 00  	mv	a2, s4
     de8: 13 0a 1a 00  	addi	s4, s4, 1
     dec: 13 05 00 02  	li	a0, 32
     df0: 93 85 04 00  	mv	a1, s1
     df4: 93 06 04 00  	mv	a3, s0
     df8: e7 00 09 00  	jalr	s2
     dfc: 93 8a fa ff  	addi	s5, s5, -1
     e00: 63 90 0a 00  	bnez	s5, 0xe00 <.LBB48_78+0x1c>
     e04: 23 2c 31 01  	sw	s3, 24(sp)
     e08: 93 8a 1d 00  	addi	s5, s11, 1
     e0c: 6f 00 00 00  	j	0xe0c <.LBB48_78+0x28>

00000e10 <.LBB48_80>:
     e10: 83 29 81 01  	lw	s3, 24(sp)
     e14: 03 a7 09 00  	lw	a4, 0(s3)
     e18: 13 6e 1e 02  	ori	t3, t3, 33
     e1c: 93 89 49 00  	addi	s3, s3, 4
     e20: 13 08 00 01  	li	a6, 16
     e24: 93 03 80 00  	li	t2, 8
     e28: 13 05 09 00  	mv	a0, s2
     e2c: 93 85 04 00  	mv	a1, s1
     e30: 13 06 0a 00  	mv	a2, s4
     e34: 93 06 04 00  	mv	a3, s0
     e38: 93 07 00 00  	li	a5, 0
     e3c: 93 08 0b 00  	mv	a7, s6
     e40: 6f 00 00 00  	j	0xe40 <.LBB48_80+0x30>

00000e44 <.LBB48_81>:
     e44: 03 25 81 01  	lw	a0, 24(sp)
     e48: 83 2c 05 00  	lw	s9, 0(a0)
     e4c: 03 c5 0c 00  	lbu	a0, 0(s9)
     e50: 13 86 0c 00  	mv	a2, s9
     e54: 63 00 05 00  	beqz	a0, 0xe54 <.LBB48_81+0x10>
     e58: b3 35 60 01  	snez	a1, s6
     e5c: 93 85 f5 ff  	addi	a1, a1, -1
     e60: b3 e5 65 01  	or	a1, a1, s6
     e64: 93 85 f5 ff  	addi	a1, a1, -1
     e68: 93 86 0c 00  	mv	a3, s9

00000e6c <.LBB48_83>:
     e6c: 03 c7 16 00  	lbu	a4, 1(a3)
     e70: 13 86 16 00  	addi	a2, a3, 1
     e74: 93 36 17 00  	seqz	a3, a4
     e78: 13 b7 15 00  	seqz	a4, a1
     e7c: 33 e7 e6 00  	or	a4, a3, a4
     e80: 93 85 f5 ff  	addi	a1, a1, -1
     e84: 93 06 06 00  	mv	a3, a2
     e88: 63 00 07 00  	beqz	a4, 0xe88 <.LBB48_83+0x1c>

00000e8c <.LBB48_84>:
     e8c: b3 05 96 41  	sub	a1, a2, s9
     e90: 13 86 05 00  	mv	a2, a1
     e94: 63 e0 65 01  	bltu	a1, s6, 0xe94 <.LBB48_84+0x8>
     e98: 13 06 0b 00  	mv	a2, s6
     e9c: 93 76 0e 40  	andi	a3, t3, 1024
     ea0: 23 28 d1 00  	sw	a3, 16(sp)
     ea4: 63 90 06 00  	bnez	a3, 0xea4 <.LBB48_84+0x18>

00000ea8 <.LBB48_86>:
     ea8: 13 76 2e 00  	andi	a2, t3, 2
     eac: 23 26 c1 00  	sw	a2, 12(sp)
     eb0: 63 00 06 00  	beqz	a2, 0xeb0 <.LBB48_86+0x8>
     eb4: 6f 00 00 00  	j	0xeb4 <.LBB48_86+0xc>

00000eb8 <.LBB48_87>:
     eb8: 93 76 0e 40  	andi	a3, t3, 1024
     ebc: 23 28 d1 00  	sw	a3, 16(sp)
     ec0: 63 80 06 00  	beqz	a3, 0xec0 <.LBB48_87+0x8>

00000ec4 <.LBB48_88>:
     ec4: 93 05 06 00  	mv	a1, a2
     ec8: 13 76 2e 00  	andi	a2, t3, 2
     ecc: 23 26 c1 00  	sw	a2, 12(sp)
     ed0: 63 10 06 00  	bnez	a2, 0xed0 <.LBB48_88+0xc>

00000ed4 <.LBB48_89>:
     ed4: 63 f0 55 01  	bgeu	a1, s5, 0xed4 <.LBB48_89>
     ed8: 13 85 1a 00  	addi	a0, s5, 1
     edc: 23 24 a1 00  	sw	a0, 8(sp)
     ee0: b3 89 ba 40  	sub	s3, s5, a1

00000ee4 <.LBB48_91>:
     ee4: 13 06 0a 00  	mv	a2, s4
     ee8: 13 0a 1a 00  	addi	s4, s4, 1
     eec: 13 05 00 02  	li	a0, 32
     ef0: 93 85 04 00  	mv	a1, s1
     ef4: 93 06 04 00  	mv	a3, s0
     ef8: e7 00 09 00  	jalr	s2
     efc: 93 89 f9 ff  	addi	s3, s3, -1
     f00: 63 90 09 00  	bnez	s3, 0xf00 <.LBB48_91+0x1c>
     f04: 03 c5 0c 00  	lbu	a0, 0(s9)
     f08: 6f 00 00 00  	j	0xf08 <.LBB48_91+0x24>

00000f0c <.LBB48_93>:
     f0c: 03 25 81 01  	lw	a0, 24(sp)
     f10: 83 47 05 00  	lbu	a5, 0(a0)

00000f14 <.LBB48_94>:
     f14: 13 05 45 00  	addi	a0, a0, 4
     f18: 23 2c a1 00  	sw	a0, 24(sp)
     f1c: 13 d5 f7 41  	srai	a0, a5, 31
     f20: 33 c7 a7 00  	xor	a4, a5, a0
     f24: 33 07 a7 40  	sub	a4, a4, a0
     f28: 93 d7 f7 01  	srli	a5, a5, 31
     f2c: 13 05 09 00  	mv	a0, s2
     f30: 93 85 04 00  	mv	a1, s1
     f34: 13 06 0a 00  	mv	a2, s4
     f38: 93 06 04 00  	mv	a3, s0
     f3c: 6f 00 00 00  	j	0xf3c <.LBB48_94+0x28>

00000f40 <.LBB48_95>:
     f40: 83 29 81 01  	lw	s3, 24(sp)
     f44: 03 a7 09 00  	lw	a4, 0(s3)
     f48: 93 89 49 00  	addi	s3, s3, 4
     f4c: 13 05 09 00  	mv	a0, s2
     f50: 93 85 04 00  	mv	a1, s1
     f54: 13 06 0a 00  	mv	a2, s4
     f58: 93 06 04 00  	mv	a3, s0
     f5c: 93 07 00 00  	li	a5, 0

00000f60 <.LBB48_96>:
     f60: 93 08 0b 00  	mv	a7, s6
     f64: 93 83 0a 00  	mv	t2, s5

00000f68 <.LBB48_97>:
     f68: 97 00 00 00  	auipc	ra, 0
     f6c: e7 80 00 00  	jalr	ra
     f70: 13 0a 05 00  	mv	s4, a0
     f74: 23 2c 31 01  	sw	s3, 24(sp)
     f78: 93 8a 1d 00  	addi	s5, s11, 1
     f7c: 6f 00 00 00  	j	0xf7c <.LBB48_97+0x14>

00000f80 <.LBB48_98>:
     f80: 23 2c 31 01  	sw	s3, 24(sp)
     f84: 93 0c 90 00  	li	s9, 9
     f88: 93 8a 1d 00  	addi	s5, s11, 1
     f8c: 6f 00 00 00  	j	0xf8c <.LBB48_98+0xc>

00000f90 <.LBB48_99>:
     f90: 03 25 81 01  	lw	a0, 24(sp)
     f94: 03 47 05 00  	lbu	a4, 0(a0)

00000f98 <.LBB48_100>:
     f98: 13 05 45 00  	addi	a0, a0, 4
     f9c: 23 2c a1 00  	sw	a0, 24(sp)
     fa0: 13 05 09 00  	mv	a0, s2
     fa4: 93 85 04 00  	mv	a1, s1
     fa8: 13 06 0a 00  	mv	a2, s4
     fac: 93 06 04 00  	mv	a3, s0
     fb0: 93 07 00 00  	li	a5, 0

00000fb4 <.LBB48_101>:
     fb4: 93 08 0b 00  	mv	a7, s6
     fb8: 93 83 0a 00  	mv	t2, s5
     fbc: 97 00 00 00  	auipc	ra, 0
     fc0: e7 80 00 00  	jalr	ra
     fc4: 13 0a 05 00  	mv	s4, a0
     fc8: 93 8a 1d 00  	addi	s5, s11, 1
     fcc: 6f 00 00 00  	j	0xfcc <.LBB48_101+0x18>

00000fd0 <.LBB48_102>:
     fd0: 93 85 15 00  	addi	a1, a1, 1

00000fd4 <.LBB48_103>:
     fd4: 23 24 b1 00  	sw	a1, 8(sp)

00000fd8 <.LBB48_104>:
     fd8: 63 00 05 00  	beqz	a0, 0xfd8 <.LBB48_104>
     fdc: 93 8c 1c 00  	addi	s9, s9, 1
     fe0: 6f 00 00 00  	j	0xfe0 <.LBB48_104+0x8>

00000fe4 <.LBB48_106>:
     fe4: 13 0b fb ff  	addi	s6, s6, -1

00000fe8 <.LBB48_107>:
     fe8: 93 09 1a 00  	addi	s3, s4, 1
     fec: 13 75 f5 0f  	andi	a0, a0, 255
     ff0: 93 85 04 00  	mv	a1, s1
     ff4: 13 06 0a 00  	mv	a2, s4
     ff8: 93 06 04 00  	mv	a3, s0
     ffc: e7 00 09 00  	jalr	s2
    1000: 03 c5 0c 00  	lbu	a0, 0(s9)
    1004: 93 8c 1c 00  	addi	s9, s9, 1
    1008: 13 8a 09 00  	mv	s4, s3
    100c: 63 00 05 00  	beqz	a0, 0x100c <.LBB48_107+0x24>

00001010 <.LBB48_108>:
    1010: 83 25 01 01  	lw	a1, 16(sp)
    1014: 63 80 05 00  	beqz	a1, 0x1014 <.LBB48_108+0x4>
    1018: 63 10 0b 00  	bnez	s6, 0x1018 <.LBB48_108+0x8>

0000101c <.LBB48_110>:
    101c: 93 09 0a 00  	mv	s3, s4

00001020 <.LBB48_111>:
    1020: 03 25 c1 00  	lw	a0, 12(sp)
    1024: 33 35 a0 00  	snez	a0, a0
    1028: 03 26 81 00  	lw	a2, 8(sp)
    102c: b3 35 56 01  	sltu	a1, a2, s5
    1030: 33 75 b5 00  	and	a0, a0, a1
    1034: 83 25 81 01  	lw	a1, 24(sp)
    1038: 93 85 45 00  	addi	a1, a1, 4
    103c: 23 2c b1 00  	sw	a1, 24(sp)
    1040: 63 00 05 00  	beqz	a0, 0x1040 <.LBB48_111+0x20>
    1044: 33 8a ca 40  	sub	s4, s5, a2
    1048: 93 0c 90 00  	li	s9, 9

0000104c <.LBB48_113>:
    104c: 13 86 09 00  	mv	a2, s3
    1050: 93 89 19 00  	addi	s3, s3, 1
    1054: 13 05 00 02  	li	a0, 32
    1058: 93 85 04 00  	mv	a1, s1
    105c: 93 06 04 00  	mv	a3, s0
    1060: e7 00 09 00  	jalr	s2
    1064: 13 0a fa ff  	addi	s4, s4, -1
    1068: 63 10 0a 00  	bnez	s4, 0x1068 <.LBB48_113+0x1c>

0000106c <.LBB48_114>:
    106c: 13 8a 09 00  	mv	s4, s3

00001070 <.LBB48_115>:
    1070: 93 8a 1d 00  	addi	s5, s11, 1
    1074: 6f 00 00 00  	j	0x1074 <.LBB48_115+0x4>

00001078 <.LBB48_116>:
    1078: 13 8a 09 00  	mv	s4, s3
    107c: 93 0c 90 00  	li	s9, 9
    1080: 93 8a 1d 00  	addi	s5, s11, 1
    1084: 6f 00 00 00  	j	0x1084 <.LBB48_116+0xc>

00001088 <.LBB48_117>:
    1088: 13 06 0a 00  	mv	a2, s4
    108c: 63 60 8a 00  	bltu	s4, s0, 0x108c <.LBB48_117+0x4>
    1090: 13 06 f4 ff  	addi	a2, s0, -1

00001094 <.LBB48_119>:
    1094: 13 05 00 00  	li	a0, 0
    1098: 93 85 04 00  	mv	a1, s1
    109c: 93 06 04 00  	mv	a3, s0
    10a0: e7 00 09 00  	jalr	s2
    10a4: 13 05 0a 00  	mv	a0, s4
    10a8: 83 20 c1 04  	lw	ra, 76(sp)
    10ac: 03 24 81 04  	lw	s0, 72(sp)
    10b0: 83 24 41 04  	lw	s1, 68(sp)
    10b4: 03 29 01 04  	lw	s2, 64(sp)
    10b8: 83 29 c1 03  	lw	s3, 60(sp)
    10bc: 03 2a 81 03  	lw	s4, 56(sp)
    10c0: 83 2a 41 03  	lw	s5, 52(sp)
    10c4: 03 2b 01 03  	lw	s6, 48(sp)
    10c8: 83 2b c1 02  	lw	s7, 44(sp)
    10cc: 03 2c 81 02  	lw	s8, 40(sp)
    10d0: 83 2c 41 02  	lw	s9, 36(sp)
    10d4: 03 2d 01 02  	lw	s10, 32(sp)
    10d8: 83 2d c1 01  	lw	s11, 28(sp)
    10dc: 13 01 01 05  	addi	sp, sp, 80
    10e0: 67 80 00 00  	ret

000010e4 <_out_char>:
    10e4: 63 00 05 00  	beqz	a0, 0x10e4 <_out_char>
    10e8: f3 25 40 f1  	csrr	a1, mhartid
    10ec: 13 06 80 44  	li	a2, 1096
    10f0: b3 85 c5 02  	mul	a1, a1, a2

000010f4 <.Lpcrel_hi15>:
    10f4: 17 06 00 00  	auipc	a2, 0
    10f8: 13 06 06 00  	mv	a2, a2
    10fc: b3 05 b6 00  	add	a1, a2, a1
    1100: 03 a6 05 00  	lw	a2, 0(a1)
    1104: 93 06 16 00  	addi	a3, a2, 1
    1108: 23 a0 d5 00  	sw	a3, 0(a1)
    110c: 33 86 c5 00  	add	a2, a1, a2
    1110: 23 04 a6 04  	sb	a0, 72(a2)
    1114: 03 a6 05 00  	lw	a2, 0(a1)
    1118: 13 06 46 c0  	addi	a2, a2, -1020
    111c: 33 36 c0 00  	snez	a2, a2
    1120: 13 05 65 ff  	addi	a0, a0, -10
    1124: 33 35 a0 00  	snez	a0, a0
    1128: 33 75 c5 00  	and	a0, a0, a2
    112c: 63 10 05 00  	bnez	a0, 0x112c <.Lpcrel_hi15+0x38>
    1130: 13 85 85 04  	addi	a0, a1, 72
    1134: 23 a6 05 00  	sw	zero, 12(a1)
    1138: 13 06 00 04  	li	a2, 64
    113c: 23 a4 c5 00  	sw	a2, 8(a1)
    1140: 23 aa 05 00  	sw	zero, 20(a1)
    1144: 13 06 10 00  	li	a2, 1
    1148: 23 a8 c5 00  	sw	a2, 16(a1)
    114c: 23 ae 05 00  	sw	zero, 28(a1)
    1150: 23 ac a5 00  	sw	a0, 24(a1)
    1154: 03 a5 05 00  	lw	a0, 0(a1)
    1158: 13 86 85 00  	addi	a2, a1, 8
    115c: 23 a2 05 02  	sw	zero, 36(a1)
    1160: 23 a0 a5 02  	sw	a0, 32(a1)

00001164 <.Lpcrel_hi16>:
    1164: 17 05 00 00  	auipc	a0, 0
    1168: 23 20 c5 00  	sw	a2, 0(a0)

0000116c <.Lpcrel_hi17>:
    116c: 17 05 00 00  	auipc	a0, 0

00001170 <.LBB49_3>:
    1170: 03 26 05 00  	lw	a2, 0(a0)
    1174: 63 00 06 00  	beqz	a2, 0x1174 <.LBB49_3+0x4>
    1178: 23 20 05 00  	sw	zero, 0(a0)
    117c: 23 a0 05 00  	sw	zero, 0(a1)

00001180 <.LBB49_5>:
    1180: 67 80 00 00  	ret

00001184 <_out_null>:
    1184: 67 80 00 00  	ret

00001188 <_ntoa_long>:
    1188: 13 01 01 fb  	addi	sp, sp, -80
    118c: 23 26 11 04  	sw	ra, 76(sp)
    1190: 23 24 81 04  	sw	s0, 72(sp)
    1194: 23 22 91 04  	sw	s1, 68(sp)
    1198: 23 20 21 05  	sw	s2, 64(sp)
    119c: 23 2e 31 03  	sw	s3, 60(sp)
    11a0: 23 2c 41 03  	sw	s4, 56(sp)
    11a4: 23 2a 51 03  	sw	s5, 52(sp)
    11a8: 23 28 61 03  	sw	s6, 48(sp)
    11ac: 23 26 71 03  	sw	s7, 44(sp)
    11b0: 23 24 81 03  	sw	s8, 40(sp)
    11b4: 23 22 91 03  	sw	s9, 36(sp)
    11b8: 23 20 a1 03  	sw	s10, 32(sp)
    11bc: 13 84 03 00  	mv	s0, t2
    11c0: 93 84 06 00  	mv	s1, a3
    11c4: 13 0a 06 00  	mv	s4, a2
    11c8: 13 89 05 00  	mv	s2, a1
    11cc: 93 09 05 00  	mv	s3, a0
    11d0: 93 35 17 00  	seqz	a1, a4
    11d4: 63 10 07 00  	bnez	a4, 0x11d4 <_ntoa_long+0x4c>
    11d8: 13 7e fe fe  	andi	t3, t3, -17

000011dc <.LBB51_2>:
    11dc: 13 75 0e 40  	andi	a0, t3, 1024
    11e0: 13 56 a5 00  	srli	a2, a0, 10
    11e4: b3 f5 c5 00  	and	a1, a1, a2
    11e8: 63 90 05 00  	bnez	a1, 0x11e8 <.LBB51_2+0xc>
    11ec: 93 06 00 00  	li	a3, 0
    11f0: 93 75 0e 02  	andi	a1, t3, 32
    11f4: 93 c5 15 06  	xori	a1, a1, 97
    11f8: 93 85 65 0f  	addi	a1, a1, 246
    11fc: 13 06 a0 00  	li	a2, 10
    1200: 93 02 01 00  	mv	t0, sp
    1204: 6f 00 00 00  	j	0x1204 <.LBB51_2+0x28>

00001208 <.LBB51_4>:
    1208: b3 83 d3 01  	add	t2, t2, t4
    120c: 13 8c 16 00  	addi	s8, a3, 1
    1210: b3 8e d2 00  	add	t4, t0, a3
    1214: 33 37 07 01  	sltu	a4, a4, a6
    1218: 13 47 f7 ff  	not	a4, a4
    121c: 93 b6 f6 01  	sltiu	a3, a3, 31
    1220: 33 7f d7 00  	and	t5, a4, a3
    1224: 23 80 7e 00  	sb	t2, 0(t4)
    1228: 93 06 0c 00  	mv	a3, s8
    122c: 13 07 03 00  	mv	a4, t1
    1230: 63 00 0f 00  	beqz	t5, 0x1230 <.LBB51_4+0x28>

00001234 <.LBB51_5>:
    1234: 33 53 07 03  	divu	t1, a4, a6
    1238: b3 03 03 03  	mul	t2, t1, a6
    123c: b3 03 77 40  	sub	t2, a4, t2
    1240: 13 ff e3 0f  	andi	t5, t2, 254
    1244: 93 8e 05 00  	mv	t4, a1
    1248: 63 70 cf 00  	bgeu	t5, a2, 0x1248 <.LBB51_5+0x14>
    124c: 93 0e 00 03  	li	t4, 48
    1250: 6f 00 00 00  	j	0x1250 <.LBB51_5+0x1c>

00001254 <.LBB51_7>:
    1254: 13 0c 00 00  	li	s8, 0

00001258 <.LBB51_8>:
    1258: 93 7b 2e 00  	andi	s7, t3, 2
    125c: 63 90 0b 00  	bnez	s7, 0x125c <.LBB51_8+0x4>
    1260: 63 00 04 00  	beqz	s0, 0x1260 <.LBB51_8+0x8>
    1264: 93 75 1e 00  	andi	a1, t3, 1
    1268: 63 80 05 00  	beqz	a1, 0x1268 <.LBB51_8+0x10>
    126c: 93 75 ce 00  	andi	a1, t3, 12
    1270: b3 35 b0 00  	snez	a1, a1
    1274: b3 e5 f5 00  	or	a1, a1, a5
    1278: 33 04 b4 40  	sub	s0, s0, a1

0000127c <.LBB51_12>:
    127c: 13 06 00 02  	li	a2, 32
    1280: 93 85 08 00  	mv	a1, a7
    1284: 63 f0 c8 00  	bgeu	a7, a2, 0x1284 <.LBB51_12+0x8>
    1288: 63 60 bc 00  	bltu	s8, a1, 0x1288 <.LBB51_12+0xc>

0000128c <.LBB51_14>:
    128c: 13 06 00 02  	li	a2, 32
    1290: 93 05 04 00  	mv	a1, s0
    1294: 63 70 c4 00  	bgeu	s0, a2, 0x1294 <.LBB51_14+0x8>

00001298 <.LBB51_15>:
    1298: 33 36 bc 00  	sltu	a2, s8, a1
    129c: 33 76 ce 00  	and	a2, t3, a2
    12a0: 63 10 06 00  	bnez	a2, 0x12a0 <.LBB51_15+0x8>

000012a4 <.LBB51_16>:
    12a4: 93 75 0e 01  	andi	a1, t3, 16
    12a8: 63 90 05 00  	bnez	a1, 0x12a8 <.LBB51_16+0x4>

000012ac <.LBB51_17>:
    12ac: 13 05 f0 01  	li	a0, 31
    12b0: 63 70 85 01  	bgeu	a0, s8, 0x12b0 <.LBB51_17+0x4>
    12b4: 6f 00 00 00  	j	0x12b4 <.LBB51_17+0x8>

000012b8 <.LBB51_18>:
    12b8: 93 05 00 02  	li	a1, 32
    12bc: 63 70 bc 00  	bgeu	s8, a1, 0x12bc <.LBB51_18+0x4>

000012c0 <.LBB51_19>:
    12c0: 13 06 01 00  	mv	a2, sp
    12c4: 33 06 86 01  	add	a2, a2, s8
    12c8: b3 86 85 41  	sub	a3, a1, s8
    12cc: 13 07 00 03  	li	a4, 48

000012d0 <.LBB51_20>:
    12d0: 23 00 e6 00  	sb	a4, 0(a2)
    12d4: 93 86 f6 ff  	addi	a3, a3, -1
    12d8: 13 06 16 00  	addi	a2, a2, 1
    12dc: 63 90 06 00  	bnez	a3, 0x12dc <.LBB51_20+0xc>
    12e0: 13 8c 05 00  	mv	s8, a1
    12e4: 13 06 00 02  	li	a2, 32
    12e8: 93 05 04 00  	mv	a1, s0
    12ec: 63 60 c4 00  	bltu	s0, a2, 0x12ec <.LBB51_20+0x1c>

000012f0 <.LBB51_22>:
    12f0: 93 05 00 02  	li	a1, 32
    12f4: 33 36 bc 00  	sltu	a2, s8, a1
    12f8: 33 76 ce 00  	and	a2, t3, a2
    12fc: 63 00 06 00  	beqz	a2, 0x12fc <.LBB51_22+0xc>

00001300 <.LBB51_23>:
    1300: 13 06 01 00  	mv	a2, sp
    1304: 33 06 86 01  	add	a2, a2, s8
    1308: b3 86 85 41  	sub	a3, a1, s8
    130c: 13 07 00 03  	li	a4, 48

00001310 <.LBB51_24>:
    1310: 23 00 e6 00  	sb	a4, 0(a2)
    1314: 93 86 f6 ff  	addi	a3, a3, -1
    1318: 13 06 16 00  	addi	a2, a2, 1
    131c: 63 90 06 00  	bnez	a3, 0x131c <.LBB51_24+0xc>
    1320: 13 8c 05 00  	mv	s8, a1
    1324: 93 75 0e 01  	andi	a1, t3, 16
    1328: 63 80 05 00  	beqz	a1, 0x1328 <.LBB51_24+0x18>

0000132c <.LBB51_26>:
    132c: 33 35 a0 00  	snez	a0, a0
    1330: 93 35 1c 00  	seqz	a1, s8
    1334: 33 65 b5 00  	or	a0, a0, a1
    1338: 63 10 05 00  	bnez	a0, 0x1338 <.LBB51_26+0xc>
    133c: 33 45 1c 01  	xor	a0, s8, a7
    1340: 33 35 a0 00  	snez	a0, a0
    1344: b3 45 8c 00  	xor	a1, s8, s0
    1348: b3 35 b0 00  	snez	a1, a1
    134c: 33 75 b5 00  	and	a0, a0, a1
    1350: 63 10 05 00  	bnez	a0, 0x1350 <.LBB51_26+0x24>
    1354: 13 05 fc ff  	addi	a0, s8, -1
    1358: b3 35 a0 00  	snez	a1, a0
    135c: 13 06 08 ff  	addi	a2, a6, -16
    1360: 13 36 16 00  	seqz	a2, a2
    1364: b3 75 b6 00  	and	a1, a2, a1
    1368: 63 80 05 00  	beqz	a1, 0x1368 <.LBB51_26+0x3c>
    136c: 13 05 ec ff  	addi	a0, s8, -2

00001370 <.LBB51_30>:
    1370: 13 0c 05 00  	mv	s8, a0

00001374 <.LBB51_31>:
    1374: 13 05 00 01  	li	a0, 16
    1378: 63 10 a8 00  	bne	a6, a0, 0x1378 <.LBB51_31+0x4>
    137c: 93 75 0e 02  	andi	a1, t3, 32
    1380: 13 b5 15 00  	seqz	a0, a1
    1384: 13 36 0c 02  	sltiu	a2, s8, 32
    1388: b3 76 c5 00  	and	a3, a0, a2
    138c: 13 05 80 07  	li	a0, 120
    1390: 63 90 06 00  	bnez	a3, 0x1390 <.LBB51_31+0x1c>
    1394: 33 35 b0 00  	snez	a0, a1
    1398: 33 76 c5 00  	and	a2, a0, a2
    139c: 13 05 80 05  	li	a0, 88
    13a0: 63 10 06 00  	bnez	a2, 0x13a0 <.LBB51_31+0x2c>
    13a4: 6f 00 00 00  	j	0x13a4 <.LBB51_31+0x30>

000013a8 <.LBB51_34>:
    13a8: 13 08 e8 ff  	addi	a6, a6, -2
    13ac: 13 35 18 00  	seqz	a0, a6
    13b0: 93 35 0c 02  	sltiu	a1, s8, 32
    13b4: b3 75 b5 00  	and	a1, a0, a1
    13b8: 13 05 20 06  	li	a0, 98
    13bc: 63 80 05 00  	beqz	a1, 0x13bc <.LBB51_34+0x14>

000013c0 <.LBB51_35>:
    13c0: 93 05 01 00  	mv	a1, sp
    13c4: b3 85 85 01  	add	a1, a1, s8
    13c8: 13 0c 1c 00  	addi	s8, s8, 1
    13cc: 23 80 a5 00  	sb	a0, 0(a1)

000013d0 <.LBB51_36>:
    13d0: 13 05 f0 01  	li	a0, 31
    13d4: 63 60 85 01  	bltu	a0, s8, 0x13d4 <.LBB51_36+0x4>
    13d8: 13 05 01 00  	mv	a0, sp
    13dc: 33 05 85 01  	add	a0, a0, s8
    13e0: 13 0c 1c 00  	addi	s8, s8, 1
    13e4: 93 05 00 03  	li	a1, 48
    13e8: 23 00 b5 00  	sb	a1, 0(a0)
    13ec: 13 05 f0 01  	li	a0, 31
    13f0: 63 60 85 01  	bltu	a0, s8, 0x13f0 <.LBB51_36+0x20>

000013f4 <.LBB51_38>:
    13f4: 13 05 d0 02  	li	a0, 45
    13f8: 63 90 07 00  	bnez	a5, 0x13f8 <.LBB51_38+0x4>
    13fc: 93 75 4e 00  	andi	a1, t3, 4
    1400: 13 05 b0 02  	li	a0, 43
    1404: 63 90 05 00  	bnez	a1, 0x1404 <.LBB51_38+0x10>
    1408: 93 75 8e 00  	andi	a1, t3, 8
    140c: 13 05 00 02  	li	a0, 32
    1410: 63 80 05 00  	beqz	a1, 0x1410 <.LBB51_38+0x1c>

00001414 <.LBB51_41>:
    1414: 93 05 01 00  	mv	a1, sp
    1418: b3 85 85 01  	add	a1, a1, s8
    141c: 13 0c 1c 00  	addi	s8, s8, 1
    1420: 23 80 a5 00  	sb	a0, 0(a1)

00001424 <.LBB51_42>:
    1424: 13 75 3e 00  	andi	a0, t3, 3
    1428: 13 35 15 00  	seqz	a0, a0
    142c: b3 35 8c 00  	sltu	a1, s8, s0
    1430: 33 75 b5 00  	and	a0, a0, a1
    1434: 93 0a 0a 00  	mv	s5, s4
    1438: 63 00 05 00  	beqz	a0, 0x1438 <.LBB51_42+0x14>
    143c: 33 0b 84 41  	sub	s6, s0, s8
    1440: 13 06 0a 00  	mv	a2, s4

00001444 <.LBB51_44>:
    1444: 93 0a 16 00  	addi	s5, a2, 1
    1448: 13 05 00 02  	li	a0, 32
    144c: 93 05 09 00  	mv	a1, s2
    1450: 93 86 04 00  	mv	a3, s1
    1454: e7 80 09 00  	jalr	s3
    1458: 13 0b fb ff  	addi	s6, s6, -1
    145c: 13 86 0a 00  	mv	a2, s5
    1460: 63 10 0b 00  	bnez	s6, 0x1460 <.LBB51_44+0x1c>

00001464 <.LBB51_45>:
    1464: 63 00 0c 00  	beqz	s8, 0x1464 <.LBB51_45>
    1468: 93 0c f1 ff  	addi	s9, sp, -1

0000146c <.LBB51_47>:
    146c: 33 85 8c 01  	add	a0, s9, s8
    1470: 03 45 05 00  	lbu	a0, 0(a0)
    1474: 13 0d fc ff  	addi	s10, s8, -1
    1478: 13 8b 1a 00  	addi	s6, s5, 1
    147c: 93 05 09 00  	mv	a1, s2
    1480: 13 86 0a 00  	mv	a2, s5
    1484: 93 86 04 00  	mv	a3, s1
    1488: e7 80 09 00  	jalr	s3
    148c: 93 0a 0b 00  	mv	s5, s6
    1490: 13 0c 0d 00  	mv	s8, s10
    1494: 63 10 0d 00  	bnez	s10, 0x1494 <.LBB51_47+0x28>
    1498: 6f 00 00 00  	j	0x1498 <.LBB51_47+0x2c>

0000149c <.LBB51_48>:
    149c: 13 8b 0a 00  	mv	s6, s5

000014a0 <.LBB51_49>:
    14a0: 33 35 70 01  	snez	a0, s7
    14a4: b3 05 4b 41  	sub	a1, s6, s4
    14a8: b3 b5 85 00  	sltu	a1, a1, s0
    14ac: 33 75 b5 00  	and	a0, a0, a1
    14b0: 63 00 05 00  	beqz	a0, 0x14b0 <.LBB51_49+0x10>
    14b4: b3 0a 40 41  	neg	s5, s4

000014b8 <.LBB51_51>:
    14b8: 13 0a 1b 00  	addi	s4, s6, 1
    14bc: 13 05 00 02  	li	a0, 32
    14c0: 93 05 09 00  	mv	a1, s2
    14c4: 13 06 0b 00  	mv	a2, s6
    14c8: 93 86 04 00  	mv	a3, s1
    14cc: e7 80 09 00  	jalr	s3
    14d0: 33 85 4a 01  	add	a0, s5, s4
    14d4: 13 0b 0a 00  	mv	s6, s4
    14d8: 63 60 85 00  	bltu	a0, s0, 0x14d8 <.LBB51_51+0x20>
    14dc: 6f 00 00 00  	j	0x14dc <.LBB51_51+0x24>

000014e0 <.LBB51_52>:
    14e0: 13 0a 0b 00  	mv	s4, s6

000014e4 <.LBB51_53>:
    14e4: 13 05 0a 00  	mv	a0, s4
    14e8: 83 20 c1 04  	lw	ra, 76(sp)
    14ec: 03 24 81 04  	lw	s0, 72(sp)
    14f0: 83 24 41 04  	lw	s1, 68(sp)
    14f4: 03 29 01 04  	lw	s2, 64(sp)
    14f8: 83 29 c1 03  	lw	s3, 60(sp)
    14fc: 03 2a 81 03  	lw	s4, 56(sp)
    1500: 83 2a 41 03  	lw	s5, 52(sp)
    1504: 03 2b 01 03  	lw	s6, 48(sp)
    1508: 83 2b c1 02  	lw	s7, 44(sp)
    150c: 03 2c 81 02  	lw	s8, 40(sp)
    1510: 83 2c 41 02  	lw	s9, 36(sp)
    1514: 03 2d 01 02  	lw	s10, 32(sp)
    1518: 13 01 01 05  	addi	sp, sp, 80
    151c: 67 80 00 00  	ret

00001520 <_ftoa>:
    1520: 13 01 01 fb  	addi	sp, sp, -80
    1524: 23 26 11 04  	sw	ra, 76(sp)
    1528: 23 24 81 04  	sw	s0, 72(sp)
    152c: 23 22 91 04  	sw	s1, 68(sp)
    1530: 23 20 21 05  	sw	s2, 64(sp)
    1534: 23 2e 31 03  	sw	s3, 60(sp)
    1538: 23 2c 41 03  	sw	s4, 56(sp)
    153c: 23 2a 51 03  	sw	s5, 52(sp)
    1540: 23 28 61 03  	sw	s6, 48(sp)
    1544: 23 26 71 03  	sw	s7, 44(sp)
    1548: 23 24 81 03  	sw	s8, 40(sp)
    154c: 23 22 91 03  	sw	s9, 36(sp)

00001550 <.Lpcrel_hi18>:
    1550: 97 08 00 00  	auipc	a7, 0
    1554: 87 b7 08 00  	fld	fa5, 0(a7)
    1558: d3 88 a7 a2  	fle.d	a7, fa5, fa0
    155c: 93 0a 08 00  	mv	s5, a6
    1560: 13 84 07 00  	mv	s0, a5
    1564: 93 84 06 00  	mv	s1, a3
    1568: 13 0a 06 00  	mv	s4, a2
    156c: 13 89 05 00  	mv	s2, a1
    1570: 93 09 05 00  	mv	s3, a0
    1574: 63 90 08 00  	bnez	a7, 0x1574 <.Lpcrel_hi18+0x24>
    1578: 13 f5 3a 00  	andi	a0, s5, 3
    157c: 33 35 a0 00  	snez	a0, a0
    1580: 93 35 54 00  	sltiu	a1, s0, 5
    1584: 33 e5 a5 00  	or	a0, a1, a0
    1588: 13 fb 2a 00  	andi	s6, s5, 2
    158c: 93 0a 0a 00  	mv	s5, s4
    1590: 63 10 05 00  	bnez	a0, 0x1590 <.Lpcrel_hi18+0x40>
    1594: 93 0b c4 ff  	addi	s7, s0, -4
    1598: 13 06 0a 00  	mv	a2, s4

0000159c <.LBB52_3>:
    159c: 93 0a 16 00  	addi	s5, a2, 1
    15a0: 13 05 00 02  	li	a0, 32
    15a4: 93 05 09 00  	mv	a1, s2
    15a8: 93 86 04 00  	mv	a3, s1
    15ac: e7 80 09 00  	jalr	s3
    15b0: 93 8b fb ff  	addi	s7, s7, -1
    15b4: 13 86 0a 00  	mv	a2, s5
    15b8: 63 90 0b 00  	bnez	s7, 0x15b8 <.LBB52_3+0x1c>

000015bc <.LBB52_4>:
    15bc: 33 3c 60 01  	snez	s8, s6
    15c0: 13 8b 1a 00  	addi	s6, s5, 1
    15c4: 13 05 d0 02  	li	a0, 45
    15c8: 93 05 09 00  	mv	a1, s2
    15cc: 13 86 0a 00  	mv	a2, s5
    15d0: 93 86 04 00  	mv	a3, s1
    15d4: e7 80 09 00  	jalr	s3
    15d8: 93 8b 2a 00  	addi	s7, s5, 2
    15dc: 13 05 90 06  	li	a0, 105
    15e0: 93 05 09 00  	mv	a1, s2
    15e4: 13 06 0b 00  	mv	a2, s6
    15e8: 93 86 04 00  	mv	a3, s1
    15ec: e7 80 09 00  	jalr	s3
    15f0: 13 8b 3a 00  	addi	s6, s5, 3
    15f4: 13 05 e0 06  	li	a0, 110
    15f8: 93 05 09 00  	mv	a1, s2
    15fc: 13 86 0b 00  	mv	a2, s7
    1600: 93 86 04 00  	mv	a3, s1
    1604: e7 80 09 00  	jalr	s3
    1608: 93 8a 4a 00  	addi	s5, s5, 4
    160c: 13 05 60 06  	li	a0, 102
    1610: 93 05 09 00  	mv	a1, s2
    1614: 13 06 0b 00  	mv	a2, s6
    1618: 93 86 04 00  	mv	a3, s1
    161c: e7 80 09 00  	jalr	s3
    1620: 33 85 4a 41  	sub	a0, s5, s4
    1624: 33 35 85 00  	sltu	a0, a0, s0
    1628: 33 75 ac 00  	and	a0, s8, a0
    162c: 63 00 05 00  	beqz	a0, 0x162c <.LBB52_4+0x70>
    1630: 33 0b 40 41  	neg	s6, s4

00001634 <.LBB52_6>:
    1634: 13 8a 1a 00  	addi	s4, s5, 1
    1638: 13 05 00 02  	li	a0, 32
    163c: 93 05 09 00  	mv	a1, s2
    1640: 13 86 0a 00  	mv	a2, s5
    1644: 93 86 04 00  	mv	a3, s1
    1648: e7 80 09 00  	jalr	s3
    164c: 33 05 4b 01  	add	a0, s6, s4
    1650: 93 0a 0a 00  	mv	s5, s4
    1654: 63 60 85 00  	bltu	a0, s0, 0x1654 <.LBB52_6+0x20>
    1658: 6f 00 00 00  	j	0x1658 <.LBB52_6+0x24>

0000165c <.Lpcrel_hi19>:
    165c: 17 05 00 00  	auipc	a0, 0
    1660: 87 37 05 00  	fld	fa5, 0(a0)
    1664: 53 05 f5 a2  	fle.d	a0, fa0, fa5
    1668: 63 10 05 00  	bnez	a0, 0x1668 <.Lpcrel_hi19+0xc>
    166c: 13 f5 4a 00  	andi	a0, s5, 4
    1670: 93 5b 25 00  	srli	s7, a0, 2
    1674: 63 00 05 00  	beqz	a0, 0x1674 <.Lpcrel_hi19+0x18>

00001678 <.Lpcrel_hi21>:
    1678: 17 05 00 00  	auipc	a0, 0
    167c: 13 0c 05 00  	mv	s8, a0
    1680: 6f 00 00 00  	j	0x1680 <.Lpcrel_hi21+0x8>

00001684 <.LBB52_10>:
    1684: 13 8a 0a 00  	mv	s4, s5
    1688: 6f 00 00 00  	j	0x1688 <.LBB52_10+0x4>

0000168c <.Lpcrel_hi22>:
    168c: 17 05 00 00  	auipc	a0, 0
    1690: 87 37 05 00  	fld	fa5, 0(a0)

00001694 <.Lpcrel_hi23>:
    1694: 17 05 00 00  	auipc	a0, 0
    1698: 07 37 05 00  	fld	fa4, 0(a0)
    169c: 53 95 a7 a2  	flt.d	a0, fa5, fa0
    16a0: d3 15 e5 a2  	flt.d	a1, fa0, fa4
    16a4: 33 65 b5 00  	or	a0, a0, a1
    16a8: 63 00 05 00  	beqz	a0, 0x16a8 <.Lpcrel_hi23+0x14>
    16ac: 13 85 09 00  	mv	a0, s3
    16b0: 93 05 09 00  	mv	a1, s2
    16b4: 13 06 0a 00  	mv	a2, s4
    16b8: 93 86 04 00  	mv	a3, s1
    16bc: 93 07 04 00  	mv	a5, s0
    16c0: 13 88 0a 00  	mv	a6, s5
    16c4: 83 20 c1 04  	lw	ra, 76(sp)
    16c8: 03 24 81 04  	lw	s0, 72(sp)
    16cc: 83 24 41 04  	lw	s1, 68(sp)
    16d0: 03 29 01 04  	lw	s2, 64(sp)
    16d4: 83 29 c1 03  	lw	s3, 60(sp)
    16d8: 03 2a 81 03  	lw	s4, 56(sp)
    16dc: 83 2a 41 03  	lw	s5, 52(sp)
    16e0: 03 2b 01 03  	lw	s6, 48(sp)
    16e4: 83 2b c1 02  	lw	s7, 44(sp)
    16e8: 03 2c 81 02  	lw	s8, 40(sp)
    16ec: 83 2c 41 02  	lw	s9, 36(sp)
    16f0: 13 01 01 05  	addi	sp, sp, 80
    16f4: 17 03 00 00  	auipc	t1, 0
    16f8: 67 00 03 00  	jr	t1

000016fc <.Lpcrel_hi20>:
    16fc: 17 05 00 00  	auipc	a0, 0
    1700: 13 0c 05 00  	mv	s8, a0

00001704 <.LBB52_14>:
    1704: 93 8b 3b 00  	addi	s7, s7, 3
    1708: 13 f5 3a 00  	andi	a0, s5, 3
    170c: 13 35 15 00  	seqz	a0, a0
    1710: b3 b5 8b 00  	sltu	a1, s7, s0
    1714: 33 75 b5 00  	and	a0, a0, a1
    1718: 13 0b 0a 00  	mv	s6, s4
    171c: 63 00 05 00  	beqz	a0, 0x171c <.LBB52_14+0x18>
    1720: b3 0c 74 41  	sub	s9, s0, s7
    1724: 13 06 0a 00  	mv	a2, s4

00001728 <.LBB52_16>:
    1728: 13 0b 16 00  	addi	s6, a2, 1
    172c: 13 05 00 02  	li	a0, 32
    1730: 93 05 09 00  	mv	a1, s2
    1734: 93 86 04 00  	mv	a3, s1
    1738: e7 80 09 00  	jalr	s3
    173c: 93 8c fc ff  	addi	s9, s9, -1
    1740: 13 06 0b 00  	mv	a2, s6
    1744: 63 90 0c 00  	bnez	s9, 0x1744 <.LBB52_16+0x1c>

00001748 <.LBB52_17>:
    1748: 93 fa 2a 00  	andi	s5, s5, 2
    174c: 13 0c fc ff  	addi	s8, s8, -1

00001750 <.LBB52_18>:
    1750: 33 05 7c 01  	add	a0, s8, s7
    1754: 03 45 05 00  	lbu	a0, 0(a0)
    1758: 13 06 0b 00  	mv	a2, s6
    175c: 93 8c fb ff  	addi	s9, s7, -1
    1760: 13 0b 1b 00  	addi	s6, s6, 1
    1764: 93 05 09 00  	mv	a1, s2
    1768: 93 86 04 00  	mv	a3, s1
    176c: e7 80 09 00  	jalr	s3
    1770: 93 8b 0c 00  	mv	s7, s9
    1774: 63 90 0c 00  	bnez	s9, 0x1774 <.LBB52_18+0x24>
    1778: 33 35 50 01  	snez	a0, s5
    177c: b3 05 4b 41  	sub	a1, s6, s4
    1780: b3 b5 85 00  	sltu	a1, a1, s0
    1784: 33 75 b5 00  	and	a0, a0, a1
    1788: 63 00 05 00  	beqz	a0, 0x1788 <.LBB52_18+0x38>
    178c: b3 0a 40 41  	neg	s5, s4

00001790 <.LBB52_21>:
    1790: 13 0a 1b 00  	addi	s4, s6, 1
    1794: 13 05 00 02  	li	a0, 32
    1798: 93 05 09 00  	mv	a1, s2
    179c: 13 06 0b 00  	mv	a2, s6
    17a0: 93 86 04 00  	mv	a3, s1
    17a4: e7 80 09 00  	jalr	s3
    17a8: 33 85 4a 01  	add	a0, s5, s4
    17ac: 13 0b 0a 00  	mv	s6, s4
    17b0: 63 60 85 00  	bltu	a0, s0, 0x17b0 <.LBB52_21+0x20>
    17b4: 6f 00 00 00  	j	0x17b4 <.LBB52_21+0x24>

000017b8 <.LBB52_22>:
    17b8: d3 07 00 d2  	fcvt.d.w	fa5, zero
    17bc: 53 15 f5 a2  	flt.d	a0, fa0, fa5
    17c0: 63 10 05 00  	bnez	a0, 0x17c0 <.LBB52_22+0x8>
    17c4: d3 07 a5 22  	fmv.d	fa5, fa0
    17c8: 13 f5 0a 40  	andi	a0, s5, 1024
    17cc: 93 06 07 00  	mv	a3, a4
    17d0: 63 00 05 00  	beqz	a0, 0x17d0 <.LBB52_22+0x18>
    17d4: 6f 00 00 00  	j	0x17d4 <.LBB52_22+0x1c>

000017d8 <.LBB52_24>:
    17d8: d3 17 a5 22  	fneg.d	fa5, fa0
    17dc: 13 f5 0a 40  	andi	a0, s5, 1024
    17e0: 93 06 07 00  	mv	a3, a4
    17e4: 63 10 05 00  	bnez	a0, 0x17e4 <.LBB52_24+0xc>

000017e8 <.LBB52_25>:
    17e8: 93 06 60 00  	li	a3, 6

000017ec <.LBB52_26>:
    17ec: 13 05 a0 00  	li	a0, 10
    17f0: 63 e0 a6 00  	bltu	a3, a0, 0x17f0 <.LBB52_26+0x4>
    17f4: 13 85 66 ff  	addi	a0, a3, -10
    17f8: 93 05 f0 01  	li	a1, 31
    17fc: 63 60 b5 00  	bltu	a0, a1, 0x17fc <.LBB52_26+0x10>
    1800: 13 05 f0 01  	li	a0, 31

00001804 <.LBB52_29>:
    1804: 93 05 00 00  	li	a1, 0
    1808: 13 05 15 00  	addi	a0, a0, 1
    180c: 13 06 41 00  	addi	a2, sp, 4
    1810: 93 06 00 03  	li	a3, 48

00001814 <.LBB52_30>:
    1814: b3 07 b6 00  	add	a5, a2, a1
    1818: 93 85 15 00  	addi	a1, a1, 1
    181c: 23 80 d7 00  	sb	a3, 0(a5)
    1820: 63 10 b5 00  	bne	a0, a1, 0x1820 <.LBB52_30+0xc>
    1824: 13 86 f5 ff  	addi	a2, a1, -1
    1828: 93 37 f6 01  	sltiu	a5, a2, 31
    182c: b3 06 b7 40  	sub	a3, a4, a1
    1830: 6f 00 00 00  	j	0x1830 <.LBB52_30+0x1c>

00001834 <.LBB52_32>:
    1834: 13 05 00 00  	li	a0, 0
    1838: 93 07 10 00  	li	a5, 1

0000183c <.LBB52_33>:
    183c: 93 95 36 00  	slli	a1, a3, 3

00001840 <.Lpcrel_hi24>:
    1840: 17 06 00 00  	auipc	a2, 0
    1844: 13 06 06 00  	mv	a2, a2
    1848: b3 05 b6 00  	add	a1, a2, a1
    184c: 87 b6 05 00  	fld	fa3, 0(a1)
    1850: d3 95 07 c2  	fcvt.w.d	a1, fa5, rtz
    1854: 53 87 05 d2  	fcvt.d.w	fa4, a1
    1858: 53 f7 e7 0a  	fsub.d	fa4, fa5, fa4
    185c: 53 f6 e6 12  	fmul.d	fa2, fa3, fa4

00001860 <.Lpcrel_hi25>:
    1860: 17 06 00 00  	auipc	a2, 0
    1864: 07 37 06 00  	fld	fa4, 0(a2)
    1868: 53 17 16 c2  	fcvt.wu.d	a4, fa2, rtz
    186c: d3 05 17 d2  	fcvt.d.wu	fa1, a4
    1870: 53 76 b6 0a  	fsub.d	fa2, fa2, fa1
    1874: 53 06 e6 a2  	fle.d	a2, fa2, fa4
    1878: 63 10 06 00  	bnez	a2, 0x1878 <.Lpcrel_hi25+0x18>
    187c: 13 07 17 00  	addi	a4, a4, 1
    1880: 53 06 17 d2  	fcvt.d.wu	fa2, a4
    1884: 53 16 d6 a2  	flt.d	a2, fa2, fa3
    1888: 63 10 06 00  	bnez	a2, 0x1888 <.Lpcrel_hi25+0x28>
    188c: 13 07 00 00  	li	a4, 0
    1890: 93 85 15 00  	addi	a1, a1, 1
    1894: 6f 00 00 00  	j	0x1894 <.Lpcrel_hi25+0x34>

00001898 <.LBB52_36>:
    1898: 53 16 e6 a2  	flt.d	a2, fa2, fa4
    189c: 63 10 06 00  	bnez	a2, 0x189c <.LBB52_36+0x4>
    18a0: 13 36 17 00  	seqz	a2, a4
    18a4: 33 66 e6 00  	or	a2, a2, a4
    18a8: 13 76 16 00  	andi	a2, a2, 1
    18ac: 33 07 e6 00  	add	a4, a2, a4

000018b0 <.LBB52_38>:
    18b0: 63 80 06 00  	beqz	a3, 0x18b0 <.LBB52_38>
    18b4: 13 06 00 02  	li	a2, 32
    18b8: 63 80 07 00  	beqz	a5, 0x18b8 <.LBB52_38+0x8>
    18bc: b3 06 d0 40  	neg	a3, a3
    18c0: b7 d7 cc cc  	lui	a5, 838861
    18c4: 93 87 d7 cc  	addi	a5, a5, -819
    18c8: 13 08 a0 00  	li	a6, 10
    18cc: 93 08 41 00  	addi	a7, sp, 4

000018d0 <.LBB52_41>:
    18d0: b3 32 f7 02  	mulhu	t0, a4, a5
    18d4: 93 d2 32 00  	srli	t0, t0, 3
    18d8: 33 83 02 03  	mul	t1, t0, a6
    18dc: 33 03 67 40  	sub	t1, a4, t1
    18e0: 13 63 03 03  	ori	t1, t1, 48
    18e4: b3 83 a8 00  	add	t2, a7, a0
    18e8: 13 3e f5 01  	sltiu	t3, a0, 31
    18ec: 13 05 15 00  	addi	a0, a0, 1
    18f0: 23 80 63 00  	sb	t1, 0(t2)
    18f4: 13 37 a7 00  	sltiu	a4, a4, 10
    18f8: 13 47 17 00  	xori	a4, a4, 1
    18fc: 33 73 ee 00  	and	t1, t3, a4
    1900: 93 86 16 00  	addi	a3, a3, 1
    1904: 13 87 02 00  	mv	a4, t0
    1908: 63 10 03 00  	bnez	t1, 0x1908 <.LBB52_41+0x38>
    190c: 13 07 f5 ff  	addi	a4, a0, -1
    1910: 13 37 f7 01  	sltiu	a4, a4, 31
    1914: 93 47 17 00  	xori	a5, a4, 1
    1918: 13 b7 16 00  	seqz	a4, a3
    191c: 33 e7 e7 00  	or	a4, a5, a4
    1920: 63 00 07 00  	beqz	a4, 0x1920 <.LBB52_41+0x50>
    1924: 93 06 05 00  	mv	a3, a0
    1928: 6f 00 00 00  	j	0x1928 <.LBB52_41+0x58>

0000192c <.LBB52_44>:
    192c: d3 86 05 d2  	fcvt.d.w	fa3, a1
    1930: d3 f7 d7 0a  	fsub.d	fa5, fa5, fa3
    1934: 53 06 f7 a2  	fle.d	a2, fa4, fa5
    1938: 33 76 b6 00  	and	a2, a2, a1
    193c: b3 85 c5 00  	add	a1, a1, a2
    1940: 93 06 f0 01  	li	a3, 31
    1944: 13 06 00 02  	li	a2, 32
    1948: 63 f0 a6 00  	bgeu	a3, a0, 0x1948 <.LBB52_44+0x1c>
    194c: 6f 00 00 00  	j	0x194c <.LBB52_44+0x20>

00001950 <.LBB52_45>:
    1950: 13 c7 f6 ff  	not	a4, a3
    1954: 13 08 41 00  	addi	a6, sp, 4
    1958: 93 08 00 03  	li	a7, 48

0000195c <.LBB52_46>:
    195c: 93 06 15 00  	addi	a3, a0, 1
    1960: b3 07 a8 00  	add	a5, a6, a0
    1964: 23 80 17 01  	sb	a7, 0(a5)
    1968: 13 35 f5 01  	sltiu	a0, a0, 31
    196c: 93 47 15 00  	xori	a5, a0, 1
    1970: 13 35 17 00  	seqz	a0, a4
    1974: b3 e2 a7 00  	or	t0, a5, a0
    1978: 13 07 f7 ff  	addi	a4, a4, -1
    197c: 13 85 06 00  	mv	a0, a3
    1980: 63 80 02 00  	beqz	t0, 0x1980 <.LBB52_46+0x24>

00001984 <.LBB52_47>:
    1984: 63 90 07 00  	bnez	a5, 0x1984 <.LBB52_47>
    1988: 13 85 16 00  	addi	a0, a3, 1
    198c: 13 06 41 00  	addi	a2, sp, 4
    1990: 33 06 d6 00  	add	a2, a2, a3
    1994: 93 06 e0 02  	li	a3, 46
    1998: 23 00 d6 00  	sb	a3, 0(a2)
    199c: 93 06 f0 01  	li	a3, 31
    19a0: 13 06 00 02  	li	a2, 32
    19a4: 63 e0 a6 00  	bltu	a3, a0, 0x19a4 <.LBB52_47+0x20>

000019a8 <.LBB52_49>:
    19a8: 37 66 66 66  	lui	a2, 419430
    19ac: 93 06 76 66  	addi	a3, a2, 1639
    19b0: 13 07 a0 00  	li	a4, 10
    19b4: 93 07 41 00  	addi	a5, sp, 4

000019b8 <.LBB52_50>:
    19b8: 33 96 d5 02  	mulh	a2, a1, a3
    19bc: 13 58 f6 01  	srli	a6, a2, 31
    19c0: 13 56 26 40  	srai	a2, a2, 2
    19c4: 33 08 06 01  	add	a6, a2, a6
    19c8: 33 06 e8 02  	mul	a2, a6, a4
    19cc: 33 86 c5 40  	sub	a2, a1, a2
    19d0: 93 08 06 03  	addi	a7, a2, 48
    19d4: 13 06 15 00  	addi	a2, a0, 1
    19d8: b3 82 a7 00  	add	t0, a5, a0
    19dc: 93 85 65 ff  	addi	a1, a1, -10
    19e0: 93 b5 d5 fe  	sltiu	a1, a1, -19
    19e4: 13 35 f5 01  	sltiu	a0, a0, 31
    19e8: 33 73 b5 00  	and	t1, a0, a1
    19ec: 23 80 12 01  	sb	a7, 0(t0)
    19f0: 13 05 06 00  	mv	a0, a2
    19f4: 93 05 08 00  	mv	a1, a6
    19f8: 63 10 03 00  	bnez	t1, 0x19f8 <.LBB52_50+0x40>

000019fc <.LBB52_51>:
    19fc: 13 f5 3a 00  	andi	a0, s5, 3
    1a00: 93 05 10 00  	li	a1, 1
    1a04: 63 10 b5 00  	bne	a0, a1, 0x1a04 <.LBB52_51+0x8>
    1a08: 63 00 04 00  	beqz	s0, 0x1a08 <.LBB52_51+0xc>
    1a0c: d3 07 00 d2  	fcvt.d.w	fa5, zero
    1a10: d3 15 f5 a2  	flt.d	a1, fa0, fa5
    1a14: 93 f6 ca 00  	andi	a3, s5, 12
    1a18: b3 36 d0 00  	snez	a3, a3
    1a1c: b3 e5 d5 00  	or	a1, a1, a3
    1a20: 33 04 b4 40  	sub	s0, s0, a1

00001a24 <.LBB52_54>:
    1a24: 93 06 00 02  	li	a3, 32
    1a28: 93 05 04 00  	mv	a1, s0
    1a2c: 63 60 d4 00  	bltu	s0, a3, 0x1a2c <.LBB52_54+0x8>
    1a30: 93 05 00 02  	li	a1, 32

00001a34 <.LBB52_56>:
    1a34: 63 70 b6 00  	bgeu	a2, a1, 0x1a34 <.LBB52_56>
    1a38: 93 06 41 00  	addi	a3, sp, 4
    1a3c: b3 86 c6 00  	add	a3, a3, a2
    1a40: 33 86 c5 40  	sub	a2, a1, a2
    1a44: 13 07 00 03  	li	a4, 48

00001a48 <.LBB52_58>:
    1a48: 23 80 e6 00  	sb	a4, 0(a3)
    1a4c: 13 06 f6 ff  	addi	a2, a2, -1
    1a50: 93 86 16 00  	addi	a3, a3, 1
    1a54: 63 10 06 00  	bnez	a2, 0x1a54 <.LBB52_58+0xc>
    1a58: 13 86 05 00  	mv	a2, a1

00001a5c <.LBB52_60>:
    1a5c: 93 05 f0 01  	li	a1, 31
    1a60: 93 0b 00 02  	li	s7, 32
    1a64: 63 e0 c5 00  	bltu	a1, a2, 0x1a64 <.LBB52_60+0x8>
    1a68: d3 07 00 d2  	fcvt.d.w	fa5, zero
    1a6c: d3 16 f5 a2  	flt.d	a3, fa0, fa5
    1a70: 93 05 d0 02  	li	a1, 45
    1a74: 63 90 06 00  	bnez	a3, 0x1a74 <.LBB52_60+0x18>
    1a78: 93 f6 4a 00  	andi	a3, s5, 4
    1a7c: 93 05 b0 02  	li	a1, 43
    1a80: 63 90 06 00  	bnez	a3, 0x1a80 <.LBB52_60+0x24>
    1a84: 93 f6 8a 00  	andi	a3, s5, 8
    1a88: 93 05 00 02  	li	a1, 32
    1a8c: 63 90 06 00  	bnez	a3, 0x1a8c <.LBB52_60+0x30>
    1a90: 93 0b 06 00  	mv	s7, a2
    1a94: 6f 00 00 00  	j	0x1a94 <.LBB52_60+0x38>

00001a98 <.LBB52_65>:
    1a98: 93 0b 16 00  	addi	s7, a2, 1
    1a9c: 93 06 41 00  	addi	a3, sp, 4
    1aa0: 33 86 c6 00  	add	a2, a3, a2
    1aa4: 23 00 b6 00  	sb	a1, 0(a2)

00001aa8 <.LBB52_66>:
    1aa8: 13 35 15 00  	seqz	a0, a0
    1aac: b3 b5 8b 00  	sltu	a1, s7, s0
    1ab0: 33 75 b5 00  	and	a0, a0, a1
    1ab4: 13 0b 0a 00  	mv	s6, s4
    1ab8: 63 00 05 00  	beqz	a0, 0x1ab8 <.LBB52_66+0x10>
    1abc: 33 0c 74 41  	sub	s8, s0, s7
    1ac0: 13 06 0a 00  	mv	a2, s4

00001ac4 <.LBB52_68>:
    1ac4: 13 0b 16 00  	addi	s6, a2, 1
    1ac8: 13 05 00 02  	li	a0, 32
    1acc: 93 05 09 00  	mv	a1, s2
    1ad0: 93 86 04 00  	mv	a3, s1
    1ad4: e7 80 09 00  	jalr	s3
    1ad8: 13 0c fc ff  	addi	s8, s8, -1
    1adc: 13 06 0b 00  	mv	a2, s6
    1ae0: 63 10 0c 00  	bnez	s8, 0x1ae0 <.LBB52_68+0x1c>

00001ae4 <.LBB52_69>:
    1ae4: 93 fa 2a 00  	andi	s5, s5, 2
    1ae8: 13 0c 31 00  	addi	s8, sp, 3

00001aec <.LBB52_70>:
    1aec: 33 05 7c 01  	add	a0, s8, s7
    1af0: 03 45 05 00  	lbu	a0, 0(a0)
    1af4: 13 06 0b 00  	mv	a2, s6
    1af8: 93 8c fb ff  	addi	s9, s7, -1
    1afc: 13 0b 1b 00  	addi	s6, s6, 1
    1b00: 93 05 09 00  	mv	a1, s2
    1b04: 93 86 04 00  	mv	a3, s1
    1b08: e7 80 09 00  	jalr	s3
    1b0c: 93 8b 0c 00  	mv	s7, s9
    1b10: 63 90 0c 00  	bnez	s9, 0x1b10 <.LBB52_70+0x24>
    1b14: 33 35 50 01  	snez	a0, s5
    1b18: b3 05 4b 41  	sub	a1, s6, s4
    1b1c: b3 b5 85 00  	sltu	a1, a1, s0
    1b20: 33 75 b5 00  	and	a0, a0, a1
    1b24: 63 00 05 00  	beqz	a0, 0x1b24 <.LBB52_70+0x38>
    1b28: b3 0a 40 41  	neg	s5, s4

00001b2c <.LBB52_73>:
    1b2c: 13 0a 1b 00  	addi	s4, s6, 1
    1b30: 13 05 00 02  	li	a0, 32
    1b34: 93 05 09 00  	mv	a1, s2
    1b38: 13 06 0b 00  	mv	a2, s6
    1b3c: 93 86 04 00  	mv	a3, s1
    1b40: e7 80 09 00  	jalr	s3
    1b44: 33 85 4a 01  	add	a0, s5, s4
    1b48: 13 0b 0a 00  	mv	s6, s4
    1b4c: 63 60 85 00  	bltu	a0, s0, 0x1b4c <.LBB52_73+0x20>
    1b50: 6f 00 00 00  	j	0x1b50 <.LBB52_73+0x24>

00001b54 <.LBB52_74>:
    1b54: 13 0a 0b 00  	mv	s4, s6

00001b58 <.LBB52_75>:
    1b58: 13 05 0a 00  	mv	a0, s4
    1b5c: 83 20 c1 04  	lw	ra, 76(sp)
    1b60: 03 24 81 04  	lw	s0, 72(sp)
    1b64: 83 24 41 04  	lw	s1, 68(sp)
    1b68: 03 29 01 04  	lw	s2, 64(sp)
    1b6c: 83 29 c1 03  	lw	s3, 60(sp)
    1b70: 03 2a 81 03  	lw	s4, 56(sp)
    1b74: 83 2a 41 03  	lw	s5, 52(sp)
    1b78: 03 2b 01 03  	lw	s6, 48(sp)
    1b7c: 83 2b c1 02  	lw	s7, 44(sp)
    1b80: 03 2c 81 02  	lw	s8, 40(sp)
    1b84: 83 2c 41 02  	lw	s9, 36(sp)
    1b88: 13 01 01 05  	addi	sp, sp, 80
    1b8c: 67 80 00 00  	ret

00001b90 <_etoa>:
    1b90: 13 01 01 f9  	addi	sp, sp, -112
    1b94: 23 26 11 06  	sw	ra, 108(sp)
    1b98: 23 24 81 06  	sw	s0, 104(sp)
    1b9c: 23 22 91 06  	sw	s1, 100(sp)
    1ba0: 23 20 21 07  	sw	s2, 96(sp)
    1ba4: 23 2e 31 05  	sw	s3, 92(sp)
    1ba8: 23 2c 41 05  	sw	s4, 88(sp)
    1bac: 23 2a 51 05  	sw	s5, 84(sp)
    1bb0: 23 28 61 05  	sw	s6, 80(sp)
    1bb4: 23 26 71 05  	sw	s7, 76(sp)
    1bb8: 23 24 81 05  	sw	s8, 72(sp)
    1bbc: 23 22 91 05  	sw	s9, 68(sp)

00001bc0 <.Lpcrel_hi26>:
    1bc0: 97 08 00 00  	auipc	a7, 0
    1bc4: 87 b7 08 00  	fld	fa5, 0(a7)

00001bc8 <.Lpcrel_hi27>:
    1bc8: 97 08 00 00  	auipc	a7, 0
    1bcc: 07 b7 08 00  	fld	fa4, 0(a7)
    1bd0: d3 98 a7 a2  	flt.d	a7, fa5, fa0
    1bd4: d3 12 e5 a2  	flt.d	t0, fa0, fa4
    1bd8: b3 e8 58 00  	or	a7, a7, t0
    1bdc: 93 0a 08 00  	mv	s5, a6
    1be0: 13 84 07 00  	mv	s0, a5
    1be4: 93 07 07 00  	mv	a5, a4
    1be8: 93 84 06 00  	mv	s1, a3
    1bec: 13 0a 06 00  	mv	s4, a2
    1bf0: 13 89 05 00  	mv	s2, a1
    1bf4: 93 09 05 00  	mv	s3, a0
    1bf8: 63 80 08 00  	beqz	a7, 0x1bf8 <.Lpcrel_hi27+0x30>
    1bfc: 13 85 09 00  	mv	a0, s3
    1c00: 93 05 09 00  	mv	a1, s2
    1c04: 13 06 0a 00  	mv	a2, s4
    1c08: 93 86 04 00  	mv	a3, s1
    1c0c: 13 87 07 00  	mv	a4, a5
    1c10: 93 07 04 00  	mv	a5, s0
    1c14: 13 88 0a 00  	mv	a6, s5
    1c18: 83 20 c1 06  	lw	ra, 108(sp)
    1c1c: 03 24 81 06  	lw	s0, 104(sp)
    1c20: 83 24 41 06  	lw	s1, 100(sp)
    1c24: 03 29 01 06  	lw	s2, 96(sp)
    1c28: 83 29 c1 05  	lw	s3, 92(sp)
    1c2c: 03 2a 81 05  	lw	s4, 88(sp)
    1c30: 83 2a 41 05  	lw	s5, 84(sp)
    1c34: 03 2b 01 05  	lw	s6, 80(sp)
    1c38: 83 2b c1 04  	lw	s7, 76(sp)
    1c3c: 03 2c 81 04  	lw	s8, 72(sp)
    1c40: 83 2c 41 04  	lw	s9, 68(sp)
    1c44: 13 01 01 07  	addi	sp, sp, 112
    1c48: 17 03 00 00  	auipc	t1, 0
    1c4c: 67 00 03 00  	jr	t1

00001c50 <.LBB53_2>:
    1c50: d3 07 00 d2  	fcvt.d.w	fa5, zero
    1c54: 53 15 f5 a2  	flt.d	a0, fa0, fa5
    1c58: 63 10 05 00  	bnez	a0, 0x1c58 <.LBB53_2+0x8>
    1c5c: d3 07 a5 22  	fmv.d	fa5, fa0
    1c60: 13 f5 0a 40  	andi	a0, s5, 1024
    1c64: 13 87 07 00  	mv	a4, a5
    1c68: 63 00 05 00  	beqz	a0, 0x1c68 <.LBB53_2+0x18>
    1c6c: 6f 00 00 00  	j	0x1c6c <.LBB53_2+0x1c>

00001c70 <.LBB53_4>:
    1c70: d3 17 a5 22  	fneg.d	fa5, fa0
    1c74: 13 f5 0a 40  	andi	a0, s5, 1024
    1c78: 13 87 07 00  	mv	a4, a5
    1c7c: 63 10 05 00  	bnez	a0, 0x1c7c <.LBB53_4+0xc>

00001c80 <.LBB53_5>:
    1c80: 13 07 60 00  	li	a4, 6

00001c84 <.LBB53_6>:
    1c84: 27 3c f1 00  	fsd	fa5, 24(sp)
    1c88: 83 25 c1 01  	lw	a1, 28(sp)
    1c8c: 03 26 81 01  	lw	a2, 24(sp)
    1c90: 93 96 15 00  	slli	a3, a1, 1
    1c94: 93 95 c5 00  	slli	a1, a1, 12
    1c98: 93 d5 c5 00  	srli	a1, a1, 12
    1c9c: 23 28 c1 00  	sw	a2, 16(sp)
    1ca0: 37 06 f0 3f  	lui	a2, 261888
    1ca4: b3 e5 c5 00  	or	a1, a1, a2
    1ca8: 23 2a b1 00  	sw	a1, 20(sp)
    1cac: 07 37 01 01  	fld	fa4, 16(sp)

00001cb0 <.Lpcrel_hi28>:
    1cb0: 97 05 00 00  	auipc	a1, 0
    1cb4: 87 b6 05 00  	fld	fa3, 0(a1)

00001cb8 <.Lpcrel_hi29>:
    1cb8: 97 05 00 00  	auipc	a1, 0
    1cbc: 07 b6 05 00  	fld	fa2, 0(a1)
    1cc0: 93 d6 56 01  	srli	a3, a3, 21
    1cc4: 93 85 16 c0  	addi	a1, a3, -1023
    1cc8: d3 85 05 d2  	fcvt.d.w	fa1, a1
    1ccc: 43 77 c7 6a  	fmadd.d	fa4, fa4, fa2, fa3

00001cd0 <.Lpcrel_hi30>:
    1cd0: 97 05 00 00  	auipc	a1, 0
    1cd4: 87 b6 05 00  	fld	fa3, 0(a1)

00001cd8 <.Lpcrel_hi31>:
    1cd8: 97 05 00 00  	auipc	a1, 0
    1cdc: 07 b6 05 00  	fld	fa2, 0(a1)

00001ce0 <.Lpcrel_hi32>:
    1ce0: 97 05 00 00  	auipc	a1, 0
    1ce4: 07 b0 05 00  	fld	ft0, 0(a1)
    1ce8: 43 f7 d5 72  	fmadd.d	fa4, fa1, fa3, fa4
    1cec: d3 15 07 c2  	fcvt.w.d	a1, fa4, rtz
    1cf0: 53 87 05 d2  	fcvt.d.w	fa4, a1
    1cf4: c3 76 07 62  	fmadd.d	fa3, fa4, ft0, fa2

00001cf8 <.Lpcrel_hi33>:
    1cf8: 17 06 00 00  	auipc	a2, 0
    1cfc: 07 36 06 00  	fld	fa2, 0(a2)

00001d00 <.Lpcrel_hi34>:
    1d00: 17 06 00 00  	auipc	a2, 0
    1d04: 87 35 06 00  	fld	fa1, 0(a2)
    1d08: 53 96 06 c2  	fcvt.w.d	a2, fa3, rtz
    1d0c: d3 06 06 d2  	fcvt.d.w	fa3, a2
    1d10: d3 f6 c6 12  	fmul.d	fa3, fa3, fa2
    1d14: 43 77 b7 6a  	fmadd.d	fa4, fa4, fa1, fa3
    1d18: d3 76 e7 12  	fmul.d	fa3, fa4, fa4
    1d1c: 13 06 f6 3f  	addi	a2, a2, 1023
    1d20: 23 24 01 00  	sw	zero, 8(sp)
    1d24: 13 16 46 01  	slli	a2, a2, 20
    1d28: 23 26 c1 00  	sw	a2, 12(sp)

00001d2c <.Lpcrel_hi36>:
    1d2c: 17 06 00 00  	auipc	a2, 0
    1d30: 07 36 06 00  	fld	fa2, 0(a2)

00001d34 <.Lpcrel_hi37>:
    1d34: 17 06 00 00  	auipc	a2, 0
    1d38: 87 35 06 00  	fld	fa1, 0(a2)
    1d3c: 07 30 81 00  	fld	ft0, 8(sp)

00001d40 <.Lpcrel_hi35>:
    1d40: 17 06 00 00  	auipc	a2, 0
    1d44: 87 30 06 00  	fld	ft1, 0(a2)
    1d48: 43 f6 b6 62  	fmadd.d	fa2, fa3, fa1, fa2

00001d4c <.Lpcrel_hi38>:
    1d4c: 17 06 00 00  	auipc	a2, 0
    1d50: 87 35 06 00  	fld	fa1, 0(a2)
    1d54: d3 f0 e0 0a  	fsub.d	ft1, ft1, fa4
    1d58: 53 77 e7 02  	fadd.d	fa4, fa4, fa4
    1d5c: 53 f6 c6 1a  	fdiv.d	fa2, fa3, fa2
    1d60: 53 76 b6 02  	fadd.d	fa2, fa2, fa1
    1d64: d3 f6 c6 1a  	fdiv.d	fa3, fa3, fa2
    1d68: d3 f6 d0 02  	fadd.d	fa3, ft1, fa3
    1d6c: 53 77 d7 1a  	fdiv.d	fa4, fa4, fa3
    1d70: 43 77 07 02  	fmadd.d	fa4, fa4, ft0, ft0
    1d74: 53 96 e7 a2  	flt.d	a2, fa5, fa4
    1d78: 63 00 06 00  	beqz	a2, 0x1d78 <.Lpcrel_hi38+0x2c>

00001d7c <.Lpcrel_hi39>:
    1d7c: 97 06 00 00  	auipc	a3, 0
    1d80: 87 b6 06 00  	fld	fa3, 0(a3)
    1d84: 53 77 d7 12  	fmul.d	fa4, fa4, fa3

00001d88 <.LBB53_8>:
    1d88: b3 8b c5 40  	sub	s7, a1, a2
    1d8c: 93 85 3b 06  	addi	a1, s7, 99
    1d90: 93 b5 75 0c  	sltiu	a1, a1, 199
    1d94: 13 96 4a 01  	slli	a2, s5, 20
    1d98: 13 cc 55 00  	xori	s8, a1, 5
    1d9c: 63 50 06 00  	bgez	a2, 0x1d9c <.LBB53_8+0x14>

00001da0 <.Lpcrel_hi40>:
    1da0: 97 05 00 00  	auipc	a1, 0
    1da4: 87 b6 05 00  	fld	fa3, 0(a1)

00001da8 <.Lpcrel_hi41>:
    1da8: 97 05 00 00  	auipc	a1, 0
    1dac: 07 b6 05 00  	fld	fa2, 0(a1)
    1db0: d3 85 f6 a2  	fle.d	a1, fa3, fa5
    1db4: 53 96 c7 a2  	flt.d	a2, fa5, fa2
    1db8: b3 f5 c5 00  	and	a1, a1, a2
    1dbc: 63 80 05 00  	beqz	a1, 0x1dbc <.Lpcrel_hi41+0x14>
    1dc0: 13 0c 00 00  	li	s8, 0
    1dc4: 33 a5 eb 00  	slt	a0, s7, a4
    1dc8: 93 c5 fb ff  	not	a1, s7
    1dcc: b3 05 b7 00  	add	a1, a4, a1
    1dd0: 33 07 a0 40  	neg	a4, a0
    1dd4: 33 77 b7 00  	and	a4, a4, a1
    1dd8: 93 ea 0a 40  	ori	s5, s5, 1024
    1ddc: 93 0b 00 00  	li	s7, 0
    1de0: 6f 00 00 00  	j	0x1de0 <.Lpcrel_hi41+0x38>

00001de4 <.LBB53_11>:
    1de4: 63 00 07 00  	beqz	a4, 0x1de4 <.LBB53_11>
    1de8: 63 10 05 00  	bnez	a0, 0x1de8 <.LBB53_11+0x4>
    1dec: 13 07 60 00  	li	a4, 6
    1df0: 6f 00 00 00  	j	0x1df0 <.LBB53_11+0xc>

00001df4 <.LBB53_14>:
    1df4: 13 87 f7 ff  	addi	a4, a5, -1

00001df8 <.LBB53_15>:
    1df8: d3 06 00 d2  	fcvt.d.w	fa3, zero
    1dfc: 53 15 d5 a2  	flt.d	a0, fa0, fa3
    1e00: b3 05 84 41  	sub	a1, s0, s8
    1e04: 33 36 b4 00  	sltu	a2, s0, a1
    1e08: 13 06 f6 ff  	addi	a2, a2, -1
    1e0c: b3 75 b6 00  	and	a1, a2, a1
    1e10: 13 d6 1a 00  	srli	a2, s5, 1
    1e14: b3 36 80 01  	snez	a3, s8
    1e18: 33 76 d6 00  	and	a2, a2, a3
    1e1c: 93 07 f6 ff  	addi	a5, a2, -1
    1e20: 63 90 0b 00  	bnez	s7, 0x1e20 <.LBB53_15+0x28>

00001e24 <.Lpcrel_hi42>:
    1e24: 17 06 00 00  	auipc	a2, 0
    1e28: 07 37 06 00  	fld	fa4, 0(a2)

00001e2c <.LBB53_17>:
    1e2c: b3 f7 b7 00  	and	a5, a5, a1
    1e30: 53 f5 e7 1a  	fdiv.d	fa0, fa5, fa4
    1e34: 63 00 05 00  	beqz	a0, 0x1e34 <.LBB53_17+0x8>
    1e38: 53 15 a5 22  	fneg.d	fa0, fa0

00001e3c <.LBB53_19>:
    1e3c: 37 f5 ff ff  	lui	a0, 1048575
    1e40: 13 05 f5 7f  	addi	a0, a0, 2047
    1e44: 33 f8 aa 00  	and	a6, s5, a0
    1e48: 13 85 09 00  	mv	a0, s3
    1e4c: 93 05 09 00  	mv	a1, s2
    1e50: 13 06 0a 00  	mv	a2, s4
    1e54: 93 86 04 00  	mv	a3, s1
    1e58: 97 00 00 00  	auipc	ra, 0
    1e5c: e7 80 00 00  	jalr	ra
    1e60: 13 0b 05 00  	mv	s6, a0
    1e64: 63 00 0c 00  	beqz	s8, 0x1e64 <.LBB53_19+0x28>
    1e68: 93 fc 2a 00  	andi	s9, s5, 2
    1e6c: 13 f5 0a 02  	andi	a0, s5, 32
    1e70: 13 45 55 06  	xori	a0, a0, 101
    1e74: 93 05 09 00  	mv	a1, s2
    1e78: 13 06 0b 00  	mv	a2, s6
    1e7c: 93 86 04 00  	mv	a3, s1
    1e80: e7 80 09 00  	jalr	s3
    1e84: 13 05 00 00  	li	a0, 0
    1e88: 93 d5 fb 41  	srai	a1, s7, 31
    1e8c: 33 c7 bb 00  	xor	a4, s7, a1
    1e90: 33 07 b7 40  	sub	a4, a4, a1
    1e94: 93 05 41 02  	addi	a1, sp, 36
    1e98: 37 d6 cc cc  	lui	a2, 838861
    1e9c: 13 06 d6 cc  	addi	a2, a2, -819
    1ea0: 93 06 a0 00  	li	a3, 10

00001ea4 <.LBB53_21>:
    1ea4: b3 37 c7 02  	mulhu	a5, a4, a2
    1ea8: 93 d7 37 00  	srli	a5, a5, 3
    1eac: 33 88 d7 02  	mul	a6, a5, a3
    1eb0: 33 08 07 41  	sub	a6, a4, a6
    1eb4: 13 68 08 03  	ori	a6, a6, 48
    1eb8: 93 38 f5 01  	sltiu	a7, a0, 31
    1ebc: 13 05 15 00  	addi	a0, a0, 1
    1ec0: 23 80 05 01  	sb	a6, 0(a1)
    1ec4: 13 37 a7 00  	sltiu	a4, a4, 10
    1ec8: 13 47 17 00  	xori	a4, a4, 1
    1ecc: 33 f8 e8 00  	and	a6, a7, a4
    1ed0: 93 85 15 00  	addi	a1, a1, 1
    1ed4: 13 87 07 00  	mv	a4, a5
    1ed8: 63 10 08 00  	bnez	a6, 0x1ed8 <.LBB53_21+0x34>
    1edc: 13 0c ec ff  	addi	s8, s8, -2
    1ee0: 13 06 00 02  	li	a2, 32
    1ee4: 63 70 cc 00  	bgeu	s8, a2, 0x1ee4 <.LBB53_21+0x40>
    1ee8: 63 60 85 01  	bltu	a0, s8, 0x1ee8 <.LBB53_21+0x44>

00001eec <.LBB53_24>:
    1eec: 93 05 f0 01  	li	a1, 31
    1ef0: 63 e0 a5 00  	bltu	a1, a0, 0x1ef0 <.LBB53_24+0x4>

00001ef4 <.LBB53_25>:
    1ef4: 93 d5 eb 01  	srli	a1, s7, 30
    1ef8: 93 f5 25 00  	andi	a1, a1, 2
    1efc: 93 85 b5 02  	addi	a1, a1, 43
    1f00: 13 06 41 02  	addi	a2, sp, 36
    1f04: 33 06 a6 00  	add	a2, a2, a0
    1f08: 13 05 15 00  	addi	a0, a0, 1
    1f0c: 23 00 b6 00  	sb	a1, 0(a2)

00001f10 <.LBB53_26>:
    1f10: 93 0a 1b 00  	addi	s5, s6, 1
    1f14: 33 0b a0 40  	neg	s6, a0
    1f18: 93 05 41 02  	addi	a1, sp, 36
    1f1c: 33 05 b5 00  	add	a0, a0, a1
    1f20: 93 0b f5 ff  	addi	s7, a0, -1

00001f24 <.LBB53_27>:
    1f24: 03 c5 0b 00  	lbu	a0, 0(s7)
    1f28: 13 86 0a 00  	mv	a2, s5
    1f2c: 93 8a 1a 00  	addi	s5, s5, 1
    1f30: 93 05 09 00  	mv	a1, s2
    1f34: 93 86 04 00  	mv	a3, s1
    1f38: e7 80 09 00  	jalr	s3
    1f3c: 13 0b 1b 00  	addi	s6, s6, 1
    1f40: 93 8b fb ff  	addi	s7, s7, -1
    1f44: 63 10 0b 00  	bnez	s6, 0x1f44 <.LBB53_27+0x20>
    1f48: 33 35 90 01  	snez	a0, s9
    1f4c: b3 85 4a 41  	sub	a1, s5, s4
    1f50: b3 b5 85 00  	sltu	a1, a1, s0
    1f54: 33 75 b5 00  	and	a0, a0, a1
    1f58: 63 00 05 00  	beqz	a0, 0x1f58 <.LBB53_27+0x34>
    1f5c: 33 0a 40 41  	neg	s4, s4

00001f60 <.LBB53_30>:
    1f60: 13 8b 1a 00  	addi	s6, s5, 1
    1f64: 13 05 00 02  	li	a0, 32
    1f68: 93 05 09 00  	mv	a1, s2
    1f6c: 13 86 0a 00  	mv	a2, s5
    1f70: 93 86 04 00  	mv	a3, s1
    1f74: e7 80 09 00  	jalr	s3
    1f78: 33 05 6a 01  	add	a0, s4, s6
    1f7c: 93 0a 0b 00  	mv	s5, s6
    1f80: 63 60 85 00  	bltu	a0, s0, 0x1f80 <.LBB53_30+0x20>
    1f84: 6f 00 00 00  	j	0x1f84 <.LBB53_30+0x24>

00001f88 <.LBB53_31>:
    1f88: 13 0c 00 02  	li	s8, 32
    1f8c: 63 70 85 01  	bgeu	a0, s8, 0x1f8c <.LBB53_31+0x4>

00001f90 <.LBB53_32>:
    1f90: 33 05 ac 40  	sub	a0, s8, a0
    1f94: 13 06 00 03  	li	a2, 48

00001f98 <.LBB53_33>:
    1f98: 23 80 c5 00  	sb	a2, 0(a1)
    1f9c: 13 05 f5 ff  	addi	a0, a0, -1
    1fa0: 93 85 15 00  	addi	a1, a1, 1
    1fa4: 63 10 05 00  	bnez	a0, 0x1fa4 <.LBB53_33+0xc>
    1fa8: 13 05 0c 00  	mv	a0, s8
    1fac: 93 05 f0 01  	li	a1, 31
    1fb0: 63 f0 85 01  	bgeu	a1, s8, 0x1fb0 <.LBB53_33+0x18>
    1fb4: 6f 00 00 00  	j	0x1fb4 <.LBB53_33+0x1c>

00001fb8 <.LBB53_35>:
    1fb8: 13 8b 0a 00  	mv	s6, s5

00001fbc <.LBB53_36>:
    1fbc: 13 05 0b 00  	mv	a0, s6
    1fc0: 83 20 c1 06  	lw	ra, 108(sp)
    1fc4: 03 24 81 06  	lw	s0, 104(sp)
    1fc8: 83 24 41 06  	lw	s1, 100(sp)
    1fcc: 03 29 01 06  	lw	s2, 96(sp)
    1fd0: 83 29 c1 05  	lw	s3, 92(sp)
    1fd4: 03 2a 81 05  	lw	s4, 88(sp)
    1fd8: 83 2a 41 05  	lw	s5, 84(sp)
    1fdc: 03 2b 01 05  	lw	s6, 80(sp)
    1fe0: 83 2b c1 04  	lw	s7, 76(sp)
    1fe4: 03 2c 81 04  	lw	s8, 72(sp)
    1fe8: 83 2c 41 04  	lw	s9, 68(sp)
    1fec: 13 01 01 07  	addi	sp, sp, 112
    1ff0: 67 80 00 00  	ret

00001ff4 <snrt_putchar>:
    1ff4: f3 25 40 f1  	csrr	a1, mhartid
    1ff8: 13 06 80 44  	li	a2, 1096
    1ffc: b3 85 c5 02  	mul	a1, a1, a2

00002000 <.Lpcrel_hi43>:
    2000: 17 06 00 00  	auipc	a2, 0
    2004: 13 06 06 00  	mv	a2, a2
    2008: b3 05 b6 00  	add	a1, a2, a1
    200c: 03 a6 05 00  	lw	a2, 0(a1)
    2010: 93 06 16 00  	addi	a3, a2, 1
    2014: 23 a0 d5 00  	sw	a3, 0(a1)
    2018: 33 86 c5 00  	add	a2, a1, a2
    201c: 23 04 a6 04  	sb	a0, 72(a2)
    2020: 03 a6 05 00  	lw	a2, 0(a1)
    2024: 13 06 46 c0  	addi	a2, a2, -1020
    2028: 33 36 c0 00  	snez	a2, a2
    202c: 13 05 65 ff  	addi	a0, a0, -10
    2030: 33 35 a0 00  	snez	a0, a0
    2034: 33 75 c5 00  	and	a0, a0, a2
    2038: 63 10 05 00  	bnez	a0, 0x2038 <.Lpcrel_hi43+0x38>
    203c: 13 85 85 04  	addi	a0, a1, 72
    2040: 23 a6 05 00  	sw	zero, 12(a1)
    2044: 13 06 00 04  	li	a2, 64
    2048: 23 a4 c5 00  	sw	a2, 8(a1)
    204c: 23 aa 05 00  	sw	zero, 20(a1)
    2050: 13 06 10 00  	li	a2, 1
    2054: 23 a8 c5 00  	sw	a2, 16(a1)
    2058: 23 ae 05 00  	sw	zero, 28(a1)
    205c: 23 ac a5 00  	sw	a0, 24(a1)
    2060: 03 a5 05 00  	lw	a0, 0(a1)
    2064: 13 86 85 00  	addi	a2, a1, 8
    2068: 23 a2 05 02  	sw	zero, 36(a1)
    206c: 23 a0 a5 02  	sw	a0, 32(a1)

00002070 <.Lpcrel_hi44>:
    2070: 17 05 00 00  	auipc	a0, 0
    2074: 23 20 c5 00  	sw	a2, 0(a0)

00002078 <.Lpcrel_hi45>:
    2078: 17 05 00 00  	auipc	a0, 0

0000207c <.LBB54_2>:
    207c: 03 26 05 00  	lw	a2, 0(a0)
    2080: 63 00 06 00  	beqz	a2, 0x2080 <.LBB54_2+0x4>
    2084: 23 20 05 00  	sw	zero, 0(a0)
    2088: 23 a0 05 00  	sw	zero, 0(a1)

0000208c <.LBB54_4>:
    208c: 67 80 00 00  	ret

00002090 <sprintf_>:
    2090: 13 01 01 fe  	addi	sp, sp, -32
    2094: 23 22 11 00  	sw	ra, 4(sp)
    2098: 93 82 05 00  	mv	t0, a1
    209c: 93 05 05 00  	mv	a1, a0
    20a0: 23 2e 11 01  	sw	a7, 28(sp)
    20a4: 23 2c 01 01  	sw	a6, 24(sp)
    20a8: 23 2a f1 00  	sw	a5, 20(sp)
    20ac: 23 28 e1 00  	sw	a4, 16(sp)
    20b0: 23 26 d1 00  	sw	a3, 12(sp)
    20b4: 23 24 c1 00  	sw	a2, 8(sp)
    20b8: 13 05 81 00  	addi	a0, sp, 8
    20bc: 23 20 a1 00  	sw	a0, 0(sp)

000020c0 <.Lpcrel_hi46>:
    20c0: 17 05 00 00  	auipc	a0, 0
    20c4: 13 05 05 00  	mv	a0, a0
    20c8: 13 06 f0 ff  	li	a2, -1
    20cc: 13 07 81 00  	addi	a4, sp, 8
    20d0: 93 86 02 00  	mv	a3, t0
    20d4: 97 00 00 00  	auipc	ra, 0
    20d8: e7 80 00 00  	jalr	ra
    20dc: 83 20 41 00  	lw	ra, 4(sp)
    20e0: 13 01 01 02  	addi	sp, sp, 32
    20e4: 67 80 00 00  	ret

000020e8 <_out_buffer>:
    20e8: 63 70 d6 00  	bgeu	a2, a3, 0x20e8 <_out_buffer>
    20ec: b3 85 c5 00  	add	a1, a1, a2
    20f0: 23 80 a5 00  	sb	a0, 0(a1)

000020f4 <.LBB56_2>:
    20f4: 67 80 00 00  	ret

000020f8 <snprintf_>:
    20f8: 13 01 01 fe  	addi	sp, sp, -32
    20fc: 23 22 11 00  	sw	ra, 4(sp)
    2100: 93 02 06 00  	mv	t0, a2
    2104: 13 86 05 00  	mv	a2, a1
    2108: 93 05 05 00  	mv	a1, a0
    210c: 23 2e 11 01  	sw	a7, 28(sp)
    2110: 23 2c 01 01  	sw	a6, 24(sp)
    2114: 23 2a f1 00  	sw	a5, 20(sp)
    2118: 23 28 e1 00  	sw	a4, 16(sp)
    211c: 23 26 d1 00  	sw	a3, 12(sp)
    2120: 13 05 c1 00  	addi	a0, sp, 12
    2124: 23 20 a1 00  	sw	a0, 0(sp)

00002128 <.Lpcrel_hi47>:
    2128: 17 05 00 00  	auipc	a0, 0
    212c: 13 05 05 00  	mv	a0, a0
    2130: 13 07 c1 00  	addi	a4, sp, 12
    2134: 93 86 02 00  	mv	a3, t0
    2138: 97 00 00 00  	auipc	ra, 0
    213c: e7 80 00 00  	jalr	ra
    2140: 83 20 41 00  	lw	ra, 4(sp)
    2144: 13 01 01 02  	addi	sp, sp, 32
    2148: 67 80 00 00  	ret

0000214c <vprintf_>:
    214c: 13 01 01 ff  	addi	sp, sp, -16
    2150: 23 26 11 00  	sw	ra, 12(sp)
    2154: 13 87 05 00  	mv	a4, a1
    2158: 93 06 05 00  	mv	a3, a0

0000215c <.Lpcrel_hi48>:
    215c: 17 05 00 00  	auipc	a0, 0
    2160: 13 05 05 00  	mv	a0, a0
    2164: 93 05 b1 00  	addi	a1, sp, 11
    2168: 13 06 f0 ff  	li	a2, -1
    216c: 97 00 00 00  	auipc	ra, 0
    2170: e7 80 00 00  	jalr	ra
    2174: 83 20 c1 00  	lw	ra, 12(sp)
    2178: 13 01 01 01  	addi	sp, sp, 16
    217c: 67 80 00 00  	ret

00002180 <vsnprintf_>:
    2180: 17 07 00 00  	auipc	a4, 0
    2184: 13 07 07 00  	mv	a4, a4
    2188: 93 87 06 00  	mv	a5, a3
    218c: 93 06 06 00  	mv	a3, a2
    2190: 13 86 05 00  	mv	a2, a1
    2194: 93 05 05 00  	mv	a1, a0
    2198: 13 05 07 00  	mv	a0, a4
    219c: 13 87 07 00  	mv	a4, a5
    21a0: 17 03 00 00  	auipc	t1, 0
    21a4: 67 00 03 00  	jr	t1

000021a8 <fctprintf>:
    21a8: 13 01 01 fd  	addi	sp, sp, -48
    21ac: 23 2a 11 00  	sw	ra, 20(sp)
    21b0: 93 02 06 00  	mv	t0, a2
    21b4: 23 26 11 03  	sw	a7, 44(sp)
    21b8: 23 24 01 03  	sw	a6, 40(sp)
    21bc: 23 22 f1 02  	sw	a5, 36(sp)
    21c0: 23 20 e1 02  	sw	a4, 32(sp)
    21c4: 23 2e d1 00  	sw	a3, 28(sp)
    21c8: 13 06 c1 01  	addi	a2, sp, 28
    21cc: 23 28 c1 00  	sw	a2, 16(sp)
    21d0: 23 24 a1 00  	sw	a0, 8(sp)
    21d4: 23 26 b1 00  	sw	a1, 12(sp)

000021d8 <.Lpcrel_hi50>:
    21d8: 17 05 00 00  	auipc	a0, 0
    21dc: 13 05 05 00  	mv	a0, a0
    21e0: 93 05 81 00  	addi	a1, sp, 8
    21e4: 13 06 f0 ff  	li	a2, -1
    21e8: 13 07 c1 01  	addi	a4, sp, 28
    21ec: 93 86 02 00  	mv	a3, t0
    21f0: 97 00 00 00  	auipc	ra, 0
    21f4: e7 80 00 00  	jalr	ra
    21f8: 83 20 41 01  	lw	ra, 20(sp)
    21fc: 13 01 01 03  	addi	sp, sp, 48
    2200: 67 80 00 00  	ret

00002204 <_out_fct>:
    2204: 63 00 05 00  	beqz	a0, 0x2204 <_out_fct>
    2208: 03 a3 05 00  	lw	t1, 0(a1)
    220c: 83 a5 45 00  	lw	a1, 4(a1)
    2210: 67 00 03 00  	jr	t1

00002214 <.LBB61_2>:
    2214: 67 80 00 00  	ret

00002218 <snrt_main>:
    2218: 13 01 01 ff  	addi	sp, sp, -16
    221c: 23 26 11 00  	sw	ra, 12(sp)
    2220: 23 24 81 00  	sw	s0, 8(sp)
    2224: f3 22 30 bc  	csrr	t0, 3011
    2228: 93 97 02 01  	slli	a5, t0, 16
    222c: 93 d7 07 01  	srli	a5, a5, 16
    2230: 93 d8 02 01  	srli	a7, t0, 16
    2234: 13 88 f8 ff  	addi	a6, a7, -1
    2238: 63 e0 07 01  	bltu	a5, a6, 0x2238 <snrt_main+0x20>
    223c: 13 05 02 00  	mv	a0, tp
    2240: 23 22 a1 00  	sw	a0, 4(sp)
    2244: 03 25 41 00  	lw	a0, 4(sp)

00002248 <.Lpcrel_hi51>:
    2248: 97 05 00 00  	auipc	a1, 0
    224c: 13 86 05 00  	mv	a2, a1

00002250 <.Lpcrel_hi52>:
    2250: 97 05 00 00  	auipc	a1, 0
    2254: 13 87 05 00  	mv	a4, a1
    2258: 33 07 c7 40  	sub	a4, a4, a2
    225c: 63 00 07 00  	beqz	a4, 0x225c <.Lpcrel_hi52+0xc>
    2260: 93 06 00 00  	li	a3, 0
    2264: 2b 00 d6 00  	<unknown>
    2268: 93 05 00 00  	li	a1, 0
    226c: 2b 00 b5 02  	<unknown>
    2270: 2b 05 07 04  	<unknown>

00002274 <.LBB62_3>:
    2274: 13 d5 12 01  	srli	a0, t0, 17
    2278: 63 00 05 00  	beqz	a0, 0x2278 <.LBB62_3+0x4>
    227c: 93 05 20 00  	li	a1, 2
    2280: 13 85 08 00  	mv	a0, a7
    2284: 63 e0 15 01  	bltu	a1, a7, 0x2284 <.LBB62_3+0x10>
    2288: 13 05 20 00  	li	a0, 2

0000228c <.LBB62_6>:
    228c: 13 03 80 40  	li	t1, 1032
    2290: b3 03 65 02  	mul	t2, a0, t1
    2294: 93 06 00 00  	li	a3, 0
    2298: 93 05 00 00  	li	a1, 0
    229c: 6f 00 00 00  	j	0x229c <.LBB62_6+0x10>

000022a0 <.LBB62_7>:
    22a0: 13 03 83 40  	addi	t1, t1, 1032
    22a4: 63 80 63 00  	beq	t2, t1, 0x22a4 <.LBB62_7+0x4>

000022a8 <.LBB62_8>:
    22a8: 03 25 41 00  	lw	a0, 4(sp)
    22ac: 03 26 41 00  	lw	a2, 4(sp)
    22b0: 63 00 07 00  	beqz	a4, 0x22b0 <.LBB62_8+0x8>
    22b4: 33 05 a3 00  	add	a0, t1, a0
    22b8: 2b 00 d6 00  	<unknown>
    22bc: 2b 00 b5 02  	<unknown>
    22c0: 2b 05 07 04  	<unknown>
    22c4: 6f 00 00 00  	j	0x22c4 <.LBB62_8+0x1c>

000022c8 <.LBB62_10>:
    22c8: 03 25 41 00  	lw	a0, 4(sp)
    22cc: 33 05 e5 00  	add	a0, a0, a4
    22d0: 93 d5 02 01  	srli	a1, t0, 16
    22d4: 23 22 a1 00  	sw	a0, 4(sp)
    22d8: 63 90 05 00  	bnez	a1, 0x22d8 <.LBB62_10+0x10>

000022dc <.LBB62_11>:
    22dc: b3 b5 07 01  	sltu	a1, a5, a6
    22e0: 73 20 20 7c  	csrr	zero, 1986
    22e4: 73 25 10 bc  	csrr	a0, 3009
    22e8: 37 06 fc 00  	lui	a2, 4032
    22ec: 33 75 c5 00  	and	a0, a0, a2
    22f0: 33 36 a0 00  	snez	a2, a0

000022f4 <.Lpcrel_hi55>:
    22f4: 17 05 00 00  	auipc	a0, 0
    22f8: 13 05 05 00  	mv	a0, a0

000022fc <.Lpcrel_hi56>:
    22fc: 97 06 00 00  	auipc	a3, 0
    2300: 13 87 06 00  	mv	a4, a3
    2304: 33 07 a7 40  	sub	a4, a4, a0
    2308: 93 36 17 00  	seqz	a3, a4
    230c: 33 e6 c6 00  	or	a2, a3, a2
    2310: b3 e5 c5 00  	or	a1, a1, a2
    2314: 63 90 05 00  	bnez	a1, 0x2314 <.Lpcrel_hi56+0x18>
    2318: 37 06 03 10  	lui	a2, 65584
    231c: 93 06 00 00  	li	a3, 0
    2320: 2b 00 d6 00  	<unknown>
    2324: 2b 00 b5 02  	<unknown>
    2328: 2b 05 07 04  	<unknown>

0000232c <.LBB62_13>:
    232c: 37 05 00 00  	lui	a0, 0
    2330: b3 08 45 00  	add	a7, a0, tp

00002334 <.Lpcrel_hi57>:
    2334: 17 05 00 00  	auipc	a0, 0
    2338: 13 06 05 00  	mv	a2, a0

0000233c <.Lpcrel_hi58>:
    233c: 17 05 00 00  	auipc	a0, 0
    2340: 13 07 05 00  	mv	a4, a0
    2344: 33 07 c7 40  	sub	a4, a4, a2

00002348 <.Lpcrel_hi59>:
    2348: 17 05 00 00  	auipc	a0, 0
    234c: 93 02 05 00  	mv	t0, a0

00002350 <.Lpcrel_hi60>:
    2350: 17 05 00 00  	auipc	a0, 0
    2354: 13 03 05 00  	mv	t1, a0
    2358: 33 05 53 40  	sub	a0, t1, t0
    235c: 33 05 e5 40  	sub	a0, a0, a4
    2360: b7 05 02 10  	lui	a1, 65568
    2364: b3 05 b5 00  	add	a1, a0, a1
    2368: 23 a0 b8 00  	sw	a1, 0(a7)

0000236c <.Lpcrel_hi61>:
    236c: 97 05 00 00  	auipc	a1, 0
    2370: 13 84 05 00  	mv	s0, a1
    2374: 63 f0 07 01  	bgeu	a5, a6, 0x2374 <.Lpcrel_hi61+0x8>
    2378: 73 20 20 7c  	csrr	zero, 1986
    237c: 97 00 00 00  	auipc	ra, 0
    2380: e7 80 00 00  	jalr	ra
    2384: 73 20 20 7c  	csrr	zero, 1986
    2388: 2f 25 a4 00  	amoadd.w	a0, a0, (s0)
    238c: 73 20 20 7c  	csrr	zero, 1986
    2390: 73 20 20 7c  	csrr	zero, 1986
    2394: 03 25 04 00  	lw	a0, 0(s0)
    2398: f3 25 40 f1  	csrr	a1, mhartid
    239c: 63 90 05 00  	bnez	a1, 0x239c <.Lpcrel_hi61+0x30>
    23a0: 6f 00 00 00  	j	0x23a0 <.Lpcrel_hi61+0x34>

000023a4 <.LBB62_15>:
    23a4: 63 00 07 00  	beqz	a4, 0x23a4 <.LBB62_15>
    23a8: b7 05 02 10  	lui	a1, 65568
    23ac: 33 05 b5 00  	add	a0, a0, a1
    23b0: 93 06 00 00  	li	a3, 0
    23b4: 2b 00 d6 00  	<unknown>
    23b8: 93 05 00 00  	li	a1, 0
    23bc: 2b 00 b5 02  	<unknown>
    23c0: 2b 05 07 04  	<unknown>

000023c4 <.LBB62_17>:
    23c4: b3 87 62 40  	sub	a5, t0, t1
    23c8: 13 88 08 00  	mv	a6, a7
    23cc: 63 80 07 00  	beqz	a5, 0x23cc <.LBB62_17+0x8>
    23d0: 37 06 03 10  	lui	a2, 65584
    23d4: 33 05 f7 00  	add	a0, a4, a5
    23d8: b7 05 02 10  	lui	a1, 65568
    23dc: b3 05 b7 00  	add	a1, a4, a1
    23e0: 33 85 a5 40  	sub	a0, a1, a0
    23e4: 93 06 00 00  	li	a3, 0
    23e8: 2b 00 d6 00  	<unknown>
    23ec: 93 05 00 00  	li	a1, 0
    23f0: 2b 00 b5 02  	<unknown>
    23f4: 13 87 07 00  	mv	a4, a5
    23f8: 2b 05 07 04  	<unknown>

000023fc <.Ltmp7>:
    23fc: ab 02 20 08  	<unknown>
    2400: 63 90 02 00  	bnez	t0, 0x2400 <.Ltmp7+0x4>
    2404: 03 25 08 00  	lw	a0, 0(a6)
    2408: b7 05 00 10  	lui	a1, 65536
    240c: 23 22 b5 00  	sw	a1, 4(a0)
    2410: 37 06 02 00  	lui	a2, 32
    2414: 23 24 c5 00  	sw	a2, 8(a0)
    2418: 23 26 b5 00  	sw	a1, 12(a0)

0000241c <.Lpcrel_hi62>:
    241c: 17 05 00 00  	auipc	a0, 0
    2420: 13 05 05 00  	mv	a0, a0
    2424: 13 75 85 ff  	andi	a0, a0, -8

00002428 <.Lpcrel_hi63>:
    2428: 97 05 00 00  	auipc	a1, 0
    242c: 93 85 05 00  	mv	a1, a1
    2430: 23 a0 a5 00  	sw	a0, 0(a1)
    2434: 23 a2 05 00  	sw	zero, 4(a1)
    2438: 23 a4 a5 00  	sw	a0, 8(a1)
    243c: 73 20 20 7c  	csrr	zero, 1986
    2440: 97 00 00 00  	auipc	ra, 0
    2444: e7 80 00 00  	jalr	ra
    2448: 73 20 20 7c  	csrr	zero, 1986
    244c: 2f 25 a4 00  	amoadd.w	a0, a0, (s0)
    2450: 73 20 20 7c  	csrr	zero, 1986

00002454 <.Lpcrel_hi64>:
    2454: 17 05 00 00  	auipc	a0, 0
    2458: 13 05 05 00  	mv	a0, a0
    245c: 83 25 45 00  	lw	a1, 4(a0)
    2460: 13 06 10 00  	li	a2, 1
    2464: af 26 c5 00  	amoadd.w	a3, a2, (a0)
    2468: 63 80 06 00  	beqz	a3, 0x2468 <.Lpcrel_hi64+0x14>

0000246c <.LBB62_20>:
    246c: 03 26 45 00  	lw	a2, 4(a0)
    2470: 63 80 c5 00  	beq	a1, a2, 0x2470 <.LBB62_20+0x4>
    2474: 73 20 20 7c  	csrr	zero, 1986
    2478: 03 25 04 00  	lw	a0, 0(s0)
    247c: f3 25 40 f1  	csrr	a1, mhartid
    2480: 63 80 05 00  	beqz	a1, 0x2480 <.LBB62_20+0x14>

00002484 <.LBB62_22>:
    2484: 83 20 c1 00  	lw	ra, 12(sp)
    2488: 03 24 81 00  	lw	s0, 8(sp)
    248c: 13 01 01 01  	addi	sp, sp, 16
    2490: 67 80 00 00  	ret

00002494 <.LBB62_23>:
    2494: 93 02 00 00  	li	t0, 0
    2498: 13 b5 18 00  	seqz	a0, a7
    249c: 33 85 a8 00  	add	a0, a7, a0
    24a0: 93 05 80 40  	li	a1, 1032
    24a4: b3 08 b5 02  	mul	a7, a0, a1

000024a8 <.Lpcrel_hi53>:
    24a8: 17 05 00 00  	auipc	a0, 0
    24ac: 13 05 05 00  	mv	a0, a0

000024b0 <.Lpcrel_hi54>:
    24b0: 97 05 00 00  	auipc	a1, 0
    24b4: 13 87 05 00  	mv	a4, a1
    24b8: 33 07 a7 40  	sub	a4, a4, a0
    24bc: 37 06 03 10  	lui	a2, 65584
    24c0: 93 06 00 00  	li	a3, 0
    24c4: 93 05 00 00  	li	a1, 0
    24c8: 6f 00 00 00  	j	0x24c8 <.Lpcrel_hi54+0x18>

000024cc <.LBB62_24>:
    24cc: 93 82 82 40  	addi	t0, t0, 1032
    24d0: 63 80 58 00  	beq	a7, t0, 0x24d0 <.LBB62_24+0x4>

000024d4 <.LBB62_25>:
    24d4: 03 25 41 00  	lw	a0, 4(sp)
    24d8: 63 00 07 00  	beqz	a4, 0x24d8 <.LBB62_25+0x4>
    24dc: 33 85 a2 00  	add	a0, t0, a0
    24e0: 2b 00 d6 00  	<unknown>
    24e4: 2b 00 b5 02  	<unknown>
    24e8: 2b 05 07 04  	<unknown>
    24ec: 6f 00 00 00  	j	0x24ec <.LBB62_25+0x18>

000024f0 <.LBB62_27>:
    24f0: 23 20 05 00  	sw	zero, 0(a0)
    24f4: 13 05 45 00  	addi	a0, a0, 4
    24f8: 2f 25 c5 00  	amoadd.w	a0, a2, (a0)
    24fc: 73 20 20 7c  	csrr	zero, 1986
    2500: 03 25 04 00  	lw	a0, 0(s0)
    2504: f3 25 40 f1  	csrr	a1, mhartid
    2508: 63 90 05 00  	bnez	a1, 0x2508 <.LBB62_27+0x18>

0000250c <.LBB62_28>:
    250c: 13 15 15 00  	slli	a0, a0, 1
    2510: 13 05 15 00  	addi	a0, a0, 1

00002514 <.Lpcrel_hi65>:
    2514: 97 05 00 00  	auipc	a1, 0
    2518: 23 a0 a5 00  	sw	a0, 0(a1)
    251c: 83 20 c1 00  	lw	ra, 12(sp)
    2520: 03 24 81 00  	lw	s0, 8(sp)
    2524: 13 01 01 01  	addi	sp, sp, 16
    2528: 67 80 00 00  	ret

Disassembly of section .rela.text:

00000000 <.rela.text>:
       0: 00 00        	<unknown>
       2: 00 00        	<unknown>
       4: 1d 63        	<unknown>
       6: 01 00        	<unknown>
		...
      10: 33 00 00 00  	add	zero, zero, zero
      14: 00 00        	<unknown>
      16: 00 00        	<unknown>
      18: 04 00        	<unknown>
      1a: 00 00        	<unknown>
      1c: 20 63        	<unknown>
      1e: 01 00        	<unknown>
      20: 00 00        	<unknown>
      22: 00 00        	<unknown>
      24: 04 00        	<unknown>
      26: 00 00        	<unknown>
      28: 33 00 00 00  	add	zero, zero, zero
      2c: 00 00        	<unknown>
      2e: 00 00        	<unknown>
      30: 08 00        	<unknown>
      32: 00 00        	<unknown>
      34: 1e 63        	<unknown>
      36: 01 00        	<unknown>
      38: 00 00        	<unknown>
      3a: 00 00        	<unknown>
      3c: 08 00        	<unknown>
      3e: 00 00        	<unknown>
      40: 33 00 00 00  	add	zero, zero, zero
      44: 00 00        	<unknown>
      46: 00 00        	<unknown>
      48: 14 00        	<unknown>
      4a: 00 00        	<unknown>
      4c: 17 65 01 00  	auipc	a0, 22
      50: 08 00        	<unknown>
      52: 00 00        	<unknown>
      54: 14 00        	<unknown>
      56: 00 00        	<unknown>
      58: 33 00 00 00  	add	zero, zero, zero
      5c: 00 00        	<unknown>
      5e: 00 00        	<unknown>
      60: 18 00        	<unknown>
      62: 00 00        	<unknown>
      64: 18 02        	<unknown>
      66: 00 00        	<unknown>
      68: 00 00        	<unknown>
      6a: 00 00        	<unknown>
      6c: 18 00        	<unknown>
      6e: 00 00        	<unknown>
      70: 33 00 00 00  	add	zero, zero, zero
      74: 00 00        	<unknown>
      76: 00 00        	<unknown>
      78: 20 00        	<unknown>
      7a: 00 00        	<unknown>
      7c: 1d 63        	<unknown>
      7e: 01 00        	<unknown>
      80: 00 00        	<unknown>
      82: 00 00        	<unknown>
      84: 20 00        	<unknown>
      86: 00 00        	<unknown>
      88: 33 00 00 00  	add	zero, zero, zero
      8c: 00 00        	<unknown>
      8e: 00 00        	<unknown>
      90: 24 00        	<unknown>
      92: 00 00        	<unknown>
      94: 20 63        	<unknown>
      96: 01 00        	<unknown>
      98: 00 00        	<unknown>
      9a: 00 00        	<unknown>
      9c: 24 00        	<unknown>
      9e: 00 00        	<unknown>
      a0: 33 00 00 00  	add	zero, zero, zero
      a4: 00 00        	<unknown>
      a6: 00 00        	<unknown>
      a8: 28 00        	<unknown>
      aa: 00 00        	<unknown>
      ac: 1e 63        	<unknown>
      ae: 01 00        	<unknown>
      b0: 00 00        	<unknown>
      b2: 00 00        	<unknown>
      b4: 28 00        	<unknown>
      b6: 00 00        	<unknown>
      b8: 33 00 00 00  	add	zero, zero, zero
      bc: 00 00        	<unknown>
      be: 00 00        	<unknown>
      c0: 48 00        	<unknown>
      c2: 00 00        	<unknown>
      c4: 17 65 01 00  	auipc	a0, 22
      c8: 08 00        	<unknown>
      ca: 00 00        	<unknown>
      cc: 48 00        	<unknown>
      ce: 00 00        	<unknown>
      d0: 33 00 00 00  	add	zero, zero, zero
      d4: 00 00        	<unknown>
      d6: 00 00        	<unknown>
      d8: 4c 00        	<unknown>
      da: 00 00        	<unknown>
      dc: 18 03        	<unknown>
      de: 00 00        	<unknown>
      e0: 00 00        	<unknown>
      e2: 00 00        	<unknown>
      e4: 4c 00        	<unknown>
      e6: 00 00        	<unknown>
      e8: 33 00 00 00  	add	zero, zero, zero
      ec: 00 00        	<unknown>
      ee: 00 00        	<unknown>
      f0: 54 00        	<unknown>
      f2: 00 00        	<unknown>
      f4: 19 03        	<unknown>
      f6: 00 00        	<unknown>
      f8: 00 00        	<unknown>
      fa: 00 00        	<unknown>
      fc: 54 00        	<unknown>
      fe: 00 00        	<unknown>
     100: 33 00 00 00  	add	zero, zero, zero
     104: 00 00        	<unknown>
     106: 00 00        	<unknown>
     108: 60 00        	<unknown>
     10a: 00 00        	<unknown>
     10c: 1d 63        	<unknown>
     10e: 01 00        	<unknown>
     110: 00 00        	<unknown>
     112: 00 00        	<unknown>
     114: 60 00        	<unknown>
     116: 00 00        	<unknown>
     118: 33 00 00 00  	add	zero, zero, zero
     11c: 00 00        	<unknown>
     11e: 00 00        	<unknown>
     120: 64 00        	<unknown>
     122: 00 00        	<unknown>
     124: 20 63        	<unknown>
     126: 01 00        	<unknown>
     128: 00 00        	<unknown>
     12a: 00 00        	<unknown>
     12c: 64 00        	<unknown>
     12e: 00 00        	<unknown>
     130: 33 00 00 00  	add	zero, zero, zero
     134: 00 00        	<unknown>
     136: 00 00        	<unknown>
     138: 68 00        	<unknown>
     13a: 00 00        	<unknown>
     13c: 1e 63        	<unknown>
     13e: 01 00        	<unknown>
     140: 00 00        	<unknown>
     142: 00 00        	<unknown>
     144: 68 00        	<unknown>
     146: 00 00        	<unknown>
     148: 33 00 00 00  	add	zero, zero, zero
     14c: 00 00        	<unknown>
     14e: 00 00        	<unknown>
     150: 88 00        	<unknown>
     152: 00 00        	<unknown>
     154: 10 04        	<unknown>
     156: 00 00        	<unknown>
     158: 00 00        	<unknown>
     15a: 00 00        	<unknown>
     15c: 8c 00        	<unknown>
     15e: 00 00        	<unknown>
     160: 1d 63        	<unknown>
     162: 01 00        	<unknown>
     164: 00 00        	<unknown>
     166: 00 00        	<unknown>
     168: 8c 00        	<unknown>
     16a: 00 00        	<unknown>
     16c: 33 00 00 00  	add	zero, zero, zero
     170: 00 00        	<unknown>
     172: 00 00        	<unknown>
     174: 90 00        	<unknown>
     176: 00 00        	<unknown>
     178: 20 63        	<unknown>
     17a: 01 00        	<unknown>
     17c: 00 00        	<unknown>
     17e: 00 00        	<unknown>
     180: 90 00        	<unknown>
     182: 00 00        	<unknown>
     184: 33 00 00 00  	add	zero, zero, zero
     188: 00 00        	<unknown>
     18a: 00 00        	<unknown>
     18c: 94 00        	<unknown>
     18e: 00 00        	<unknown>
     190: 1e 63        	<unknown>
     192: 01 00        	<unknown>
     194: 00 00        	<unknown>
     196: 00 00        	<unknown>
     198: 94 00        	<unknown>
     19a: 00 00        	<unknown>
     19c: 33 00 00 00  	add	zero, zero, zero
     1a0: 00 00        	<unknown>
     1a2: 00 00        	<unknown>
     1a4: ac 00        	<unknown>
     1a6: 00 00        	<unknown>
     1a8: 17 6a 01 00  	auipc	s4, 22
     1ac: 07 00 00 00  	<unknown>
     1b0: ac 00        	<unknown>
     1b2: 00 00        	<unknown>
     1b4: 33 00 00 00  	add	zero, zero, zero
     1b8: 00 00        	<unknown>
     1ba: 00 00        	<unknown>
     1bc: b0 00        	<unknown>
     1be: 00 00        	<unknown>
     1c0: 18 05        	<unknown>
     1c2: 00 00        	<unknown>
     1c4: 00 00        	<unknown>
     1c6: 00 00        	<unknown>
     1c8: b0 00        	<unknown>
     1ca: 00 00        	<unknown>
     1cc: 33 00 00 00  	add	zero, zero, zero
     1d0: 00 00        	<unknown>
     1d2: 00 00        	<unknown>
     1d4: b8 00        	<unknown>
     1d6: 00 00        	<unknown>
     1d8: 17 65 01 00  	auipc	a0, 22
     1dc: 00 00        	<unknown>
     1de: 00 00        	<unknown>
     1e0: b8 00        	<unknown>
     1e2: 00 00        	<unknown>
     1e4: 33 00 00 00  	add	zero, zero, zero
     1e8: 00 00        	<unknown>
     1ea: 00 00        	<unknown>
     1ec: bc 00        	<unknown>
     1ee: 00 00        	<unknown>
     1f0: 18 06        	<unknown>
     1f2: 00 00        	<unknown>
     1f4: 00 00        	<unknown>
     1f6: 00 00        	<unknown>
     1f8: bc 00        	<unknown>
     1fa: 00 00        	<unknown>
     1fc: 33 00 00 00  	add	zero, zero, zero
     200: 00 00        	<unknown>
     202: 00 00        	<unknown>
     204: 04 01        	<unknown>
     206: 00 00        	<unknown>
     208: 10 07        	<unknown>
     20a: 00 00        	<unknown>
     20c: 00 00        	<unknown>
     20e: 00 00        	<unknown>
     210: 24 01        	<unknown>
     212: 00 00        	<unknown>
     214: 10 08        	<unknown>
     216: 00 00        	<unknown>
     218: 00 00        	<unknown>
     21a: 00 00        	<unknown>
     21c: 40 01        	<unknown>
     21e: 00 00        	<unknown>
     220: 10 09        	<unknown>
     222: 00 00        	<unknown>
     224: 00 00        	<unknown>
     226: 00 00        	<unknown>
     228: 6c 01        	<unknown>
     22a: 00 00        	<unknown>
     22c: 10 0a        	<unknown>
     22e: 00 00        	<unknown>
     230: 00 00        	<unknown>
     232: 00 00        	<unknown>
     234: 90 01        	<unknown>
     236: 00 00        	<unknown>
     238: 10 0b        	<unknown>
     23a: 00 00        	<unknown>
     23c: 00 00        	<unknown>
     23e: 00 00        	<unknown>
     240: d8 01        	<unknown>
     242: 00 00        	<unknown>
     244: 10 0c        	<unknown>
     246: 00 00        	<unknown>
     248: 00 00        	<unknown>
     24a: 00 00        	<unknown>
     24c: e4 01        	<unknown>
     24e: 00 00        	<unknown>
     250: 10 0d        	<unknown>
     252: 00 00        	<unknown>
     254: 00 00        	<unknown>
     256: 00 00        	<unknown>
     258: f4 01        	<unknown>
     25a: 00 00        	<unknown>
     25c: 10 0e        	<unknown>
     25e: 00 00        	<unknown>
     260: 00 00        	<unknown>
     262: 00 00        	<unknown>
     264: f8 01        	<unknown>
     266: 00 00        	<unknown>
     268: 17 76 01 00  	auipc	a2, 23
     26c: 00 00        	<unknown>
     26e: 00 00        	<unknown>
     270: f8 01        	<unknown>
     272: 00 00        	<unknown>
     274: 33 00 00 00  	add	zero, zero, zero
     278: 00 00        	<unknown>
     27a: 00 00        	<unknown>
     27c: fc 01        	<unknown>
     27e: 00 00        	<unknown>
     280: 18 0f        	<unknown>
     282: 00 00        	<unknown>
     284: 00 00        	<unknown>
     286: 00 00        	<unknown>
     288: fc 01        	<unknown>
     28a: 00 00        	<unknown>
     28c: 33 00 00 00  	add	zero, zero, zero
     290: 00 00        	<unknown>
     292: 00 00        	<unknown>
     294: 00 02        	<unknown>
     296: 00 00        	<unknown>
     298: 10 10        	<unknown>
     29a: 00 00        	<unknown>
     29c: 00 00        	<unknown>
     29e: 00 00        	<unknown>
     2a0: 04 02        	<unknown>
     2a2: 00 00        	<unknown>
     2a4: 18 0f        	<unknown>
     2a6: 00 00        	<unknown>
     2a8: 00 00        	<unknown>
     2aa: 00 00        	<unknown>
     2ac: 04 02        	<unknown>
     2ae: 00 00        	<unknown>
     2b0: 33 00 00 00  	add	zero, zero, zero
     2b4: 00 00        	<unknown>
     2b6: 00 00        	<unknown>
     2b8: 08 02        	<unknown>
     2ba: 00 00        	<unknown>
     2bc: 1d 77        	<unknown>
     2be: 01 00        	<unknown>
     2c0: 00 00        	<unknown>
     2c2: 00 00        	<unknown>
     2c4: 08 02        	<unknown>
     2c6: 00 00        	<unknown>
     2c8: 33 00 00 00  	add	zero, zero, zero
     2cc: 00 00        	<unknown>
     2ce: 00 00        	<unknown>
     2d0: 0c 02        	<unknown>
     2d2: 00 00        	<unknown>
     2d4: 20 77        	<unknown>
     2d6: 01 00        	<unknown>
     2d8: 00 00        	<unknown>
     2da: 00 00        	<unknown>
     2dc: 0c 02        	<unknown>
     2de: 00 00        	<unknown>
     2e0: 33 00 00 00  	add	zero, zero, zero
     2e4: 00 00        	<unknown>
     2e6: 00 00        	<unknown>
     2e8: 10 02        	<unknown>
     2ea: 00 00        	<unknown>
     2ec: 1f 77 01 00  	<unknown>
     2f0: 00 00        	<unknown>
     2f2: 00 00        	<unknown>
     2f4: 10 02        	<unknown>
     2f6: 00 00        	<unknown>
     2f8: 33 00 00 00  	add	zero, zero, zero
     2fc: 00 00        	<unknown>
     2fe: 00 00        	<unknown>
     300: 18 02        	<unknown>
     302: 00 00        	<unknown>
     304: 1d 63        	<unknown>
     306: 01 00        	<unknown>
     308: 00 00        	<unknown>
     30a: 00 00        	<unknown>
     30c: 18 02        	<unknown>
     30e: 00 00        	<unknown>
     310: 33 00 00 00  	add	zero, zero, zero
     314: 00 00        	<unknown>
     316: 00 00        	<unknown>
     318: 1c 02        	<unknown>
     31a: 00 00        	<unknown>
     31c: 20 63        	<unknown>
     31e: 01 00        	<unknown>
     320: 00 00        	<unknown>
     322: 00 00        	<unknown>
     324: 1c 02        	<unknown>
     326: 00 00        	<unknown>
     328: 33 00 00 00  	add	zero, zero, zero
     32c: 00 00        	<unknown>
     32e: 00 00        	<unknown>
     330: 20 02        	<unknown>
     332: 00 00        	<unknown>
     334: 1e 63        	<unknown>
     336: 01 00        	<unknown>
     338: 00 00        	<unknown>
     33a: 00 00        	<unknown>
     33c: 20 02        	<unknown>
     33e: 00 00        	<unknown>
     340: 33 00 00 00  	add	zero, zero, zero
     344: 00 00        	<unknown>
     346: 00 00        	<unknown>
     348: 30 02        	<unknown>
     34a: 00 00        	<unknown>
     34c: 1d 77        	<unknown>
     34e: 01 00        	<unknown>
     350: 00 00        	<unknown>
     352: 00 00        	<unknown>
     354: 30 02        	<unknown>
     356: 00 00        	<unknown>
     358: 33 00 00 00  	add	zero, zero, zero
     35c: 00 00        	<unknown>
     35e: 00 00        	<unknown>
     360: 34 02        	<unknown>
     362: 00 00        	<unknown>
     364: 20 77        	<unknown>
     366: 01 00        	<unknown>
     368: 00 00        	<unknown>
     36a: 00 00        	<unknown>
     36c: 34 02        	<unknown>
     36e: 00 00        	<unknown>
     370: 33 00 00 00  	add	zero, zero, zero
     374: 00 00        	<unknown>
     376: 00 00        	<unknown>
     378: 38 02        	<unknown>
     37a: 00 00        	<unknown>
     37c: 1f 77 01 00  	<unknown>
     380: 00 00        	<unknown>
     382: 00 00        	<unknown>
     384: 38 02        	<unknown>
     386: 00 00        	<unknown>
     388: 33 00 00 00  	add	zero, zero, zero
     38c: 00 00        	<unknown>
     38e: 00 00        	<unknown>
     390: cc 02        	<unknown>
     392: 00 00        	<unknown>
     394: 1e 77        	<unknown>
     396: 01 00        	<unknown>
     398: 00 00        	<unknown>
     39a: 00 00        	<unknown>
     39c: cc 02        	<unknown>
     39e: 00 00        	<unknown>
     3a0: 33 00 00 00  	add	zero, zero, zero
     3a4: 00 00        	<unknown>
     3a6: 00 00        	<unknown>
     3a8: d0 02        	<unknown>
     3aa: 00 00        	<unknown>
     3ac: 17 76 01 00  	auipc	a2, 23
     3b0: 00 00        	<unknown>
     3b2: 00 00        	<unknown>
     3b4: d0 02        	<unknown>
     3b6: 00 00        	<unknown>
     3b8: 33 00 00 00  	add	zero, zero, zero
     3bc: 00 00        	<unknown>
     3be: 00 00        	<unknown>
     3c0: d4 02        	<unknown>
     3c2: 00 00        	<unknown>
     3c4: 19 11        	<unknown>
     3c6: 00 00        	<unknown>
     3c8: 00 00        	<unknown>
     3ca: 00 00        	<unknown>
     3cc: d4 02        	<unknown>
     3ce: 00 00        	<unknown>
     3d0: 33 00 00 00  	add	zero, zero, zero
     3d4: 00 00        	<unknown>
     3d6: 00 00        	<unknown>
     3d8: f0 02        	<unknown>
     3da: 00 00        	<unknown>
     3dc: 1d 77        	<unknown>
     3de: 01 00        	<unknown>
     3e0: 00 00        	<unknown>
     3e2: 00 00        	<unknown>
     3e4: f0 02        	<unknown>
     3e6: 00 00        	<unknown>
     3e8: 33 00 00 00  	add	zero, zero, zero
     3ec: 00 00        	<unknown>
     3ee: 00 00        	<unknown>
     3f0: f4 02        	<unknown>
     3f2: 00 00        	<unknown>
     3f4: 20 77        	<unknown>
     3f6: 01 00        	<unknown>
     3f8: 00 00        	<unknown>
     3fa: 00 00        	<unknown>
     3fc: f4 02        	<unknown>
     3fe: 00 00        	<unknown>
     400: 33 00 00 00  	add	zero, zero, zero
     404: 00 00        	<unknown>
     406: 00 00        	<unknown>
     408: f8 02        	<unknown>
     40a: 00 00        	<unknown>
     40c: 1e 77        	<unknown>
     40e: 01 00        	<unknown>
     410: 00 00        	<unknown>
     412: 00 00        	<unknown>
     414: f8 02        	<unknown>
     416: 00 00        	<unknown>
     418: 33 00 00 00  	add	zero, zero, zero
     41c: 00 00        	<unknown>
     41e: 00 00        	<unknown>
     420: 08 03        	<unknown>
     422: 00 00        	<unknown>
     424: 10 12        	<unknown>
     426: 00 00        	<unknown>
     428: 00 00        	<unknown>
     42a: 00 00        	<unknown>
     42c: 10 03        	<unknown>
     42e: 00 00        	<unknown>
     430: 10 12        	<unknown>
     432: 00 00        	<unknown>
     434: 00 00        	<unknown>
     436: 00 00        	<unknown>
     438: 1c 03        	<unknown>
     43a: 00 00        	<unknown>
     43c: 10 13        	<unknown>
     43e: 00 00        	<unknown>
     440: 00 00        	<unknown>
     442: 00 00        	<unknown>
     444: 24 03        	<unknown>
     446: 00 00        	<unknown>
     448: 10 14        	<unknown>
     44a: 00 00        	<unknown>
     44c: 00 00        	<unknown>
     44e: 00 00        	<unknown>
     450: 2c 03        	<unknown>
     452: 00 00        	<unknown>
     454: 10 16        	<unknown>
     456: 00 00        	<unknown>
     458: 00 00        	<unknown>
     45a: 00 00        	<unknown>
     45c: 30 03        	<unknown>
     45e: 00 00        	<unknown>
     460: 11 17        	<unknown>
     462: 00 00        	<unknown>
     464: 00 00        	<unknown>
     466: 00 00        	<unknown>
     468: 3c 03        	<unknown>
     46a: 00 00        	<unknown>
     46c: 10 18        	<unknown>
     46e: 00 00        	<unknown>
     470: 00 00        	<unknown>
     472: 00 00        	<unknown>
     474: 68 03        	<unknown>
     476: 00 00        	<unknown>
     478: 10 15        	<unknown>
     47a: 00 00        	<unknown>
     47c: 00 00        	<unknown>
     47e: 00 00        	<unknown>
     480: 78 03        	<unknown>
     482: 00 00        	<unknown>
     484: 1e 77        	<unknown>
     486: 01 00        	<unknown>
     488: 00 00        	<unknown>
     48a: 00 00        	<unknown>
     48c: 78 03        	<unknown>
     48e: 00 00        	<unknown>
     490: 33 00 00 00  	add	zero, zero, zero
     494: 00 00        	<unknown>
     496: 00 00        	<unknown>
     498: 88 03        	<unknown>
     49a: 00 00        	<unknown>
     49c: 10 17        	<unknown>
     49e: 00 00        	<unknown>
     4a0: 00 00        	<unknown>
     4a2: 00 00        	<unknown>
     4a4: 94 03        	<unknown>
     4a6: 00 00        	<unknown>
     4a8: 10 19        	<unknown>
     4aa: 00 00        	<unknown>
     4ac: 00 00        	<unknown>
     4ae: 00 00        	<unknown>
     4b0: a4 03        	<unknown>
     4b2: 00 00        	<unknown>
     4b4: 10 1a        	<unknown>
     4b6: 00 00        	<unknown>
     4b8: 00 00        	<unknown>
     4ba: 00 00        	<unknown>
     4bc: b8 03        	<unknown>
     4be: 00 00        	<unknown>
     4c0: 10 1b        	<unknown>
     4c2: 00 00        	<unknown>
     4c4: 00 00        	<unknown>
     4c6: 00 00        	<unknown>
     4c8: f8 03        	<unknown>
     4ca: 00 00        	<unknown>
     4cc: 1d 77        	<unknown>
     4ce: 01 00        	<unknown>
     4d0: 00 00        	<unknown>
     4d2: 00 00        	<unknown>
     4d4: f8 03        	<unknown>
     4d6: 00 00        	<unknown>
     4d8: 33 00 00 00  	add	zero, zero, zero
     4dc: 00 00        	<unknown>
     4de: 00 00        	<unknown>
     4e0: fc 03        	<unknown>
     4e2: 00 00        	<unknown>
     4e4: 20 77        	<unknown>
     4e6: 01 00        	<unknown>
     4e8: 00 00        	<unknown>
     4ea: 00 00        	<unknown>
     4ec: fc 03        	<unknown>
     4ee: 00 00        	<unknown>
     4f0: 33 00 00 00  	add	zero, zero, zero
     4f4: 00 00        	<unknown>
     4f6: 00 00        	<unknown>
     4f8: 00 04        	<unknown>
     4fa: 00 00        	<unknown>
     4fc: 1e 77        	<unknown>
     4fe: 01 00        	<unknown>
     500: 00 00        	<unknown>
     502: 00 00        	<unknown>
     504: 00 04        	<unknown>
     506: 00 00        	<unknown>
     508: 33 00 00 00  	add	zero, zero, zero
     50c: 00 00        	<unknown>
     50e: 00 00        	<unknown>
     510: 0c 04        	<unknown>
     512: 00 00        	<unknown>
     514: 1d 77        	<unknown>
     516: 01 00        	<unknown>
     518: 00 00        	<unknown>
     51a: 00 00        	<unknown>
     51c: 0c 04        	<unknown>
     51e: 00 00        	<unknown>
     520: 33 00 00 00  	add	zero, zero, zero
     524: 00 00        	<unknown>
     526: 00 00        	<unknown>
     528: 10 04        	<unknown>
     52a: 00 00        	<unknown>
     52c: 20 77        	<unknown>
     52e: 01 00        	<unknown>
     530: 00 00        	<unknown>
     532: 00 00        	<unknown>
     534: 10 04        	<unknown>
     536: 00 00        	<unknown>
     538: 33 00 00 00  	add	zero, zero, zero
     53c: 00 00        	<unknown>
     53e: 00 00        	<unknown>
     540: 14 04        	<unknown>
     542: 00 00        	<unknown>
     544: 1e 77        	<unknown>
     546: 01 00        	<unknown>
     548: 00 00        	<unknown>
     54a: 00 00        	<unknown>
     54c: 14 04        	<unknown>
     54e: 00 00        	<unknown>
     550: 33 00 00 00  	add	zero, zero, zero
     554: 00 00        	<unknown>
     556: 00 00        	<unknown>
     558: 44 04        	<unknown>
     55a: 00 00        	<unknown>
     55c: 1d 77        	<unknown>
     55e: 01 00        	<unknown>
     560: 00 00        	<unknown>
     562: 00 00        	<unknown>
     564: 44 04        	<unknown>
     566: 00 00        	<unknown>
     568: 33 00 00 00  	add	zero, zero, zero
     56c: 00 00        	<unknown>
     56e: 00 00        	<unknown>
     570: 48 04        	<unknown>
     572: 00 00        	<unknown>
     574: 20 77        	<unknown>
     576: 01 00        	<unknown>
     578: 00 00        	<unknown>
     57a: 00 00        	<unknown>
     57c: 48 04        	<unknown>
     57e: 00 00        	<unknown>
     580: 33 00 00 00  	add	zero, zero, zero
     584: 00 00        	<unknown>
     586: 00 00        	<unknown>
     588: 4c 04        	<unknown>
     58a: 00 00        	<unknown>
     58c: 1e 77        	<unknown>
     58e: 01 00        	<unknown>
     590: 00 00        	<unknown>
     592: 00 00        	<unknown>
     594: 4c 04        	<unknown>
     596: 00 00        	<unknown>
     598: 33 00 00 00  	add	zero, zero, zero
     59c: 00 00        	<unknown>
     59e: 00 00        	<unknown>
     5a0: 60 04        	<unknown>
     5a2: 00 00        	<unknown>
     5a4: 1e 77        	<unknown>
     5a6: 01 00        	<unknown>
     5a8: 00 00        	<unknown>
     5aa: 00 00        	<unknown>
     5ac: 60 04        	<unknown>
     5ae: 00 00        	<unknown>
     5b0: 33 00 00 00  	add	zero, zero, zero
     5b4: 00 00        	<unknown>
     5b6: 00 00        	<unknown>
     5b8: 68 04        	<unknown>
     5ba: 00 00        	<unknown>
     5bc: 10 1c        	<unknown>
     5be: 00 00        	<unknown>
     5c0: 00 00        	<unknown>
     5c2: 00 00        	<unknown>
     5c4: 9c 04        	<unknown>
     5c6: 00 00        	<unknown>
     5c8: 1e 77        	<unknown>
     5ca: 01 00        	<unknown>
     5cc: 00 00        	<unknown>
     5ce: 00 00        	<unknown>
     5d0: 9c 04        	<unknown>
     5d2: 00 00        	<unknown>
     5d4: 33 00 00 00  	add	zero, zero, zero
     5d8: 00 00        	<unknown>
     5da: 00 00        	<unknown>
     5dc: ac 04        	<unknown>
     5de: 00 00        	<unknown>
     5e0: 11 1e        	<unknown>
     5e2: 00 00        	<unknown>
     5e4: 00 00        	<unknown>
     5e6: 00 00        	<unknown>
     5e8: e0 04        	<unknown>
     5ea: 00 00        	<unknown>
     5ec: 10 1d        	<unknown>
     5ee: 00 00        	<unknown>
     5f0: 00 00        	<unknown>
     5f2: 00 00        	<unknown>
     5f4: e8 04        	<unknown>
     5f6: 00 00        	<unknown>
     5f8: 10 1f        	<unknown>
     5fa: 00 00        	<unknown>
     5fc: 00 00        	<unknown>
     5fe: 00 00        	<unknown>
     600: 04 05        	<unknown>
     602: 00 00        	<unknown>
     604: 11 1f        	<unknown>
     606: 00 00        	<unknown>
     608: 00 00        	<unknown>
     60a: 00 00        	<unknown>
     60c: 08 05        	<unknown>
     60e: 00 00        	<unknown>
     610: 1d 77        	<unknown>
     612: 01 00        	<unknown>
     614: 00 00        	<unknown>
     616: 00 00        	<unknown>
     618: 08 05        	<unknown>
     61a: 00 00        	<unknown>
     61c: 33 00 00 00  	add	zero, zero, zero
     620: 00 00        	<unknown>
     622: 00 00        	<unknown>
     624: 0c 05        	<unknown>
     626: 00 00        	<unknown>
     628: 20 77        	<unknown>
     62a: 01 00        	<unknown>
     62c: 00 00        	<unknown>
     62e: 00 00        	<unknown>
     630: 0c 05        	<unknown>
     632: 00 00        	<unknown>
     634: 33 00 00 00  	add	zero, zero, zero
     638: 00 00        	<unknown>
     63a: 00 00        	<unknown>
     63c: 10 05        	<unknown>
     63e: 00 00        	<unknown>
     640: 1e 77        	<unknown>
     642: 01 00        	<unknown>
     644: 00 00        	<unknown>
     646: 00 00        	<unknown>
     648: 10 05        	<unknown>
     64a: 00 00        	<unknown>
     64c: 33 00 00 00  	add	zero, zero, zero
     650: 00 00        	<unknown>
     652: 00 00        	<unknown>
     654: 18 05        	<unknown>
     656: 00 00        	<unknown>
     658: 1e 77        	<unknown>
     65a: 01 00        	<unknown>
     65c: 00 00        	<unknown>
     65e: 00 00        	<unknown>
     660: 18 05        	<unknown>
     662: 00 00        	<unknown>
     664: 33 00 00 00  	add	zero, zero, zero
     668: 00 00        	<unknown>
     66a: 00 00        	<unknown>
     66c: 20 05        	<unknown>
     66e: 00 00        	<unknown>
     670: 10 20        	<unknown>
     672: 00 00        	<unknown>
     674: 00 00        	<unknown>
     676: 00 00        	<unknown>
     678: 54 05        	<unknown>
     67a: 00 00        	<unknown>
     67c: 1d 77        	<unknown>
     67e: 01 00        	<unknown>
     680: 00 00        	<unknown>
     682: 00 00        	<unknown>
     684: 54 05        	<unknown>
     686: 00 00        	<unknown>
     688: 33 00 00 00  	add	zero, zero, zero
     68c: 00 00        	<unknown>
     68e: 00 00        	<unknown>
     690: 58 05        	<unknown>
     692: 00 00        	<unknown>
     694: 20 77        	<unknown>
     696: 01 00        	<unknown>
     698: 00 00        	<unknown>
     69a: 00 00        	<unknown>
     69c: 58 05        	<unknown>
     69e: 00 00        	<unknown>
     6a0: 33 00 00 00  	add	zero, zero, zero
     6a4: 00 00        	<unknown>
     6a6: 00 00        	<unknown>
     6a8: 5c 05        	<unknown>
     6aa: 00 00        	<unknown>
     6ac: 1e 77        	<unknown>
     6ae: 01 00        	<unknown>
     6b0: 00 00        	<unknown>
     6b2: 00 00        	<unknown>
     6b4: 5c 05        	<unknown>
     6b6: 00 00        	<unknown>
     6b8: 33 00 00 00  	add	zero, zero, zero
     6bc: 00 00        	<unknown>
     6be: 00 00        	<unknown>
     6c0: 64 05        	<unknown>
     6c2: 00 00        	<unknown>
     6c4: 10 21        	<unknown>
     6c6: 00 00        	<unknown>
     6c8: 00 00        	<unknown>
     6ca: 00 00        	<unknown>
     6cc: 70 05        	<unknown>
     6ce: 00 00        	<unknown>
     6d0: 10 22        	<unknown>
     6d2: 00 00        	<unknown>
     6d4: 00 00        	<unknown>
     6d6: 00 00        	<unknown>
     6d8: 78 05        	<unknown>
     6da: 00 00        	<unknown>
     6dc: 10 23        	<unknown>
     6de: 00 00        	<unknown>
     6e0: 00 00        	<unknown>
     6e2: 00 00        	<unknown>
     6e4: 80 05        	<unknown>
     6e6: 00 00        	<unknown>
     6e8: 10 25        	<unknown>
     6ea: 00 00        	<unknown>
     6ec: 00 00        	<unknown>
     6ee: 00 00        	<unknown>
     6f0: 84 05        	<unknown>
     6f2: 00 00        	<unknown>
     6f4: 11 26        	<unknown>
     6f6: 00 00        	<unknown>
     6f8: 00 00        	<unknown>
     6fa: 00 00        	<unknown>
     6fc: 90 05        	<unknown>
     6fe: 00 00        	<unknown>
     700: 10 27        	<unknown>
     702: 00 00        	<unknown>
     704: 00 00        	<unknown>
     706: 00 00        	<unknown>
     708: bc 05        	<unknown>
     70a: 00 00        	<unknown>
     70c: 10 24        	<unknown>
     70e: 00 00        	<unknown>
     710: 00 00        	<unknown>
     712: 00 00        	<unknown>
     714: cc 05        	<unknown>
     716: 00 00        	<unknown>
     718: 1e 77        	<unknown>
     71a: 01 00        	<unknown>
     71c: 00 00        	<unknown>
     71e: 00 00        	<unknown>
     720: cc 05        	<unknown>
     722: 00 00        	<unknown>
     724: 33 00 00 00  	add	zero, zero, zero
     728: 00 00        	<unknown>
     72a: 00 00        	<unknown>
     72c: dc 05        	<unknown>
     72e: 00 00        	<unknown>
     730: 10 26        	<unknown>
     732: 00 00        	<unknown>
     734: 00 00        	<unknown>
     736: 00 00        	<unknown>
     738: e8 05        	<unknown>
     73a: 00 00        	<unknown>
     73c: 10 28        	<unknown>
     73e: 00 00        	<unknown>
     740: 00 00        	<unknown>
     742: 00 00        	<unknown>
     744: 04 06        	<unknown>
     746: 00 00        	<unknown>
     748: 1d 77        	<unknown>
     74a: 01 00        	<unknown>
     74c: 00 00        	<unknown>
     74e: 00 00        	<unknown>
     750: 04 06        	<unknown>
     752: 00 00        	<unknown>
     754: 33 00 00 00  	add	zero, zero, zero
     758: 00 00        	<unknown>
     75a: 00 00        	<unknown>
     75c: 08 06        	<unknown>
     75e: 00 00        	<unknown>
     760: 20 77        	<unknown>
     762: 01 00        	<unknown>
     764: 00 00        	<unknown>
     766: 00 00        	<unknown>
     768: 08 06        	<unknown>
     76a: 00 00        	<unknown>
     76c: 33 00 00 00  	add	zero, zero, zero
     770: 00 00        	<unknown>
     772: 00 00        	<unknown>
     774: 0c 06        	<unknown>
     776: 00 00        	<unknown>
     778: 1e 77        	<unknown>
     77a: 01 00        	<unknown>
     77c: 00 00        	<unknown>
     77e: 00 00        	<unknown>
     780: 0c 06        	<unknown>
     782: 00 00        	<unknown>
     784: 33 00 00 00  	add	zero, zero, zero
     788: 00 00        	<unknown>
     78a: 00 00        	<unknown>
     78c: 1c 06        	<unknown>
     78e: 00 00        	<unknown>
     790: 10 29        	<unknown>
     792: 00 00        	<unknown>
     794: 00 00        	<unknown>
     796: 00 00        	<unknown>
     798: 24 06        	<unknown>
     79a: 00 00        	<unknown>
     79c: 1d 77        	<unknown>
     79e: 01 00        	<unknown>
     7a0: 00 00        	<unknown>
     7a2: 00 00        	<unknown>
     7a4: 24 06        	<unknown>
     7a6: 00 00        	<unknown>
     7a8: 33 00 00 00  	add	zero, zero, zero
     7ac: 00 00        	<unknown>
     7ae: 00 00        	<unknown>
     7b0: 28 06        	<unknown>
     7b2: 00 00        	<unknown>
     7b4: 20 77        	<unknown>
     7b6: 01 00        	<unknown>
     7b8: 00 00        	<unknown>
     7ba: 00 00        	<unknown>
     7bc: 28 06        	<unknown>
     7be: 00 00        	<unknown>
     7c0: 33 00 00 00  	add	zero, zero, zero
     7c4: 00 00        	<unknown>
     7c6: 00 00        	<unknown>
     7c8: 2c 06        	<unknown>
     7ca: 00 00        	<unknown>
     7cc: 1e 77        	<unknown>
     7ce: 01 00        	<unknown>
     7d0: 00 00        	<unknown>
     7d2: 00 00        	<unknown>
     7d4: 2c 06        	<unknown>
     7d6: 00 00        	<unknown>
     7d8: 33 00 00 00  	add	zero, zero, zero
     7dc: 00 00        	<unknown>
     7de: 00 00        	<unknown>
     7e0: 3c 06        	<unknown>
     7e2: 00 00        	<unknown>
     7e4: 17 82 01 00  	auipc	tp, 24
     7e8: 00 00        	<unknown>
     7ea: 00 00        	<unknown>
     7ec: 3c 06        	<unknown>
     7ee: 00 00        	<unknown>
     7f0: 33 00 00 00  	add	zero, zero, zero
     7f4: 00 00        	<unknown>
     7f6: 00 00        	<unknown>
     7f8: 40 06        	<unknown>
     7fa: 00 00        	<unknown>
     7fc: 18 2a        	<unknown>
     7fe: 00 00        	<unknown>
     800: 00 00        	<unknown>
     802: 00 00        	<unknown>
     804: 40 06        	<unknown>
     806: 00 00        	<unknown>
     808: 33 00 00 00  	add	zero, zero, zero
     80c: 00 00        	<unknown>
     80e: 00 00        	<unknown>
     810: 50 06        	<unknown>
     812: 00 00        	<unknown>
     814: 10 2b        	<unknown>
     816: 00 00        	<unknown>
     818: 00 00        	<unknown>
     81a: 00 00        	<unknown>
     81c: 5c 06        	<unknown>
     81e: 00 00        	<unknown>
     820: 10 2c        	<unknown>
     822: 00 00        	<unknown>
     824: 00 00        	<unknown>
     826: 00 00        	<unknown>
     828: 68 06        	<unknown>
     82a: 00 00        	<unknown>
     82c: 10 2d        	<unknown>
     82e: 00 00        	<unknown>
     830: 00 00        	<unknown>
     832: 00 00        	<unknown>
     834: 98 06        	<unknown>
     836: 00 00        	<unknown>
     838: 10 2e        	<unknown>
     83a: 00 00        	<unknown>
     83c: 00 00        	<unknown>
     83e: 00 00        	<unknown>
     840: 9c 06        	<unknown>
     842: 00 00        	<unknown>
     844: 17 88 01 00  	auipc	a6, 24
     848: 00 00        	<unknown>
     84a: 00 00        	<unknown>
     84c: 9c 06        	<unknown>
     84e: 00 00        	<unknown>
     850: 33 00 00 00  	add	zero, zero, zero
     854: 00 00        	<unknown>
     856: 00 00        	<unknown>
     858: a0 06        	<unknown>
     85a: 00 00        	<unknown>
     85c: 18 2f        	<unknown>
     85e: 00 00        	<unknown>
     860: 00 00        	<unknown>
     862: 00 00        	<unknown>
     864: a0 06        	<unknown>
     866: 00 00        	<unknown>
     868: 33 00 00 00  	add	zero, zero, zero
     86c: 00 00        	<unknown>
     86e: 00 00        	<unknown>
     870: b0 06        	<unknown>
     872: 00 00        	<unknown>
     874: 10 30        	<unknown>
     876: 00 00        	<unknown>
     878: 00 00        	<unknown>
     87a: 00 00        	<unknown>
     87c: b8 06        	<unknown>
     87e: 00 00        	<unknown>
     880: 10 31        	<unknown>
     882: 00 00        	<unknown>
     884: 00 00        	<unknown>
     886: 00 00        	<unknown>
     888: e8 06        	<unknown>
     88a: 00 00        	<unknown>
     88c: 10 32        	<unknown>
     88e: 00 00        	<unknown>
     890: 00 00        	<unknown>
     892: 00 00        	<unknown>
     894: 00 07        	<unknown>
     896: 00 00        	<unknown>
     898: 10 32        	<unknown>
     89a: 00 00        	<unknown>
     89c: 00 00        	<unknown>
     89e: 00 00        	<unknown>
     8a0: 1c 07        	<unknown>
     8a2: 00 00        	<unknown>
     8a4: 10 33        	<unknown>
     8a6: 00 00        	<unknown>
     8a8: 00 00        	<unknown>
     8aa: 00 00        	<unknown>
     8ac: 24 07        	<unknown>
     8ae: 00 00        	<unknown>
     8b0: 10 34        	<unknown>
     8b2: 00 00        	<unknown>
     8b4: 00 00        	<unknown>
     8b6: 00 00        	<unknown>
     8b8: 44 07        	<unknown>
     8ba: 00 00        	<unknown>
     8bc: 10 35        	<unknown>
     8be: 00 00        	<unknown>
     8c0: 00 00        	<unknown>
     8c2: 00 00        	<unknown>
     8c4: 50 07        	<unknown>
     8c6: 00 00        	<unknown>
     8c8: 17 8c 01 00  	auipc	s8, 24
     8cc: 00 00        	<unknown>
     8ce: 00 00        	<unknown>
     8d0: 50 07        	<unknown>
     8d2: 00 00        	<unknown>
     8d4: 33 00 00 00  	add	zero, zero, zero
     8d8: 00 00        	<unknown>
     8da: 00 00        	<unknown>
     8dc: 54 07        	<unknown>
     8de: 00 00        	<unknown>
     8e0: 18 36        	<unknown>
     8e2: 00 00        	<unknown>
     8e4: 00 00        	<unknown>
     8e6: 00 00        	<unknown>
     8e8: 54 07        	<unknown>
     8ea: 00 00        	<unknown>
     8ec: 33 00 00 00  	add	zero, zero, zero
     8f0: 00 00        	<unknown>
     8f2: 00 00        	<unknown>
     8f4: 74 07        	<unknown>
     8f6: 00 00        	<unknown>
     8f8: 10 37        	<unknown>
     8fa: 00 00        	<unknown>
     8fc: 00 00        	<unknown>
     8fe: 00 00        	<unknown>
     900: 78 07        	<unknown>
     902: 00 00        	<unknown>
     904: 17 88 01 00  	auipc	a6, 24
     908: 00 00        	<unknown>
     90a: 00 00        	<unknown>
     90c: 78 07        	<unknown>
     90e: 00 00        	<unknown>
     910: 33 00 00 00  	add	zero, zero, zero
     914: 00 00        	<unknown>
     916: 00 00        	<unknown>
     918: 7c 07        	<unknown>
     91a: 00 00        	<unknown>
     91c: 18 38        	<unknown>
     91e: 00 00        	<unknown>
     920: 00 00        	<unknown>
     922: 00 00        	<unknown>
     924: 7c 07        	<unknown>
     926: 00 00        	<unknown>
     928: 33 00 00 00  	add	zero, zero, zero
     92c: 00 00        	<unknown>
     92e: 00 00        	<unknown>
     930: 8c 07        	<unknown>
     932: 00 00        	<unknown>
     934: 10 39        	<unknown>
     936: 00 00        	<unknown>
     938: 00 00        	<unknown>
     93a: 00 00        	<unknown>
     93c: 94 07        	<unknown>
     93e: 00 00        	<unknown>
     940: 10 3a        	<unknown>
     942: 00 00        	<unknown>
     944: 00 00        	<unknown>
     946: 00 00        	<unknown>
     948: 98 08        	<unknown>
     94a: 00 00        	<unknown>
     94c: 17 3c 00 00  	auipc	s8, 3
     950: 00 00        	<unknown>
     952: 00 00        	<unknown>
     954: 98 08        	<unknown>
     956: 00 00        	<unknown>
     958: 33 00 00 00  	add	zero, zero, zero
     95c: 00 00        	<unknown>
     95e: 00 00        	<unknown>
     960: 9c 08        	<unknown>
     962: 00 00        	<unknown>
     964: 18 3b        	<unknown>
     966: 00 00        	<unknown>
     968: 00 00        	<unknown>
     96a: 00 00        	<unknown>
     96c: 9c 08        	<unknown>
     96e: 00 00        	<unknown>
     970: 33 00 00 00  	add	zero, zero, zero
     974: 00 00        	<unknown>
     976: 00 00        	<unknown>
     978: b0 08        	<unknown>
     97a: 00 00        	<unknown>
     97c: 13 3d 00 00  	sltiu	s10, zero, 0
     980: 00 00        	<unknown>
     982: 00 00        	<unknown>
     984: b0 08        	<unknown>
     986: 00 00        	<unknown>
     988: 33 00 00 00  	add	zero, zero, zero
     98c: 00 00        	<unknown>
     98e: 00 00        	<unknown>
     990: 0c 09        	<unknown>
     992: 00 00        	<unknown>
     994: 10 3e        	<unknown>
     996: 00 00        	<unknown>
     998: 00 00        	<unknown>
     99a: 00 00        	<unknown>
     99c: 14 09        	<unknown>
     99e: 00 00        	<unknown>
     9a0: 11 3f        	<unknown>
     9a2: 00 00        	<unknown>
     9a4: 00 00        	<unknown>
     9a6: 00 00        	<unknown>
     9a8: 18 09        	<unknown>
     9aa: 00 00        	<unknown>
     9ac: 17 41 00 00  	auipc	sp, 4
     9b0: 00 00        	<unknown>
     9b2: 00 00        	<unknown>
     9b4: 18 09        	<unknown>
     9b6: 00 00        	<unknown>
     9b8: 33 00 00 00  	add	zero, zero, zero
     9bc: 00 00        	<unknown>
     9be: 00 00        	<unknown>
     9c0: 1c 09        	<unknown>
     9c2: 00 00        	<unknown>
     9c4: 18 40        	<unknown>
     9c6: 00 00        	<unknown>
     9c8: 00 00        	<unknown>
     9ca: 00 00        	<unknown>
     9cc: 1c 09        	<unknown>
     9ce: 00 00        	<unknown>
     9d0: 33 00 00 00  	add	zero, zero, zero
     9d4: 00 00        	<unknown>
     9d6: 00 00        	<unknown>
     9d8: 48 09        	<unknown>
     9da: 00 00        	<unknown>
     9dc: 10 43        	<unknown>
     9de: 00 00        	<unknown>
     9e0: 00 00        	<unknown>
     9e2: 00 00        	<unknown>
     9e4: 4c 09        	<unknown>
     9e6: 00 00        	<unknown>
     9e8: 10 45        	<unknown>
     9ea: 00 00        	<unknown>
     9ec: 00 00        	<unknown>
     9ee: 00 00        	<unknown>
     9f0: 74 09        	<unknown>
     9f2: 00 00        	<unknown>
     9f4: 10 44        	<unknown>
     9f6: 00 00        	<unknown>
     9f8: 00 00        	<unknown>
     9fa: 00 00        	<unknown>
     9fc: 78 09        	<unknown>
     9fe: 00 00        	<unknown>
     a00: 11 43        	<unknown>
     a02: 00 00        	<unknown>
     a04: 00 00        	<unknown>
     a06: 00 00        	<unknown>
     a08: 80 09        	<unknown>
     a0a: 00 00        	<unknown>
     a0c: 11 46        	<unknown>
     a0e: 00 00        	<unknown>
     a10: 00 00        	<unknown>
     a12: 00 00        	<unknown>
     a14: 98 09        	<unknown>
     a16: 00 00        	<unknown>
     a18: 10 49        	<unknown>
     a1a: 00 00        	<unknown>
     a1c: 00 00        	<unknown>
     a1e: 00 00        	<unknown>
     a20: a0 09        	<unknown>
     a22: 00 00        	<unknown>
     a24: 17 4b 00 00  	auipc	s6, 4
     a28: 00 00        	<unknown>
     a2a: 00 00        	<unknown>
     a2c: a0 09        	<unknown>
     a2e: 00 00        	<unknown>
     a30: 33 00 00 00  	add	zero, zero, zero
     a34: 00 00        	<unknown>
     a36: 00 00        	<unknown>
     a38: a4 09        	<unknown>
     a3a: 00 00        	<unknown>
     a3c: 18 4a        	<unknown>
     a3e: 00 00        	<unknown>
     a40: 00 00        	<unknown>
     a42: 00 00        	<unknown>
     a44: a4 09        	<unknown>
     a46: 00 00        	<unknown>
     a48: 33 00 00 00  	add	zero, zero, zero
     a4c: 00 00        	<unknown>
     a4e: 00 00        	<unknown>
     a50: bc 09        	<unknown>
     a52: 00 00        	<unknown>
     a54: 11 48        	<unknown>
     a56: 00 00        	<unknown>
     a58: 00 00        	<unknown>
     a5a: 00 00        	<unknown>
     a5c: c4 09        	<unknown>
     a5e: 00 00        	<unknown>
     a60: 11 48        	<unknown>
     a62: 00 00        	<unknown>
     a64: 00 00        	<unknown>
     a66: 00 00        	<unknown>
     a68: cc 09        	<unknown>
     a6a: 00 00        	<unknown>
     a6c: 11 48        	<unknown>
     a6e: 00 00        	<unknown>
     a70: 00 00        	<unknown>
     a72: 00 00        	<unknown>
     a74: dc 09        	<unknown>
     a76: 00 00        	<unknown>
     a78: 10 4f        	<unknown>
     a7a: 00 00        	<unknown>
     a7c: 00 00        	<unknown>
     a7e: 00 00        	<unknown>
     a80: 04 0a        	<unknown>
     a82: 00 00        	<unknown>
     a84: 10 50        	<unknown>
     a86: 00 00        	<unknown>
     a88: 00 00        	<unknown>
     a8a: 00 00        	<unknown>
     a8c: 0c 0a        	<unknown>
     a8e: 00 00        	<unknown>
     a90: 10 51        	<unknown>
     a92: 00 00        	<unknown>
     a94: 00 00        	<unknown>
     a96: 00 00        	<unknown>
     a98: 24 0a        	<unknown>
     a9a: 00 00        	<unknown>
     a9c: 10 53        	<unknown>
     a9e: 00 00        	<unknown>
     aa0: 00 00        	<unknown>
     aa2: 00 00        	<unknown>
     aa4: 4c 0a        	<unknown>
     aa6: 00 00        	<unknown>
     aa8: 10 54        	<unknown>
     aaa: 00 00        	<unknown>
     aac: 00 00        	<unknown>
     aae: 00 00        	<unknown>
     ab0: 50 0a        	<unknown>
     ab2: 00 00        	<unknown>
     ab4: 11 55        	<unknown>
     ab6: 00 00        	<unknown>
     ab8: 00 00        	<unknown>
     aba: 00 00        	<unknown>
     abc: 58 0a        	<unknown>
     abe: 00 00        	<unknown>
     ac0: 10 56        	<unknown>
     ac2: 00 00        	<unknown>
     ac4: 00 00        	<unknown>
     ac6: 00 00        	<unknown>
     ac8: 90 0a        	<unknown>
     aca: 00 00        	<unknown>
     acc: 10 51        	<unknown>
     ace: 00 00        	<unknown>
     ad0: 00 00        	<unknown>
     ad2: 00 00        	<unknown>
     ad4: 94 0a        	<unknown>
     ad6: 00 00        	<unknown>
     ad8: 11 52        	<unknown>
     ada: 00 00        	<unknown>
     adc: 00 00        	<unknown>
     ade: 00 00        	<unknown>
     ae0: 9c 0a        	<unknown>
     ae2: 00 00        	<unknown>
     ae4: 10 57        	<unknown>
     ae6: 00 00        	<unknown>
     ae8: 00 00        	<unknown>
     aea: 00 00        	<unknown>
     aec: c4 0a        	<unknown>
     aee: 00 00        	<unknown>
     af0: 11 58        	<unknown>
     af2: 00 00        	<unknown>
     af4: 00 00        	<unknown>
     af6: 00 00        	<unknown>
     af8: d0 0a        	<unknown>
     afa: 00 00        	<unknown>
     afc: 10 52        	<unknown>
     afe: 00 00        	<unknown>
     b00: 00 00        	<unknown>
     b02: 00 00        	<unknown>
     b04: d8 0a        	<unknown>
     b06: 00 00        	<unknown>
     b08: 11 58        	<unknown>
     b0a: 00 00        	<unknown>
     b0c: 00 00        	<unknown>
     b0e: 00 00        	<unknown>
     b10: f4 0a        	<unknown>
     b12: 00 00        	<unknown>
     b14: 10 59        	<unknown>
     b16: 00 00        	<unknown>
     b18: 00 00        	<unknown>
     b1a: 00 00        	<unknown>
     b1c: fc 0a        	<unknown>
     b1e: 00 00        	<unknown>
     b20: 17 5b 00 00  	auipc	s6, 5
     b24: 00 00        	<unknown>
     b26: 00 00        	<unknown>
     b28: fc 0a        	<unknown>
     b2a: 00 00        	<unknown>
     b2c: 33 00 00 00  	add	zero, zero, zero
     b30: 00 00        	<unknown>
     b32: 00 00        	<unknown>
     b34: 00 0b        	<unknown>
     b36: 00 00        	<unknown>
     b38: 18 5a        	<unknown>
     b3a: 00 00        	<unknown>
     b3c: 00 00        	<unknown>
     b3e: 00 00        	<unknown>
     b40: 00 0b        	<unknown>
     b42: 00 00        	<unknown>
     b44: 33 00 00 00  	add	zero, zero, zero
     b48: 00 00        	<unknown>
     b4a: 00 00        	<unknown>
     b4c: 20 0b        	<unknown>
     b4e: 00 00        	<unknown>
     b50: 10 5d        	<unknown>
     b52: 00 00        	<unknown>
     b54: 00 00        	<unknown>
     b56: 00 00        	<unknown>
     b58: 2c 0b        	<unknown>
     b5a: 00 00        	<unknown>
     b5c: 11 5e        	<unknown>
     b5e: 00 00        	<unknown>
     b60: 00 00        	<unknown>
     b62: 00 00        	<unknown>
     b64: 34 0b        	<unknown>
     b66: 00 00        	<unknown>
     b68: 11 5e        	<unknown>
     b6a: 00 00        	<unknown>
     b6c: 00 00        	<unknown>
     b6e: 00 00        	<unknown>
     b70: 40 0b        	<unknown>
     b72: 00 00        	<unknown>
     b74: 10 61        	<unknown>
     b76: 00 00        	<unknown>
     b78: 00 00        	<unknown>
     b7a: 00 00        	<unknown>
     b7c: 60 0b        	<unknown>
     b7e: 00 00        	<unknown>
     b80: 10 62        	<unknown>
     b82: 00 00        	<unknown>
     b84: 00 00        	<unknown>
     b86: 00 00        	<unknown>
     b88: 68 0b        	<unknown>
     b8a: 00 00        	<unknown>
     b8c: 17 64 00 00  	auipc	s0, 6
     b90: 00 00        	<unknown>
     b92: 00 00        	<unknown>
     b94: 68 0b        	<unknown>
     b96: 00 00        	<unknown>
     b98: 33 00 00 00  	add	zero, zero, zero
     b9c: 00 00        	<unknown>
     b9e: 00 00        	<unknown>
     ba0: 6c 0b        	<unknown>
     ba2: 00 00        	<unknown>
     ba4: 18 63        	<unknown>
     ba6: 00 00        	<unknown>
     ba8: 00 00        	<unknown>
     baa: 00 00        	<unknown>
     bac: 6c 0b        	<unknown>
     bae: 00 00        	<unknown>
     bb0: 33 00 00 00  	add	zero, zero, zero
     bb4: 00 00        	<unknown>
     bb6: 00 00        	<unknown>
     bb8: a0 0b        	<unknown>
     bba: 00 00        	<unknown>
     bbc: 10 67        	<unknown>
     bbe: 00 00        	<unknown>
     bc0: 00 00        	<unknown>
     bc2: 00 00        	<unknown>
     bc4: ac 0b        	<unknown>
     bc6: 00 00        	<unknown>
     bc8: 10 67        	<unknown>
     bca: 00 00        	<unknown>
     bcc: 00 00        	<unknown>
     bce: 00 00        	<unknown>
     bd0: b0 0b        	<unknown>
     bd2: 00 00        	<unknown>
     bd4: 11 68        	<unknown>
     bd6: 00 00        	<unknown>
     bd8: 00 00        	<unknown>
     bda: 00 00        	<unknown>
     bdc: f4 0b        	<unknown>
     bde: 00 00        	<unknown>
     be0: 13 6a 00 00  	ori	s4, zero, 0
     be4: 00 00        	<unknown>
     be6: 00 00        	<unknown>
     be8: f4 0b        	<unknown>
     bea: 00 00        	<unknown>
     bec: 33 00 00 00  	add	zero, zero, zero
     bf0: 00 00        	<unknown>
     bf2: 00 00        	<unknown>
     bf4: 04 0c        	<unknown>
     bf6: 00 00        	<unknown>
     bf8: 11 42        	<unknown>
     bfa: 00 00        	<unknown>
     bfc: 00 00        	<unknown>
     bfe: 00 00        	<unknown>
     c00: 18 0c        	<unknown>
     c02: 00 00        	<unknown>
     c04: 10 6d        	<unknown>
     c06: 00 00        	<unknown>
     c08: 00 00        	<unknown>
     c0a: 00 00        	<unknown>
     c0c: 54 0c        	<unknown>
     c0e: 00 00        	<unknown>
     c10: 13 6e 00 00  	ori	t3, zero, 0
     c14: 00 00        	<unknown>
     c16: 00 00        	<unknown>
     c18: 54 0c        	<unknown>
     c1a: 00 00        	<unknown>
     c1c: 33 00 00 00  	add	zero, zero, zero
     c20: 00 00        	<unknown>
     c22: 00 00        	<unknown>
     c24: 64 0c        	<unknown>
     c26: 00 00        	<unknown>
     c28: 11 42        	<unknown>
     c2a: 00 00        	<unknown>
     c2c: 00 00        	<unknown>
     c2e: 00 00        	<unknown>
     c30: 70 0c        	<unknown>
     c32: 00 00        	<unknown>
     c34: 11 59        	<unknown>
     c36: 00 00        	<unknown>
     c38: 00 00        	<unknown>
     c3a: 00 00        	<unknown>
     c3c: 7c 0c        	<unknown>
     c3e: 00 00        	<unknown>
     c40: 11 59        	<unknown>
     c42: 00 00        	<unknown>
     c44: 00 00        	<unknown>
     c46: 00 00        	<unknown>
     c48: 88 0c        	<unknown>
     c4a: 00 00        	<unknown>
     c4c: 11 70        	<unknown>
     c4e: 00 00        	<unknown>
     c50: 00 00        	<unknown>
     c52: 00 00        	<unknown>
     c54: a0 0c        	<unknown>
     c56: 00 00        	<unknown>
     c58: 11 71        	<unknown>
     c5a: 00 00        	<unknown>
     c5c: 00 00        	<unknown>
     c5e: 00 00        	<unknown>
     c60: b4 0c        	<unknown>
     c62: 00 00        	<unknown>
     c64: 10 73        	<unknown>
     c66: 00 00        	<unknown>
     c68: 00 00        	<unknown>
     c6a: 00 00        	<unknown>
     c6c: c0 0c        	<unknown>
     c6e: 00 00        	<unknown>
     c70: 10 74        	<unknown>
     c72: 00 00        	<unknown>
     c74: 00 00        	<unknown>
     c76: 00 00        	<unknown>
     c78: c8 0c        	<unknown>
     c7a: 00 00        	<unknown>
     c7c: 10 75        	<unknown>
     c7e: 00 00        	<unknown>
     c80: 00 00        	<unknown>
     c82: 00 00        	<unknown>
     c84: d0 0c        	<unknown>
     c86: 00 00        	<unknown>
     c88: 10 76        	<unknown>
     c8a: 00 00        	<unknown>
     c8c: 00 00        	<unknown>
     c8e: 00 00        	<unknown>
     c90: d8 0c        	<unknown>
     c92: 00 00        	<unknown>
     c94: 10 77        	<unknown>
     c96: 00 00        	<unknown>
     c98: 00 00        	<unknown>
     c9a: 00 00        	<unknown>
     c9c: e0 0c        	<unknown>
     c9e: 00 00        	<unknown>
     ca0: 10 78        	<unknown>
     ca2: 00 00        	<unknown>
     ca4: 00 00        	<unknown>
     ca6: 00 00        	<unknown>
     ca8: f0 0c        	<unknown>
     caa: 00 00        	<unknown>
     cac: 10 79        	<unknown>
     cae: 00 00        	<unknown>
     cb0: 00 00        	<unknown>
     cb2: 00 00        	<unknown>
     cb4: 00 0d        	<unknown>
     cb6: 00 00        	<unknown>
     cb8: 11 7a        	<unknown>
     cba: 00 00        	<unknown>
     cbc: 00 00        	<unknown>
     cbe: 00 00        	<unknown>
     cc0: 08 0d        	<unknown>
     cc2: 00 00        	<unknown>
     cc4: 10 76        	<unknown>
     cc6: 00 00        	<unknown>
     cc8: 00 00        	<unknown>
     cca: 00 00        	<unknown>
     ccc: 10 0d        	<unknown>
     cce: 00 00        	<unknown>
     cd0: 10 7b        	<unknown>
     cd2: 00 00        	<unknown>
     cd4: 00 00        	<unknown>
     cd6: 00 00        	<unknown>
     cd8: 18 0d        	<unknown>
     cda: 00 00        	<unknown>
     cdc: 10 7c        	<unknown>
     cde: 00 00        	<unknown>
     ce0: 00 00        	<unknown>
     ce2: 00 00        	<unknown>
     ce4: 28 0d        	<unknown>
     ce6: 00 00        	<unknown>
     ce8: 10 7d        	<unknown>
     cea: 00 00        	<unknown>
     cec: 00 00        	<unknown>
     cee: 00 00        	<unknown>
     cf0: 38 0d        	<unknown>
     cf2: 00 00        	<unknown>
     cf4: 11 7e        	<unknown>
     cf6: 00 00        	<unknown>
     cf8: 00 00        	<unknown>
     cfa: 00 00        	<unknown>
     cfc: 68 0d        	<unknown>
     cfe: 00 00        	<unknown>
     d00: 11 7f        	<unknown>
     d02: 00 00        	<unknown>
     d04: 00 00        	<unknown>
     d06: 00 00        	<unknown>
     d08: 74 0d        	<unknown>
     d0a: 00 00        	<unknown>
     d0c: 10 81        	<unknown>
     d0e: 00 00        	<unknown>
     d10: 00 00        	<unknown>
     d12: 00 00        	<unknown>
     d14: 7c 0d        	<unknown>
     d16: 00 00        	<unknown>
     d18: 10 81        	<unknown>
     d1a: 00 00        	<unknown>
     d1c: 00 00        	<unknown>
     d1e: 00 00        	<unknown>
     d20: a4 0d        	<unknown>
     d22: 00 00        	<unknown>
     d24: 10 82        	<unknown>
     d26: 00 00        	<unknown>
     d28: 00 00        	<unknown>
     d2a: 00 00        	<unknown>
     d2c: d8 0d        	<unknown>
     d2e: 00 00        	<unknown>
     d30: 10 83        	<unknown>
     d32: 00 00        	<unknown>
     d34: 00 00        	<unknown>
     d36: 00 00        	<unknown>
     d38: 00 0e        	<unknown>
     d3a: 00 00        	<unknown>
     d3c: 10 84        	<unknown>
     d3e: 00 00        	<unknown>
     d40: 00 00        	<unknown>
     d42: 00 00        	<unknown>
     d44: 0c 0e        	<unknown>
     d46: 00 00        	<unknown>
     d48: 11 42        	<unknown>
     d4a: 00 00        	<unknown>
     d4c: 00 00        	<unknown>
     d4e: 00 00        	<unknown>
     d50: 40 0e        	<unknown>
     d52: 00 00        	<unknown>
     d54: 11 86        	<unknown>
     d56: 00 00        	<unknown>
     d58: 00 00        	<unknown>
     d5a: 00 00        	<unknown>
     d5c: 54 0e        	<unknown>
     d5e: 00 00        	<unknown>
     d60: 10 88        	<unknown>
     d62: 00 00        	<unknown>
     d64: 00 00        	<unknown>
     d66: 00 00        	<unknown>
     d68: 88 0e        	<unknown>
     d6a: 00 00        	<unknown>
     d6c: 10 89        	<unknown>
     d6e: 00 00        	<unknown>
     d70: 00 00        	<unknown>
     d72: 00 00        	<unknown>
     d74: 94 0e        	<unknown>
     d76: 00 00        	<unknown>
     d78: 10 8a        	<unknown>
     d7a: 00 00        	<unknown>
     d7c: 00 00        	<unknown>
     d7e: 00 00        	<unknown>
     d80: a4 0e        	<unknown>
     d82: 00 00        	<unknown>
     d84: 10 8b        	<unknown>
     d86: 00 00        	<unknown>
     d88: 00 00        	<unknown>
     d8a: 00 00        	<unknown>
     d8c: b0 0e        	<unknown>
     d8e: 00 00        	<unknown>
     d90: 10 8d        	<unknown>
     d92: 00 00        	<unknown>
     d94: 00 00        	<unknown>
     d96: 00 00        	<unknown>
     d98: b4 0e        	<unknown>
     d9a: 00 00        	<unknown>
     d9c: 11 8e        	<unknown>
     d9e: 00 00        	<unknown>
     da0: 00 00        	<unknown>
     da2: 00 00        	<unknown>
     da4: c0 0e        	<unknown>
     da6: 00 00        	<unknown>
     da8: 10 8c        	<unknown>
     daa: 00 00        	<unknown>
     dac: 00 00        	<unknown>
     dae: 00 00        	<unknown>
     db0: d0 0e        	<unknown>
     db2: 00 00        	<unknown>
     db4: 10 8e        	<unknown>
     db6: 00 00        	<unknown>
     db8: 00 00        	<unknown>
     dba: 00 00        	<unknown>
     dbc: d4 0e        	<unknown>
     dbe: 00 00        	<unknown>
     dc0: 10 8f        	<unknown>
     dc2: 00 00        	<unknown>
     dc4: 00 00        	<unknown>
     dc6: 00 00        	<unknown>
     dc8: 00 0f        	<unknown>
     dca: 00 00        	<unknown>
     dcc: 10 90        	<unknown>
     dce: 00 00        	<unknown>
     dd0: 00 00        	<unknown>
     dd2: 00 00        	<unknown>
     dd4: 08 0f        	<unknown>
     dd6: 00 00        	<unknown>
     dd8: 11 91        	<unknown>
     dda: 00 00        	<unknown>
     ddc: 00 00        	<unknown>
     dde: 00 00        	<unknown>
     de0: 3c 0f        	<unknown>
     de2: 00 00        	<unknown>
     de4: 11 92        	<unknown>
     de6: 00 00        	<unknown>
     de8: 00 00        	<unknown>
     dea: 00 00        	<unknown>
     dec: 68 0f        	<unknown>
     dee: 00 00        	<unknown>
     df0: 13 93 00 00  	slli	t1, ra, 0
     df4: 00 00        	<unknown>
     df6: 00 00        	<unknown>
     df8: 68 0f        	<unknown>
     dfa: 00 00        	<unknown>
     dfc: 33 00 00 00  	add	zero, zero, zero
     e00: 00 00        	<unknown>
     e02: 00 00        	<unknown>
     e04: 7c 0f        	<unknown>
     e06: 00 00        	<unknown>
     e08: 11 42        	<unknown>
     e0a: 00 00        	<unknown>
     e0c: 00 00        	<unknown>
     e0e: 00 00        	<unknown>
     e10: 8c 0f        	<unknown>
     e12: 00 00        	<unknown>
     e14: 11 42        	<unknown>
     e16: 00 00        	<unknown>
     e18: 00 00        	<unknown>
     e1a: 00 00        	<unknown>
     e1c: bc 0f        	<unknown>
     e1e: 00 00        	<unknown>
     e20: 13 93 00 00  	slli	t1, ra, 0
     e24: 00 00        	<unknown>
     e26: 00 00        	<unknown>
     e28: bc 0f        	<unknown>
     e2a: 00 00        	<unknown>
     e2c: 33 00 00 00  	add	zero, zero, zero
     e30: 00 00        	<unknown>
     e32: 00 00        	<unknown>
     e34: cc 0f        	<unknown>
     e36: 00 00        	<unknown>
     e38: 11 42        	<unknown>
     e3a: 00 00        	<unknown>
     e3c: 00 00        	<unknown>
     e3e: 00 00        	<unknown>
     e40: d8 0f        	<unknown>
     e42: 00 00        	<unknown>
     e44: 10 94        	<unknown>
     e46: 00 00        	<unknown>
     e48: 00 00        	<unknown>
     e4a: 00 00        	<unknown>
     e4c: e0 0f        	<unknown>
     e4e: 00 00        	<unknown>
     e50: 11 95        	<unknown>
     e52: 00 00        	<unknown>
     e54: 00 00        	<unknown>
     e56: 00 00        	<unknown>
     e58: 0c 10        	<unknown>
     e5a: 00 00        	<unknown>
     e5c: 10 98        	<unknown>
     e5e: 00 00        	<unknown>
     e60: 00 00        	<unknown>
     e62: 00 00        	<unknown>
     e64: 14 10        	<unknown>
     e66: 00 00        	<unknown>
     e68: 10 97        	<unknown>
     e6a: 00 00        	<unknown>
     e6c: 00 00        	<unknown>
     e6e: 00 00        	<unknown>
     e70: 18 10        	<unknown>
     e72: 00 00        	<unknown>
     e74: 10 96        	<unknown>
     e76: 00 00        	<unknown>
     e78: 00 00        	<unknown>
     e7a: 00 00        	<unknown>
     e7c: 40 10        	<unknown>
     e7e: 00 00        	<unknown>
     e80: 10 99        	<unknown>
     e82: 00 00        	<unknown>
     e84: 00 00        	<unknown>
     e86: 00 00        	<unknown>
     e88: 68 10        	<unknown>
     e8a: 00 00        	<unknown>
     e8c: 10 9a        	<unknown>
     e8e: 00 00        	<unknown>
     e90: 00 00        	<unknown>
     e92: 00 00        	<unknown>
     e94: 74 10        	<unknown>
     e96: 00 00        	<unknown>
     e98: 11 42        	<unknown>
     e9a: 00 00        	<unknown>
     e9c: 00 00        	<unknown>
     e9e: 00 00        	<unknown>
     ea0: 84 10        	<unknown>
     ea2: 00 00        	<unknown>
     ea4: 11 42        	<unknown>
     ea6: 00 00        	<unknown>
     ea8: 00 00        	<unknown>
     eaa: 00 00        	<unknown>
     eac: 8c 10        	<unknown>
     eae: 00 00        	<unknown>
     eb0: 10 9b        	<unknown>
     eb2: 00 00        	<unknown>
     eb4: 00 00        	<unknown>
     eb6: 00 00        	<unknown>
     eb8: e4 10        	<unknown>
     eba: 00 00        	<unknown>
     ebc: 10 9c        	<unknown>
     ebe: 00 00        	<unknown>
     ec0: 00 00        	<unknown>
     ec2: 00 00        	<unknown>
     ec4: f4 10        	<unknown>
     ec6: 00 00        	<unknown>
     ec8: 17 6a 01 00  	auipc	s4, 22
     ecc: 00 00        	<unknown>
     ece: 00 00        	<unknown>
     ed0: f4 10        	<unknown>
     ed2: 00 00        	<unknown>
     ed4: 33 00 00 00  	add	zero, zero, zero
     ed8: 00 00        	<unknown>
     eda: 00 00        	<unknown>
     edc: f8 10        	<unknown>
     ede: 00 00        	<unknown>
     ee0: 18 9d        	<unknown>
     ee2: 00 00        	<unknown>
     ee4: 00 00        	<unknown>
     ee6: 00 00        	<unknown>
     ee8: f8 10        	<unknown>
     eea: 00 00        	<unknown>
     eec: 33 00 00 00  	add	zero, zero, zero
     ef0: 00 00        	<unknown>
     ef2: 00 00        	<unknown>
     ef4: 2c 11        	<unknown>
     ef6: 00 00        	<unknown>
     ef8: 10 9c        	<unknown>
     efa: 00 00        	<unknown>
     efc: 00 00        	<unknown>
     efe: 00 00        	<unknown>
     f00: 64 11        	<unknown>
     f02: 00 00        	<unknown>
     f04: 17 9a 01 00  	auipc	s4, 25
     f08: 00 00        	<unknown>
     f0a: 00 00        	<unknown>
     f0c: 64 11        	<unknown>
     f0e: 00 00        	<unknown>
     f10: 33 00 00 00  	add	zero, zero, zero
     f14: 00 00        	<unknown>
     f16: 00 00        	<unknown>
     f18: 68 11        	<unknown>
     f1a: 00 00        	<unknown>
     f1c: 19 9e        	<unknown>
     f1e: 00 00        	<unknown>
     f20: 00 00        	<unknown>
     f22: 00 00        	<unknown>
     f24: 68 11        	<unknown>
     f26: 00 00        	<unknown>
     f28: 33 00 00 00  	add	zero, zero, zero
     f2c: 00 00        	<unknown>
     f2e: 00 00        	<unknown>
     f30: 6c 11        	<unknown>
     f32: 00 00        	<unknown>
     f34: 17 9b 01 00  	auipc	s6, 25
     f38: 00 00        	<unknown>
     f3a: 00 00        	<unknown>
     f3c: 6c 11        	<unknown>
     f3e: 00 00        	<unknown>
     f40: 33 00 00 00  	add	zero, zero, zero
     f44: 00 00        	<unknown>
     f46: 00 00        	<unknown>
     f48: 70 11        	<unknown>
     f4a: 00 00        	<unknown>
     f4c: 18 9f        	<unknown>
     f4e: 00 00        	<unknown>
     f50: 00 00        	<unknown>
     f52: 00 00        	<unknown>
     f54: 70 11        	<unknown>
     f56: 00 00        	<unknown>
     f58: 33 00 00 00  	add	zero, zero, zero
     f5c: 00 00        	<unknown>
     f5e: 00 00        	<unknown>
     f60: 74 11        	<unknown>
     f62: 00 00        	<unknown>
     f64: 10 a0        	<unknown>
     f66: 00 00        	<unknown>
     f68: 00 00        	<unknown>
     f6a: 00 00        	<unknown>
     f6c: 78 11        	<unknown>
     f6e: 00 00        	<unknown>
     f70: 19 9f        	<unknown>
     f72: 00 00        	<unknown>
     f74: 00 00        	<unknown>
     f76: 00 00        	<unknown>
     f78: 78 11        	<unknown>
     f7a: 00 00        	<unknown>
     f7c: 33 00 00 00  	add	zero, zero, zero
     f80: 00 00        	<unknown>
     f82: 00 00        	<unknown>
     f84: d4 11        	<unknown>
     f86: 00 00        	<unknown>
     f88: 10 a1        	<unknown>
     f8a: 00 00        	<unknown>
     f8c: 00 00        	<unknown>
     f8e: 00 00        	<unknown>
     f90: e8 11        	<unknown>
     f92: 00 00        	<unknown>
     f94: 10 a2        	<unknown>
     f96: 00 00        	<unknown>
     f98: 00 00        	<unknown>
     f9a: 00 00        	<unknown>
     f9c: 04 12        	<unknown>
     f9e: 00 00        	<unknown>
     fa0: 11 a3        	<unknown>
     fa2: 00 00        	<unknown>
     fa4: 00 00        	<unknown>
     fa6: 00 00        	<unknown>
     fa8: 30 12        	<unknown>
     faa: 00 00        	<unknown>
     fac: 10 a5        	<unknown>
     fae: 00 00        	<unknown>
     fb0: 00 00        	<unknown>
     fb2: 00 00        	<unknown>
     fb4: 48 12        	<unknown>
     fb6: 00 00        	<unknown>
     fb8: 10 a4        	<unknown>
     fba: 00 00        	<unknown>
     fbc: 00 00        	<unknown>
     fbe: 00 00        	<unknown>
     fc0: 50 12        	<unknown>
     fc2: 00 00        	<unknown>
     fc4: 11 a4        	<unknown>
     fc6: 00 00        	<unknown>
     fc8: 00 00        	<unknown>
     fca: 00 00        	<unknown>
     fcc: 5c 12        	<unknown>
     fce: 00 00        	<unknown>
     fd0: 10 a6        	<unknown>
     fd2: 00 00        	<unknown>
     fd4: 00 00        	<unknown>
     fd6: 00 00        	<unknown>
     fd8: 60 12        	<unknown>
     fda: 00 00        	<unknown>
     fdc: 10 a7        	<unknown>
     fde: 00 00        	<unknown>
     fe0: 00 00        	<unknown>
     fe2: 00 00        	<unknown>
     fe4: 68 12        	<unknown>
     fe6: 00 00        	<unknown>
     fe8: 10 a7        	<unknown>
     fea: 00 00        	<unknown>
     fec: 00 00        	<unknown>
     fee: 00 00        	<unknown>
     ff0: 84 12        	<unknown>
     ff2: 00 00        	<unknown>
     ff4: 10 a8        	<unknown>
     ff6: 00 00        	<unknown>
     ff8: 00 00        	<unknown>
     ffa: 00 00        	<unknown>
     ffc: 88 12        	<unknown>
     ffe: 00 00        	<unknown>
    1000: 10 a9        	<unknown>
    1002: 00 00        	<unknown>
    1004: 00 00        	<unknown>
    1006: 00 00        	<unknown>
    1008: 94 12        	<unknown>
    100a: 00 00        	<unknown>
    100c: 10 ab        	<unknown>
    100e: 00 00        	<unknown>
    1010: 00 00        	<unknown>
    1012: 00 00        	<unknown>
    1014: a0 12        	<unknown>
    1016: 00 00        	<unknown>
    1018: 10 ad        	<unknown>
    101a: 00 00        	<unknown>
    101c: 00 00        	<unknown>
    101e: 00 00        	<unknown>
    1020: a8 12        	<unknown>
    1022: 00 00        	<unknown>
    1024: 10 ae        	<unknown>
    1026: 00 00        	<unknown>
    1028: 00 00        	<unknown>
    102a: 00 00        	<unknown>
    102c: b0 12        	<unknown>
    102e: 00 00        	<unknown>
    1030: 10 b0        	<unknown>
    1032: 00 00        	<unknown>
    1034: 00 00        	<unknown>
    1036: 00 00        	<unknown>
    1038: b4 12        	<unknown>
    103a: 00 00        	<unknown>
    103c: 11 b1        	<unknown>
    103e: 00 00        	<unknown>
    1040: 00 00        	<unknown>
    1042: 00 00        	<unknown>
    1044: bc 12        	<unknown>
    1046: 00 00        	<unknown>
    1048: 10 aa        	<unknown>
    104a: 00 00        	<unknown>
    104c: 00 00        	<unknown>
    104e: 00 00        	<unknown>
    1050: dc 12        	<unknown>
    1052: 00 00        	<unknown>
    1054: 10 b2        	<unknown>
    1056: 00 00        	<unknown>
    1058: 00 00        	<unknown>
    105a: 00 00        	<unknown>
    105c: ec 12        	<unknown>
    105e: 00 00        	<unknown>
    1060: 10 ac        	<unknown>
    1062: 00 00        	<unknown>
    1064: 00 00        	<unknown>
    1066: 00 00        	<unknown>
    1068: fc 12        	<unknown>
    106a: 00 00        	<unknown>
    106c: 10 a6        	<unknown>
    106e: 00 00        	<unknown>
    1070: 00 00        	<unknown>
    1072: 00 00        	<unknown>
    1074: 1c 13        	<unknown>
    1076: 00 00        	<unknown>
    1078: 10 b3        	<unknown>
    107a: 00 00        	<unknown>
    107c: 00 00        	<unknown>
    107e: 00 00        	<unknown>
    1080: 28 13        	<unknown>
    1082: 00 00        	<unknown>
    1084: 10 af        	<unknown>
    1086: 00 00        	<unknown>
    1088: 00 00        	<unknown>
    108a: 00 00        	<unknown>
    108c: 38 13        	<unknown>
    108e: 00 00        	<unknown>
    1090: 10 b4        	<unknown>
    1092: 00 00        	<unknown>
    1094: 00 00        	<unknown>
    1096: 00 00        	<unknown>
    1098: 50 13        	<unknown>
    109a: 00 00        	<unknown>
    109c: 10 b4        	<unknown>
    109e: 00 00        	<unknown>
    10a0: 00 00        	<unknown>
    10a2: 00 00        	<unknown>
    10a4: 68 13        	<unknown>
    10a6: 00 00        	<unknown>
    10a8: 10 b5        	<unknown>
    10aa: 00 00        	<unknown>
    10ac: 00 00        	<unknown>
    10ae: 00 00        	<unknown>
    10b0: 78 13        	<unknown>
    10b2: 00 00        	<unknown>
    10b4: 10 b6        	<unknown>
    10b6: 00 00        	<unknown>
    10b8: 00 00        	<unknown>
    10ba: 00 00        	<unknown>
    10bc: 90 13        	<unknown>
    10be: 00 00        	<unknown>
    10c0: 10 b7        	<unknown>
    10c2: 00 00        	<unknown>
    10c4: 00 00        	<unknown>
    10c6: 00 00        	<unknown>
    10c8: a0 13        	<unknown>
    10ca: 00 00        	<unknown>
    10cc: 10 b7        	<unknown>
    10ce: 00 00        	<unknown>
    10d0: 00 00        	<unknown>
    10d2: 00 00        	<unknown>
    10d4: a4 13        	<unknown>
    10d6: 00 00        	<unknown>
    10d8: 11 b8        	<unknown>
    10da: 00 00        	<unknown>
    10dc: 00 00        	<unknown>
    10de: 00 00        	<unknown>
    10e0: bc 13        	<unknown>
    10e2: 00 00        	<unknown>
    10e4: 10 b8        	<unknown>
    10e6: 00 00        	<unknown>
    10e8: 00 00        	<unknown>
    10ea: 00 00        	<unknown>
    10ec: d4 13        	<unknown>
    10ee: 00 00        	<unknown>
    10f0: 10 b1        	<unknown>
    10f2: 00 00        	<unknown>
    10f4: 00 00        	<unknown>
    10f6: 00 00        	<unknown>
    10f8: f0 13        	<unknown>
    10fa: 00 00        	<unknown>
    10fc: 10 b1        	<unknown>
    10fe: 00 00        	<unknown>
    1100: 00 00        	<unknown>
    1102: 00 00        	<unknown>
    1104: f8 13        	<unknown>
    1106: 00 00        	<unknown>
    1108: 10 b9        	<unknown>
    110a: 00 00        	<unknown>
    110c: 00 00        	<unknown>
    110e: 00 00        	<unknown>
    1110: 04 14        	<unknown>
    1112: 00 00        	<unknown>
    1114: 10 b9        	<unknown>
    1116: 00 00        	<unknown>
    1118: 00 00        	<unknown>
    111a: 00 00        	<unknown>
    111c: 10 14        	<unknown>
    111e: 00 00        	<unknown>
    1120: 10 b1        	<unknown>
    1122: 00 00        	<unknown>
    1124: 00 00        	<unknown>
    1126: 00 00        	<unknown>
    1128: 38 14        	<unknown>
    112a: 00 00        	<unknown>
    112c: 10 ba        	<unknown>
    112e: 00 00        	<unknown>
    1130: 00 00        	<unknown>
    1132: 00 00        	<unknown>
    1134: 60 14        	<unknown>
    1136: 00 00        	<unknown>
    1138: 10 bb        	<unknown>
    113a: 00 00        	<unknown>
    113c: 00 00        	<unknown>
    113e: 00 00        	<unknown>
    1140: 64 14        	<unknown>
    1142: 00 00        	<unknown>
    1144: 10 bc        	<unknown>
    1146: 00 00        	<unknown>
    1148: 00 00        	<unknown>
    114a: 00 00        	<unknown>
    114c: 94 14        	<unknown>
    114e: 00 00        	<unknown>
    1150: 10 bd        	<unknown>
    1152: 00 00        	<unknown>
    1154: 00 00        	<unknown>
    1156: 00 00        	<unknown>
    1158: 98 14        	<unknown>
    115a: 00 00        	<unknown>
    115c: 11 be        	<unknown>
    115e: 00 00        	<unknown>
    1160: 00 00        	<unknown>
    1162: 00 00        	<unknown>
    1164: b0 14        	<unknown>
    1166: 00 00        	<unknown>
    1168: 10 bf        	<unknown>
    116a: 00 00        	<unknown>
    116c: 00 00        	<unknown>
    116e: 00 00        	<unknown>
    1170: d8 14        	<unknown>
    1172: 00 00        	<unknown>
    1174: 10 c0        	<unknown>
    1176: 00 00        	<unknown>
    1178: 00 00        	<unknown>
    117a: 00 00        	<unknown>
    117c: dc 14        	<unknown>
    117e: 00 00        	<unknown>
    1180: 11 c1        	<unknown>
    1182: 00 00        	<unknown>
    1184: 00 00        	<unknown>
    1186: 00 00        	<unknown>
    1188: 50 15        	<unknown>
    118a: 00 00        	<unknown>
    118c: 17 c2 00 00  	auipc	tp, 12
    1190: 00 00        	<unknown>
    1192: 00 00        	<unknown>
    1194: 50 15        	<unknown>
    1196: 00 00        	<unknown>
    1198: 33 00 00 00  	add	zero, zero, zero
    119c: 00 00        	<unknown>
    119e: 00 00        	<unknown>
    11a0: 54 15        	<unknown>
    11a2: 00 00        	<unknown>
    11a4: 18 c7        	<unknown>
    11a6: 00 00        	<unknown>
    11a8: 00 00        	<unknown>
    11aa: 00 00        	<unknown>
    11ac: 54 15        	<unknown>
    11ae: 00 00        	<unknown>
    11b0: 33 00 00 00  	add	zero, zero, zero
    11b4: 00 00        	<unknown>
    11b6: 00 00        	<unknown>
    11b8: 74 15        	<unknown>
    11ba: 00 00        	<unknown>
    11bc: 10 c8        	<unknown>
    11be: 00 00        	<unknown>
    11c0: 00 00        	<unknown>
    11c2: 00 00        	<unknown>
    11c4: 90 15        	<unknown>
    11c6: 00 00        	<unknown>
    11c8: 10 c9        	<unknown>
    11ca: 00 00        	<unknown>
    11cc: 00 00        	<unknown>
    11ce: 00 00        	<unknown>
    11d0: b8 15        	<unknown>
    11d2: 00 00        	<unknown>
    11d4: 10 ca        	<unknown>
    11d6: 00 00        	<unknown>
    11d8: 00 00        	<unknown>
    11da: 00 00        	<unknown>
    11dc: 2c 16        	<unknown>
    11de: 00 00        	<unknown>
    11e0: 10 cb        	<unknown>
    11e2: 00 00        	<unknown>
    11e4: 00 00        	<unknown>
    11e6: 00 00        	<unknown>
    11e8: 54 16        	<unknown>
    11ea: 00 00        	<unknown>
    11ec: 10 cc        	<unknown>
    11ee: 00 00        	<unknown>
    11f0: 00 00        	<unknown>
    11f2: 00 00        	<unknown>
    11f4: 58 16        	<unknown>
    11f6: 00 00        	<unknown>
    11f8: 11 cd        	<unknown>
    11fa: 00 00        	<unknown>
    11fc: 00 00        	<unknown>
    11fe: 00 00        	<unknown>
    1200: 5c 16        	<unknown>
    1202: 00 00        	<unknown>
    1204: 17 c3 00 00  	auipc	t1, 12
    1208: 00 00        	<unknown>
    120a: 00 00        	<unknown>
    120c: 5c 16        	<unknown>
    120e: 00 00        	<unknown>
    1210: 33 00 00 00  	add	zero, zero, zero
    1214: 00 00        	<unknown>
    1216: 00 00        	<unknown>
    1218: 60 16        	<unknown>
    121a: 00 00        	<unknown>
    121c: 18 ce        	<unknown>
    121e: 00 00        	<unknown>
    1220: 00 00        	<unknown>
    1222: 00 00        	<unknown>
    1224: 60 16        	<unknown>
    1226: 00 00        	<unknown>
    1228: 33 00 00 00  	add	zero, zero, zero
    122c: 00 00        	<unknown>
    122e: 00 00        	<unknown>
    1230: 68 16        	<unknown>
    1232: 00 00        	<unknown>
    1234: 10 cf        	<unknown>
    1236: 00 00        	<unknown>
    1238: 00 00        	<unknown>
    123a: 00 00        	<unknown>
    123c: 74 16        	<unknown>
    123e: 00 00        	<unknown>
    1240: 10 d0        	<unknown>
    1242: 00 00        	<unknown>
    1244: 00 00        	<unknown>
    1246: 00 00        	<unknown>
    1248: 78 16        	<unknown>
    124a: 00 00        	<unknown>
    124c: 17 d2 00 00  	auipc	tp, 13
    1250: 00 00        	<unknown>
    1252: 00 00        	<unknown>
    1254: 78 16        	<unknown>
    1256: 00 00        	<unknown>
    1258: 33 00 00 00  	add	zero, zero, zero
    125c: 00 00        	<unknown>
    125e: 00 00        	<unknown>
    1260: 7c 16        	<unknown>
    1262: 00 00        	<unknown>
    1264: 18 d1        	<unknown>
    1266: 00 00        	<unknown>
    1268: 00 00        	<unknown>
    126a: 00 00        	<unknown>
    126c: 7c 16        	<unknown>
    126e: 00 00        	<unknown>
    1270: 33 00 00 00  	add	zero, zero, zero
    1274: 00 00        	<unknown>
    1276: 00 00        	<unknown>
    1278: 80 16        	<unknown>
    127a: 00 00        	<unknown>
    127c: 11 d3        	<unknown>
    127e: 00 00        	<unknown>
    1280: 00 00        	<unknown>
    1282: 00 00        	<unknown>
    1284: 88 16        	<unknown>
    1286: 00 00        	<unknown>
    1288: 11 cd        	<unknown>
    128a: 00 00        	<unknown>
    128c: 00 00        	<unknown>
    128e: 00 00        	<unknown>
    1290: 8c 16        	<unknown>
    1292: 00 00        	<unknown>
    1294: 17 c4 00 00  	auipc	s0, 12
    1298: 00 00        	<unknown>
    129a: 00 00        	<unknown>
    129c: 8c 16        	<unknown>
    129e: 00 00        	<unknown>
    12a0: 33 00 00 00  	add	zero, zero, zero
    12a4: 00 00        	<unknown>
    12a6: 00 00        	<unknown>
    12a8: 90 16        	<unknown>
    12aa: 00 00        	<unknown>
    12ac: 18 d4        	<unknown>
    12ae: 00 00        	<unknown>
    12b0: 00 00        	<unknown>
    12b2: 00 00        	<unknown>
    12b4: 90 16        	<unknown>
    12b6: 00 00        	<unknown>
    12b8: 33 00 00 00  	add	zero, zero, zero
    12bc: 00 00        	<unknown>
    12be: 00 00        	<unknown>
    12c0: 94 16        	<unknown>
    12c2: 00 00        	<unknown>
    12c4: 17 c5 00 00  	auipc	a0, 12
    12c8: 00 00        	<unknown>
    12ca: 00 00        	<unknown>
    12cc: 94 16        	<unknown>
    12ce: 00 00        	<unknown>
    12d0: 33 00 00 00  	add	zero, zero, zero
    12d4: 00 00        	<unknown>
    12d6: 00 00        	<unknown>
    12d8: 98 16        	<unknown>
    12da: 00 00        	<unknown>
    12dc: 18 d5        	<unknown>
    12de: 00 00        	<unknown>
    12e0: 00 00        	<unknown>
    12e2: 00 00        	<unknown>
    12e4: 98 16        	<unknown>
    12e6: 00 00        	<unknown>
    12e8: 33 00 00 00  	add	zero, zero, zero
    12ec: 00 00        	<unknown>
    12ee: 00 00        	<unknown>
    12f0: a8 16        	<unknown>
    12f2: 00 00        	<unknown>
    12f4: 10 d6        	<unknown>
    12f6: 00 00        	<unknown>
    12f8: 00 00        	<unknown>
    12fa: 00 00        	<unknown>
    12fc: f4 16        	<unknown>
    12fe: 00 00        	<unknown>
    1300: 13 6e 00 00  	ori	t3, zero, 0
    1304: 00 00        	<unknown>
    1306: 00 00        	<unknown>
    1308: f4 16        	<unknown>
    130a: 00 00        	<unknown>
    130c: 33 00 00 00  	add	zero, zero, zero
    1310: 00 00        	<unknown>
    1312: 00 00        	<unknown>
    1314: fc 16        	<unknown>
    1316: 00 00        	<unknown>
    1318: 17 d8 00 00  	auipc	a6, 13
    131c: 00 00        	<unknown>
    131e: 00 00        	<unknown>
    1320: fc 16        	<unknown>
    1322: 00 00        	<unknown>
    1324: 33 00 00 00  	add	zero, zero, zero
    1328: 00 00        	<unknown>
    132a: 00 00        	<unknown>
    132c: 00 17        	<unknown>
    132e: 00 00        	<unknown>
    1330: 18 d7        	<unknown>
    1332: 00 00        	<unknown>
    1334: 00 00        	<unknown>
    1336: 00 00        	<unknown>
    1338: 00 17        	<unknown>
    133a: 00 00        	<unknown>
    133c: 33 00 00 00  	add	zero, zero, zero
    1340: 00 00        	<unknown>
    1342: 00 00        	<unknown>
    1344: 1c 17        	<unknown>
    1346: 00 00        	<unknown>
    1348: 10 d9        	<unknown>
    134a: 00 00        	<unknown>
    134c: 00 00        	<unknown>
    134e: 00 00        	<unknown>
    1350: 44 17        	<unknown>
    1352: 00 00        	<unknown>
    1354: 10 da        	<unknown>
    1356: 00 00        	<unknown>
    1358: 00 00        	<unknown>
    135a: 00 00        	<unknown>
    135c: 74 17        	<unknown>
    135e: 00 00        	<unknown>
    1360: 10 db        	<unknown>
    1362: 00 00        	<unknown>
    1364: 00 00        	<unknown>
    1366: 00 00        	<unknown>
    1368: 88 17        	<unknown>
    136a: 00 00        	<unknown>
    136c: 10 dc        	<unknown>
    136e: 00 00        	<unknown>
    1370: 00 00        	<unknown>
    1372: 00 00        	<unknown>
    1374: b0 17        	<unknown>
    1376: 00 00        	<unknown>
    1378: 10 dd        	<unknown>
    137a: 00 00        	<unknown>
    137c: 00 00        	<unknown>
    137e: 00 00        	<unknown>
    1380: b4 17        	<unknown>
    1382: 00 00        	<unknown>
    1384: 11 cd        	<unknown>
    1386: 00 00        	<unknown>
    1388: 00 00        	<unknown>
    138a: 00 00        	<unknown>
    138c: c0 17        	<unknown>
    138e: 00 00        	<unknown>
    1390: 10 de        	<unknown>
    1392: 00 00        	<unknown>
    1394: 00 00        	<unknown>
    1396: 00 00        	<unknown>
    1398: d0 17        	<unknown>
    139a: 00 00        	<unknown>
    139c: 10 df        	<unknown>
    139e: 00 00        	<unknown>
    13a0: 00 00        	<unknown>
    13a2: 00 00        	<unknown>
    13a4: d4 17        	<unknown>
    13a6: 00 00        	<unknown>
    13a8: 11 e0        	<unknown>
    13aa: 00 00        	<unknown>
    13ac: 00 00        	<unknown>
    13ae: 00 00        	<unknown>
    13b0: e4 17        	<unknown>
    13b2: 00 00        	<unknown>
    13b4: 10 e0        	<unknown>
    13b6: 00 00        	<unknown>
    13b8: 00 00        	<unknown>
    13ba: 00 00        	<unknown>
    13bc: f0 17        	<unknown>
    13be: 00 00        	<unknown>
    13c0: 10 e1        	<unknown>
    13c2: 00 00        	<unknown>
    13c4: 00 00        	<unknown>
    13c6: 00 00        	<unknown>
    13c8: fc 17        	<unknown>
    13ca: 00 00        	<unknown>
    13cc: 10 e2        	<unknown>
    13ce: 00 00        	<unknown>
    13d0: 00 00        	<unknown>
    13d2: 00 00        	<unknown>
    13d4: 20 18        	<unknown>
    13d6: 00 00        	<unknown>
    13d8: 10 e3        	<unknown>
    13da: 00 00        	<unknown>
    13dc: 00 00        	<unknown>
    13de: 00 00        	<unknown>
    13e0: 30 18        	<unknown>
    13e2: 00 00        	<unknown>
    13e4: 11 e4        	<unknown>
    13e6: 00 00        	<unknown>
    13e8: 00 00        	<unknown>
    13ea: 00 00        	<unknown>
    13ec: 40 18        	<unknown>
    13ee: 00 00        	<unknown>
    13f0: 17 e6 00 00  	auipc	a2, 14
    13f4: 00 00        	<unknown>
    13f6: 00 00        	<unknown>
    13f8: 40 18        	<unknown>
    13fa: 00 00        	<unknown>
    13fc: 33 00 00 00  	add	zero, zero, zero
    1400: 00 00        	<unknown>
    1402: 00 00        	<unknown>
    1404: 44 18        	<unknown>
    1406: 00 00        	<unknown>
    1408: 18 e5        	<unknown>
    140a: 00 00        	<unknown>
    140c: 00 00        	<unknown>
    140e: 00 00        	<unknown>
    1410: 44 18        	<unknown>
    1412: 00 00        	<unknown>
    1414: 33 00 00 00  	add	zero, zero, zero
    1418: 00 00        	<unknown>
    141a: 00 00        	<unknown>
    141c: 60 18        	<unknown>
    141e: 00 00        	<unknown>
    1420: 17 c6 00 00  	auipc	a2, 12
    1424: 00 00        	<unknown>
    1426: 00 00        	<unknown>
    1428: 60 18        	<unknown>
    142a: 00 00        	<unknown>
    142c: 33 00 00 00  	add	zero, zero, zero
    1430: 00 00        	<unknown>
    1432: 00 00        	<unknown>
    1434: 64 18        	<unknown>
    1436: 00 00        	<unknown>
    1438: 18 e7        	<unknown>
    143a: 00 00        	<unknown>
    143c: 00 00        	<unknown>
    143e: 00 00        	<unknown>
    1440: 64 18        	<unknown>
    1442: 00 00        	<unknown>
    1444: 33 00 00 00  	add	zero, zero, zero
    1448: 00 00        	<unknown>
    144a: 00 00        	<unknown>
    144c: 78 18        	<unknown>
    144e: 00 00        	<unknown>
    1450: 10 e8        	<unknown>
    1452: 00 00        	<unknown>
    1454: 00 00        	<unknown>
    1456: 00 00        	<unknown>
    1458: 88 18        	<unknown>
    145a: 00 00        	<unknown>
    145c: 10 e9        	<unknown>
    145e: 00 00        	<unknown>
    1460: 00 00        	<unknown>
    1462: 00 00        	<unknown>
    1464: 94 18        	<unknown>
    1466: 00 00        	<unknown>
    1468: 11 e9        	<unknown>
    146a: 00 00        	<unknown>
    146c: 00 00        	<unknown>
    146e: 00 00        	<unknown>
    1470: 9c 18        	<unknown>
    1472: 00 00        	<unknown>
    1474: 10 e9        	<unknown>
    1476: 00 00        	<unknown>
    1478: 00 00        	<unknown>
    147a: 00 00        	<unknown>
    147c: b0 18        	<unknown>
    147e: 00 00        	<unknown>
    1480: 10 ea        	<unknown>
    1482: 00 00        	<unknown>
    1484: 00 00        	<unknown>
    1486: 00 00        	<unknown>
    1488: b8 18        	<unknown>
    148a: 00 00        	<unknown>
    148c: 10 eb        	<unknown>
    148e: 00 00        	<unknown>
    1490: 00 00        	<unknown>
    1492: 00 00        	<unknown>
    1494: 08 19        	<unknown>
    1496: 00 00        	<unknown>
    1498: 10 ec        	<unknown>
    149a: 00 00        	<unknown>
    149c: 00 00        	<unknown>
    149e: 00 00        	<unknown>
    14a0: 20 19        	<unknown>
    14a2: 00 00        	<unknown>
    14a4: 10 ed        	<unknown>
    14a6: 00 00        	<unknown>
    14a8: 00 00        	<unknown>
    14aa: 00 00        	<unknown>
    14ac: 28 19        	<unknown>
    14ae: 00 00        	<unknown>
    14b0: 11 ee        	<unknown>
    14b2: 00 00        	<unknown>
    14b4: 00 00        	<unknown>
    14b6: 00 00        	<unknown>
    14b8: 48 19        	<unknown>
    14ba: 00 00        	<unknown>
    14bc: 10 ef        	<unknown>
    14be: 00 00        	<unknown>
    14c0: 00 00        	<unknown>
    14c2: 00 00        	<unknown>
    14c4: 4c 19        	<unknown>
    14c6: 00 00        	<unknown>
    14c8: 11 eb        	<unknown>
    14ca: 00 00        	<unknown>
    14cc: 00 00        	<unknown>
    14ce: 00 00        	<unknown>
    14d0: 80 19        	<unknown>
    14d2: 00 00        	<unknown>
    14d4: 10 f0        	<unknown>
    14d6: 00 00        	<unknown>
    14d8: 00 00        	<unknown>
    14da: 00 00        	<unknown>
    14dc: 84 19        	<unknown>
    14de: 00 00        	<unknown>
    14e0: 10 eb        	<unknown>
    14e2: 00 00        	<unknown>
    14e4: 00 00        	<unknown>
    14e6: 00 00        	<unknown>
    14e8: a4 19        	<unknown>
    14ea: 00 00        	<unknown>
    14ec: 10 eb        	<unknown>
    14ee: 00 00        	<unknown>
    14f0: 00 00        	<unknown>
    14f2: 00 00        	<unknown>
    14f4: f8 19        	<unknown>
    14f6: 00 00        	<unknown>
    14f8: 10 f1        	<unknown>
    14fa: 00 00        	<unknown>
    14fc: 00 00        	<unknown>
    14fe: 00 00        	<unknown>
    1500: 04 1a        	<unknown>
    1502: 00 00        	<unknown>
    1504: 10 f2        	<unknown>
    1506: 00 00        	<unknown>
    1508: 00 00        	<unknown>
    150a: 00 00        	<unknown>
    150c: 08 1a        	<unknown>
    150e: 00 00        	<unknown>
    1510: 10 f3        	<unknown>
    1512: 00 00        	<unknown>
    1514: 00 00        	<unknown>
    1516: 00 00        	<unknown>
    1518: 2c 1a        	<unknown>
    151a: 00 00        	<unknown>
    151c: 10 f4        	<unknown>
    151e: 00 00        	<unknown>
    1520: 00 00        	<unknown>
    1522: 00 00        	<unknown>
    1524: 34 1a        	<unknown>
    1526: 00 00        	<unknown>
    1528: 10 f2        	<unknown>
    152a: 00 00        	<unknown>
    152c: 00 00        	<unknown>
    152e: 00 00        	<unknown>
    1530: 54 1a        	<unknown>
    1532: 00 00        	<unknown>
    1534: 10 f5        	<unknown>
    1536: 00 00        	<unknown>
    1538: 00 00        	<unknown>
    153a: 00 00        	<unknown>
    153c: 64 1a        	<unknown>
    153e: 00 00        	<unknown>
    1540: 10 f6        	<unknown>
    1542: 00 00        	<unknown>
    1544: 00 00        	<unknown>
    1546: 00 00        	<unknown>
    1548: 74 1a        	<unknown>
    154a: 00 00        	<unknown>
    154c: 10 f7        	<unknown>
    154e: 00 00        	<unknown>
    1550: 00 00        	<unknown>
    1552: 00 00        	<unknown>
    1554: 80 1a        	<unknown>
    1556: 00 00        	<unknown>
    1558: 10 f7        	<unknown>
    155a: 00 00        	<unknown>
    155c: 00 00        	<unknown>
    155e: 00 00        	<unknown>
    1560: 8c 1a        	<unknown>
    1562: 00 00        	<unknown>
    1564: 10 f7        	<unknown>
    1566: 00 00        	<unknown>
    1568: 00 00        	<unknown>
    156a: 00 00        	<unknown>
    156c: 94 1a        	<unknown>
    156e: 00 00        	<unknown>
    1570: 11 f6        	<unknown>
    1572: 00 00        	<unknown>
    1574: 00 00        	<unknown>
    1576: 00 00        	<unknown>
    1578: b8 1a        	<unknown>
    157a: 00 00        	<unknown>
    157c: 10 f8        	<unknown>
    157e: 00 00        	<unknown>
    1580: 00 00        	<unknown>
    1582: 00 00        	<unknown>
    1584: e0 1a        	<unknown>
    1586: 00 00        	<unknown>
    1588: 10 f9        	<unknown>
    158a: 00 00        	<unknown>
    158c: 00 00        	<unknown>
    158e: 00 00        	<unknown>
    1590: 10 1b        	<unknown>
    1592: 00 00        	<unknown>
    1594: 10 fa        	<unknown>
    1596: 00 00        	<unknown>
    1598: 00 00        	<unknown>
    159a: 00 00        	<unknown>
    159c: 24 1b        	<unknown>
    159e: 00 00        	<unknown>
    15a0: 10 dc        	<unknown>
    15a2: 00 00        	<unknown>
    15a4: 00 00        	<unknown>
    15a6: 00 00        	<unknown>
    15a8: 4c 1b        	<unknown>
    15aa: 00 00        	<unknown>
    15ac: 10 fb        	<unknown>
    15ae: 00 00        	<unknown>
    15b0: 00 00        	<unknown>
    15b2: 00 00        	<unknown>
    15b4: 50 1b        	<unknown>
    15b6: 00 00        	<unknown>
    15b8: 11 cd        	<unknown>
    15ba: 00 00        	<unknown>
    15bc: 00 00        	<unknown>
    15be: 00 00        	<unknown>
    15c0: c0 1b        	<unknown>
    15c2: 00 00        	<unknown>
    15c4: 17 fc 00 00  	auipc	s8, 15
    15c8: 00 00        	<unknown>
    15ca: 00 00        	<unknown>
    15cc: c0 1b        	<unknown>
    15ce: 00 00        	<unknown>
    15d0: 33 00 00 00  	add	zero, zero, zero
    15d4: 00 00        	<unknown>
    15d6: 00 00        	<unknown>
    15d8: c4 1b        	<unknown>
    15da: 00 00        	<unknown>
    15dc: 18 0d        	<unknown>
    15de: 01 00        	<unknown>
    15e0: 00 00        	<unknown>
    15e2: 00 00        	<unknown>
    15e4: c4 1b        	<unknown>
    15e6: 00 00        	<unknown>
    15e8: 33 00 00 00  	add	zero, zero, zero
    15ec: 00 00        	<unknown>
    15ee: 00 00        	<unknown>
    15f0: c8 1b        	<unknown>
    15f2: 00 00        	<unknown>
    15f4: 17 fd 00 00  	auipc	s10, 15
    15f8: 00 00        	<unknown>
    15fa: 00 00        	<unknown>
    15fc: c8 1b        	<unknown>
    15fe: 00 00        	<unknown>
    1600: 33 00 00 00  	add	zero, zero, zero
    1604: 00 00        	<unknown>
    1606: 00 00        	<unknown>
    1608: cc 1b        	<unknown>
    160a: 00 00        	<unknown>
    160c: 18 0e        	<unknown>
    160e: 01 00        	<unknown>
    1610: 00 00        	<unknown>
    1612: 00 00        	<unknown>
    1614: cc 1b        	<unknown>
    1616: 00 00        	<unknown>
    1618: 33 00 00 00  	add	zero, zero, zero
    161c: 00 00        	<unknown>
    161e: 00 00        	<unknown>
    1620: f8 1b        	<unknown>
    1622: 00 00        	<unknown>
    1624: 10 0f        	<unknown>
    1626: 01 00        	<unknown>
    1628: 00 00        	<unknown>
    162a: 00 00        	<unknown>
    162c: 48 1c        	<unknown>
    162e: 00 00        	<unknown>
    1630: 13 6a 00 00  	ori	s4, zero, 0
    1634: 00 00        	<unknown>
    1636: 00 00        	<unknown>
    1638: 48 1c        	<unknown>
    163a: 00 00        	<unknown>
    163c: 33 00 00 00  	add	zero, zero, zero
    1640: 00 00        	<unknown>
    1642: 00 00        	<unknown>
    1644: 58 1c        	<unknown>
    1646: 00 00        	<unknown>
    1648: 10 10        	<unknown>
    164a: 01 00        	<unknown>
    164c: 00 00        	<unknown>
    164e: 00 00        	<unknown>
    1650: 68 1c        	<unknown>
    1652: 00 00        	<unknown>
    1654: 10 11        	<unknown>
    1656: 01 00        	<unknown>
    1658: 00 00        	<unknown>
    165a: 00 00        	<unknown>
    165c: 6c 1c        	<unknown>
    165e: 00 00        	<unknown>
    1660: 11 12        	<unknown>
    1662: 01 00        	<unknown>
    1664: 00 00        	<unknown>
    1666: 00 00        	<unknown>
    1668: 7c 1c        	<unknown>
    166a: 00 00        	<unknown>
    166c: 10 12        	<unknown>
    166e: 01 00        	<unknown>
    1670: 00 00        	<unknown>
    1672: 00 00        	<unknown>
    1674: b0 1c        	<unknown>
    1676: 00 00        	<unknown>
    1678: 17 fe 00 00  	auipc	t3, 15
    167c: 00 00        	<unknown>
    167e: 00 00        	<unknown>
    1680: b0 1c        	<unknown>
    1682: 00 00        	<unknown>
    1684: 33 00 00 00  	add	zero, zero, zero
    1688: 00 00        	<unknown>
    168a: 00 00        	<unknown>
    168c: b4 1c        	<unknown>
    168e: 00 00        	<unknown>
    1690: 18 13        	<unknown>
    1692: 01 00        	<unknown>
    1694: 00 00        	<unknown>
    1696: 00 00        	<unknown>
    1698: b4 1c        	<unknown>
    169a: 00 00        	<unknown>
    169c: 33 00 00 00  	add	zero, zero, zero
    16a0: 00 00        	<unknown>
    16a2: 00 00        	<unknown>
    16a4: b8 1c        	<unknown>
    16a6: 00 00        	<unknown>
    16a8: 17 ff 00 00  	auipc	t5, 15
    16ac: 00 00        	<unknown>
    16ae: 00 00        	<unknown>
    16b0: b8 1c        	<unknown>
    16b2: 00 00        	<unknown>
    16b4: 33 00 00 00  	add	zero, zero, zero
    16b8: 00 00        	<unknown>
    16ba: 00 00        	<unknown>
    16bc: bc 1c        	<unknown>
    16be: 00 00        	<unknown>
    16c0: 18 14        	<unknown>
    16c2: 01 00        	<unknown>
    16c4: 00 00        	<unknown>
    16c6: 00 00        	<unknown>
    16c8: bc 1c        	<unknown>
    16ca: 00 00        	<unknown>
    16cc: 33 00 00 00  	add	zero, zero, zero
    16d0: 00 00        	<unknown>
    16d2: 00 00        	<unknown>
    16d4: d0 1c        	<unknown>
    16d6: 00 00        	<unknown>
    16d8: 17 00 01 00  	auipc	zero, 16
    16dc: 00 00        	<unknown>
    16de: 00 00        	<unknown>
    16e0: d0 1c        	<unknown>
    16e2: 00 00        	<unknown>
    16e4: 33 00 00 00  	add	zero, zero, zero
    16e8: 00 00        	<unknown>
    16ea: 00 00        	<unknown>
    16ec: d4 1c        	<unknown>
    16ee: 00 00        	<unknown>
    16f0: 18 15        	<unknown>
    16f2: 01 00        	<unknown>
    16f4: 00 00        	<unknown>
    16f6: 00 00        	<unknown>
    16f8: d4 1c        	<unknown>
    16fa: 00 00        	<unknown>
    16fc: 33 00 00 00  	add	zero, zero, zero
    1700: 00 00        	<unknown>
    1702: 00 00        	<unknown>
    1704: d8 1c        	<unknown>
    1706: 00 00        	<unknown>
    1708: 17 01 01 00  	auipc	sp, 16
    170c: 00 00        	<unknown>
    170e: 00 00        	<unknown>
    1710: d8 1c        	<unknown>
    1712: 00 00        	<unknown>
    1714: 33 00 00 00  	add	zero, zero, zero
    1718: 00 00        	<unknown>
    171a: 00 00        	<unknown>
    171c: dc 1c        	<unknown>
    171e: 00 00        	<unknown>
    1720: 18 16        	<unknown>
    1722: 01 00        	<unknown>
    1724: 00 00        	<unknown>
    1726: 00 00        	<unknown>
    1728: dc 1c        	<unknown>
    172a: 00 00        	<unknown>
    172c: 33 00 00 00  	add	zero, zero, zero
    1730: 00 00        	<unknown>
    1732: 00 00        	<unknown>
    1734: e0 1c        	<unknown>
    1736: 00 00        	<unknown>
    1738: 17 02 01 00  	auipc	tp, 16
    173c: 00 00        	<unknown>
    173e: 00 00        	<unknown>
    1740: e0 1c        	<unknown>
    1742: 00 00        	<unknown>
    1744: 33 00 00 00  	add	zero, zero, zero
    1748: 00 00        	<unknown>
    174a: 00 00        	<unknown>
    174c: e4 1c        	<unknown>
    174e: 00 00        	<unknown>
    1750: 18 17        	<unknown>
    1752: 01 00        	<unknown>
    1754: 00 00        	<unknown>
    1756: 00 00        	<unknown>
    1758: e4 1c        	<unknown>
    175a: 00 00        	<unknown>
    175c: 33 00 00 00  	add	zero, zero, zero
    1760: 00 00        	<unknown>
    1762: 00 00        	<unknown>
    1764: f8 1c        	<unknown>
    1766: 00 00        	<unknown>
    1768: 17 03 01 00  	auipc	t1, 16
    176c: 00 00        	<unknown>
    176e: 00 00        	<unknown>
    1770: f8 1c        	<unknown>
    1772: 00 00        	<unknown>
    1774: 33 00 00 00  	add	zero, zero, zero
    1778: 00 00        	<unknown>
    177a: 00 00        	<unknown>
    177c: fc 1c        	<unknown>
    177e: 00 00        	<unknown>
    1780: 18 18        	<unknown>
    1782: 01 00        	<unknown>
    1784: 00 00        	<unknown>
    1786: 00 00        	<unknown>
    1788: fc 1c        	<unknown>
    178a: 00 00        	<unknown>
    178c: 33 00 00 00  	add	zero, zero, zero
    1790: 00 00        	<unknown>
    1792: 00 00        	<unknown>
    1794: 00 1d        	<unknown>
    1796: 00 00        	<unknown>
    1798: 17 04 01 00  	auipc	s0, 16
    179c: 00 00        	<unknown>
    179e: 00 00        	<unknown>
    17a0: 00 1d        	<unknown>
    17a2: 00 00        	<unknown>
    17a4: 33 00 00 00  	add	zero, zero, zero
    17a8: 00 00        	<unknown>
    17aa: 00 00        	<unknown>
    17ac: 04 1d        	<unknown>
    17ae: 00 00        	<unknown>
    17b0: 18 19        	<unknown>
    17b2: 01 00        	<unknown>
    17b4: 00 00        	<unknown>
    17b6: 00 00        	<unknown>
    17b8: 04 1d        	<unknown>
    17ba: 00 00        	<unknown>
    17bc: 33 00 00 00  	add	zero, zero, zero
    17c0: 00 00        	<unknown>
    17c2: 00 00        	<unknown>
    17c4: 2c 1d        	<unknown>
    17c6: 00 00        	<unknown>
    17c8: 17 06 01 00  	auipc	a2, 16
    17cc: 00 00        	<unknown>
    17ce: 00 00        	<unknown>
    17d0: 2c 1d        	<unknown>
    17d2: 00 00        	<unknown>
    17d4: 33 00 00 00  	add	zero, zero, zero
    17d8: 00 00        	<unknown>
    17da: 00 00        	<unknown>
    17dc: 30 1d        	<unknown>
    17de: 00 00        	<unknown>
    17e0: 18 1a        	<unknown>
    17e2: 01 00        	<unknown>
    17e4: 00 00        	<unknown>
    17e6: 00 00        	<unknown>
    17e8: 30 1d        	<unknown>
    17ea: 00 00        	<unknown>
    17ec: 33 00 00 00  	add	zero, zero, zero
    17f0: 00 00        	<unknown>
    17f2: 00 00        	<unknown>
    17f4: 34 1d        	<unknown>
    17f6: 00 00        	<unknown>
    17f8: 17 07 01 00  	auipc	a4, 16
    17fc: 00 00        	<unknown>
    17fe: 00 00        	<unknown>
    1800: 34 1d        	<unknown>
    1802: 00 00        	<unknown>
    1804: 33 00 00 00  	add	zero, zero, zero
    1808: 00 00        	<unknown>
    180a: 00 00        	<unknown>
    180c: 38 1d        	<unknown>
    180e: 00 00        	<unknown>
    1810: 18 1b        	<unknown>
    1812: 01 00        	<unknown>
    1814: 00 00        	<unknown>
    1816: 00 00        	<unknown>
    1818: 38 1d        	<unknown>
    181a: 00 00        	<unknown>
    181c: 33 00 00 00  	add	zero, zero, zero
    1820: 00 00        	<unknown>
    1822: 00 00        	<unknown>
    1824: 40 1d        	<unknown>
    1826: 00 00        	<unknown>
    1828: 17 05 01 00  	auipc	a0, 16
    182c: 00 00        	<unknown>
    182e: 00 00        	<unknown>
    1830: 40 1d        	<unknown>
    1832: 00 00        	<unknown>
    1834: 33 00 00 00  	add	zero, zero, zero
    1838: 00 00        	<unknown>
    183a: 00 00        	<unknown>
    183c: 44 1d        	<unknown>
    183e: 00 00        	<unknown>
    1840: 18 1c        	<unknown>
    1842: 01 00        	<unknown>
    1844: 00 00        	<unknown>
    1846: 00 00        	<unknown>
    1848: 44 1d        	<unknown>
    184a: 00 00        	<unknown>
    184c: 33 00 00 00  	add	zero, zero, zero
    1850: 00 00        	<unknown>
    1852: 00 00        	<unknown>
    1854: 4c 1d        	<unknown>
    1856: 00 00        	<unknown>
    1858: 17 08 01 00  	auipc	a6, 16
    185c: 00 00        	<unknown>
    185e: 00 00        	<unknown>
    1860: 4c 1d        	<unknown>
    1862: 00 00        	<unknown>
    1864: 33 00 00 00  	add	zero, zero, zero
    1868: 00 00        	<unknown>
    186a: 00 00        	<unknown>
    186c: 50 1d        	<unknown>
    186e: 00 00        	<unknown>
    1870: 18 1d        	<unknown>
    1872: 01 00        	<unknown>
    1874: 00 00        	<unknown>
    1876: 00 00        	<unknown>
    1878: 50 1d        	<unknown>
    187a: 00 00        	<unknown>
    187c: 33 00 00 00  	add	zero, zero, zero
    1880: 00 00        	<unknown>
    1882: 00 00        	<unknown>
    1884: 78 1d        	<unknown>
    1886: 00 00        	<unknown>
    1888: 10 1e        	<unknown>
    188a: 01 00        	<unknown>
    188c: 00 00        	<unknown>
    188e: 00 00        	<unknown>
    1890: 7c 1d        	<unknown>
    1892: 00 00        	<unknown>
    1894: 17 09 01 00  	auipc	s2, 16
    1898: 00 00        	<unknown>
    189a: 00 00        	<unknown>
    189c: 7c 1d        	<unknown>
    189e: 00 00        	<unknown>
    18a0: 33 00 00 00  	add	zero, zero, zero
    18a4: 00 00        	<unknown>
    18a6: 00 00        	<unknown>
    18a8: 80 1d        	<unknown>
    18aa: 00 00        	<unknown>
    18ac: 18 1f        	<unknown>
    18ae: 01 00        	<unknown>
    18b0: 00 00        	<unknown>
    18b2: 00 00        	<unknown>
    18b4: 80 1d        	<unknown>
    18b6: 00 00        	<unknown>
    18b8: 33 00 00 00  	add	zero, zero, zero
    18bc: 00 00        	<unknown>
    18be: 00 00        	<unknown>
    18c0: 9c 1d        	<unknown>
    18c2: 00 00        	<unknown>
    18c4: 10 20        	<unknown>
    18c6: 01 00        	<unknown>
    18c8: 00 00        	<unknown>
    18ca: 00 00        	<unknown>
    18cc: a0 1d        	<unknown>
    18ce: 00 00        	<unknown>
    18d0: 17 0a 01 00  	auipc	s4, 16
    18d4: 00 00        	<unknown>
    18d6: 00 00        	<unknown>
    18d8: a0 1d        	<unknown>
    18da: 00 00        	<unknown>
    18dc: 33 00 00 00  	add	zero, zero, zero
    18e0: 00 00        	<unknown>
    18e2: 00 00        	<unknown>
    18e4: a4 1d        	<unknown>
    18e6: 00 00        	<unknown>
    18e8: 18 21        	<unknown>
    18ea: 01 00        	<unknown>
    18ec: 00 00        	<unknown>
    18ee: 00 00        	<unknown>
    18f0: a4 1d        	<unknown>
    18f2: 00 00        	<unknown>
    18f4: 33 00 00 00  	add	zero, zero, zero
    18f8: 00 00        	<unknown>
    18fa: 00 00        	<unknown>
    18fc: a8 1d        	<unknown>
    18fe: 00 00        	<unknown>
    1900: 17 0b 01 00  	auipc	s6, 16
    1904: 00 00        	<unknown>
    1906: 00 00        	<unknown>
    1908: a8 1d        	<unknown>
    190a: 00 00        	<unknown>
    190c: 33 00 00 00  	add	zero, zero, zero
    1910: 00 00        	<unknown>
    1912: 00 00        	<unknown>
    1914: ac 1d        	<unknown>
    1916: 00 00        	<unknown>
    1918: 18 22        	<unknown>
    191a: 01 00        	<unknown>
    191c: 00 00        	<unknown>
    191e: 00 00        	<unknown>
    1920: ac 1d        	<unknown>
    1922: 00 00        	<unknown>
    1924: 33 00 00 00  	add	zero, zero, zero
    1928: 00 00        	<unknown>
    192a: 00 00        	<unknown>
    192c: bc 1d        	<unknown>
    192e: 00 00        	<unknown>
    1930: 10 23        	<unknown>
    1932: 01 00        	<unknown>
    1934: 00 00        	<unknown>
    1936: 00 00        	<unknown>
    1938: e0 1d        	<unknown>
    193a: 00 00        	<unknown>
    193c: 11 20        	<unknown>
    193e: 01 00        	<unknown>
    1940: 00 00        	<unknown>
    1942: 00 00        	<unknown>
    1944: e4 1d        	<unknown>
    1946: 00 00        	<unknown>
    1948: 10 20        	<unknown>
    194a: 01 00        	<unknown>
    194c: 00 00        	<unknown>
    194e: 00 00        	<unknown>
    1950: e8 1d        	<unknown>
    1952: 00 00        	<unknown>
    1954: 10 24        	<unknown>
    1956: 01 00        	<unknown>
    1958: 00 00        	<unknown>
    195a: 00 00        	<unknown>
    195c: f0 1d        	<unknown>
    195e: 00 00        	<unknown>
    1960: 11 20        	<unknown>
    1962: 01 00        	<unknown>
    1964: 00 00        	<unknown>
    1966: 00 00        	<unknown>
    1968: 20 1e        	<unknown>
    196a: 00 00        	<unknown>
    196c: 10 25        	<unknown>
    196e: 01 00        	<unknown>
    1970: 00 00        	<unknown>
    1972: 00 00        	<unknown>
    1974: 24 1e        	<unknown>
    1976: 00 00        	<unknown>
    1978: 17 0c 01 00  	auipc	s8, 16
    197c: 00 00        	<unknown>
    197e: 00 00        	<unknown>
    1980: 24 1e        	<unknown>
    1982: 00 00        	<unknown>
    1984: 33 00 00 00  	add	zero, zero, zero
    1988: 00 00        	<unknown>
    198a: 00 00        	<unknown>
    198c: 28 1e        	<unknown>
    198e: 00 00        	<unknown>
    1990: 18 26        	<unknown>
    1992: 01 00        	<unknown>
    1994: 00 00        	<unknown>
    1996: 00 00        	<unknown>
    1998: 28 1e        	<unknown>
    199a: 00 00        	<unknown>
    199c: 33 00 00 00  	add	zero, zero, zero
    19a0: 00 00        	<unknown>
    19a2: 00 00        	<unknown>
    19a4: 34 1e        	<unknown>
    19a6: 00 00        	<unknown>
    19a8: 10 27        	<unknown>
    19aa: 01 00        	<unknown>
    19ac: 00 00        	<unknown>
    19ae: 00 00        	<unknown>
    19b0: 58 1e        	<unknown>
    19b2: 00 00        	<unknown>
    19b4: 13 6a 00 00  	ori	s4, zero, 0
    19b8: 00 00        	<unknown>
    19ba: 00 00        	<unknown>
    19bc: 58 1e        	<unknown>
    19be: 00 00        	<unknown>
    19c0: 33 00 00 00  	add	zero, zero, zero
    19c4: 00 00        	<unknown>
    19c6: 00 00        	<unknown>
    19c8: 64 1e        	<unknown>
    19ca: 00 00        	<unknown>
    19cc: 10 28        	<unknown>
    19ce: 01 00        	<unknown>
    19d0: 00 00        	<unknown>
    19d2: 00 00        	<unknown>
    19d4: d8 1e        	<unknown>
    19d6: 00 00        	<unknown>
    19d8: 10 29        	<unknown>
    19da: 01 00        	<unknown>
    19dc: 00 00        	<unknown>
    19de: 00 00        	<unknown>
    19e0: e4 1e        	<unknown>
    19e2: 00 00        	<unknown>
    19e4: 10 2a        	<unknown>
    19e6: 01 00        	<unknown>
    19e8: 00 00        	<unknown>
    19ea: 00 00        	<unknown>
    19ec: e8 1e        	<unknown>
    19ee: 00 00        	<unknown>
    19f0: 10 2b        	<unknown>
    19f2: 01 00        	<unknown>
    19f4: 00 00        	<unknown>
    19f6: 00 00        	<unknown>
    19f8: f0 1e        	<unknown>
    19fa: 00 00        	<unknown>
    19fc: 10 2d        	<unknown>
    19fe: 01 00        	<unknown>
    1a00: 00 00        	<unknown>
    1a02: 00 00        	<unknown>
    1a04: 44 1f        	<unknown>
    1a06: 00 00        	<unknown>
    1a08: 10 2f        	<unknown>
    1a0a: 01 00        	<unknown>
    1a0c: 00 00        	<unknown>
    1a0e: 00 00        	<unknown>
    1a10: 58 1f        	<unknown>
    1a12: 00 00        	<unknown>
    1a14: 10 30        	<unknown>
    1a16: 01 00        	<unknown>
    1a18: 00 00        	<unknown>
    1a1a: 00 00        	<unknown>
    1a1c: 80 1f        	<unknown>
    1a1e: 00 00        	<unknown>
    1a20: 10 31        	<unknown>
    1a22: 01 00        	<unknown>
    1a24: 00 00        	<unknown>
    1a26: 00 00        	<unknown>
    1a28: 84 1f        	<unknown>
    1a2a: 00 00        	<unknown>
    1a2c: 11 28        	<unknown>
    1a2e: 01 00        	<unknown>
    1a30: 00 00        	<unknown>
    1a32: 00 00        	<unknown>
    1a34: 8c 1f        	<unknown>
    1a36: 00 00        	<unknown>
    1a38: 10 2c        	<unknown>
    1a3a: 01 00        	<unknown>
    1a3c: 00 00        	<unknown>
    1a3e: 00 00        	<unknown>
    1a40: a4 1f        	<unknown>
    1a42: 00 00        	<unknown>
    1a44: 10 32        	<unknown>
    1a46: 01 00        	<unknown>
    1a48: 00 00        	<unknown>
    1a4a: 00 00        	<unknown>
    1a4c: b0 1f        	<unknown>
    1a4e: 00 00        	<unknown>
    1a50: 10 2e        	<unknown>
    1a52: 01 00        	<unknown>
    1a54: 00 00        	<unknown>
    1a56: 00 00        	<unknown>
    1a58: b4 1f        	<unknown>
    1a5a: 00 00        	<unknown>
    1a5c: 11 2d        	<unknown>
    1a5e: 01 00        	<unknown>
    1a60: 00 00        	<unknown>
    1a62: 00 00        	<unknown>
    1a64: 00 20        	<unknown>
    1a66: 00 00        	<unknown>
    1a68: 17 6a 01 00  	auipc	s4, 22
    1a6c: 00 00        	<unknown>
    1a6e: 00 00        	<unknown>
    1a70: 00 20        	<unknown>
    1a72: 00 00        	<unknown>
    1a74: 33 00 00 00  	add	zero, zero, zero
    1a78: 00 00        	<unknown>
    1a7a: 00 00        	<unknown>
    1a7c: 04 20        	<unknown>
    1a7e: 00 00        	<unknown>
    1a80: 18 33        	<unknown>
    1a82: 01 00        	<unknown>
    1a84: 00 00        	<unknown>
    1a86: 00 00        	<unknown>
    1a88: 04 20        	<unknown>
    1a8a: 00 00        	<unknown>
    1a8c: 33 00 00 00  	add	zero, zero, zero
    1a90: 00 00        	<unknown>
    1a92: 00 00        	<unknown>
    1a94: 38 20        	<unknown>
    1a96: 00 00        	<unknown>
    1a98: 10 34        	<unknown>
    1a9a: 01 00        	<unknown>
    1a9c: 00 00        	<unknown>
    1a9e: 00 00        	<unknown>
    1aa0: 70 20        	<unknown>
    1aa2: 00 00        	<unknown>
    1aa4: 17 9a 01 00  	auipc	s4, 25
    1aa8: 00 00        	<unknown>
    1aaa: 00 00        	<unknown>
    1aac: 70 20        	<unknown>
    1aae: 00 00        	<unknown>
    1ab0: 33 00 00 00  	add	zero, zero, zero
    1ab4: 00 00        	<unknown>
    1ab6: 00 00        	<unknown>
    1ab8: 74 20        	<unknown>
    1aba: 00 00        	<unknown>
    1abc: 19 35        	<unknown>
    1abe: 01 00        	<unknown>
    1ac0: 00 00        	<unknown>
    1ac2: 00 00        	<unknown>
    1ac4: 74 20        	<unknown>
    1ac6: 00 00        	<unknown>
    1ac8: 33 00 00 00  	add	zero, zero, zero
    1acc: 00 00        	<unknown>
    1ace: 00 00        	<unknown>
    1ad0: 78 20        	<unknown>
    1ad2: 00 00        	<unknown>
    1ad4: 17 9b 01 00  	auipc	s6, 25
    1ad8: 00 00        	<unknown>
    1ada: 00 00        	<unknown>
    1adc: 78 20        	<unknown>
    1ade: 00 00        	<unknown>
    1ae0: 33 00 00 00  	add	zero, zero, zero
    1ae4: 00 00        	<unknown>
    1ae6: 00 00        	<unknown>
    1ae8: 7c 20        	<unknown>
    1aea: 00 00        	<unknown>
    1aec: 18 36        	<unknown>
    1aee: 01 00        	<unknown>
    1af0: 00 00        	<unknown>
    1af2: 00 00        	<unknown>
    1af4: 7c 20        	<unknown>
    1af6: 00 00        	<unknown>
    1af8: 33 00 00 00  	add	zero, zero, zero
    1afc: 00 00        	<unknown>
    1afe: 00 00        	<unknown>
    1b00: 80 20        	<unknown>
    1b02: 00 00        	<unknown>
    1b04: 10 37        	<unknown>
    1b06: 01 00        	<unknown>
    1b08: 00 00        	<unknown>
    1b0a: 00 00        	<unknown>
    1b0c: 84 20        	<unknown>
    1b0e: 00 00        	<unknown>
    1b10: 19 36        	<unknown>
    1b12: 01 00        	<unknown>
    1b14: 00 00        	<unknown>
    1b16: 00 00        	<unknown>
    1b18: 84 20        	<unknown>
    1b1a: 00 00        	<unknown>
    1b1c: 33 00 00 00  	add	zero, zero, zero
    1b20: 00 00        	<unknown>
    1b22: 00 00        	<unknown>
    1b24: c0 20        	<unknown>
    1b26: 00 00        	<unknown>
    1b28: 17 39 01 00  	auipc	s2, 19
    1b2c: 00 00        	<unknown>
    1b2e: 00 00        	<unknown>
    1b30: c0 20        	<unknown>
    1b32: 00 00        	<unknown>
    1b34: 33 00 00 00  	add	zero, zero, zero
    1b38: 00 00        	<unknown>
    1b3a: 00 00        	<unknown>
    1b3c: c4 20        	<unknown>
    1b3e: 00 00        	<unknown>
    1b40: 18 38        	<unknown>
    1b42: 01 00        	<unknown>
    1b44: 00 00        	<unknown>
    1b46: 00 00        	<unknown>
    1b48: c4 20        	<unknown>
    1b4a: 00 00        	<unknown>
    1b4c: 33 00 00 00  	add	zero, zero, zero
    1b50: 00 00        	<unknown>
    1b52: 00 00        	<unknown>
    1b54: d4 20        	<unknown>
    1b56: 00 00        	<unknown>
    1b58: 13 3d 00 00  	sltiu	s10, zero, 0
    1b5c: 00 00        	<unknown>
    1b5e: 00 00        	<unknown>
    1b60: d4 20        	<unknown>
    1b62: 00 00        	<unknown>
    1b64: 33 00 00 00  	add	zero, zero, zero
    1b68: 00 00        	<unknown>
    1b6a: 00 00        	<unknown>
    1b6c: e8 20        	<unknown>
    1b6e: 00 00        	<unknown>
    1b70: 10 3a        	<unknown>
    1b72: 01 00        	<unknown>
    1b74: 00 00        	<unknown>
    1b76: 00 00        	<unknown>
    1b78: 28 21        	<unknown>
    1b7a: 00 00        	<unknown>
    1b7c: 17 39 01 00  	auipc	s2, 19
    1b80: 00 00        	<unknown>
    1b82: 00 00        	<unknown>
    1b84: 28 21        	<unknown>
    1b86: 00 00        	<unknown>
    1b88: 33 00 00 00  	add	zero, zero, zero
    1b8c: 00 00        	<unknown>
    1b8e: 00 00        	<unknown>
    1b90: 2c 21        	<unknown>
    1b92: 00 00        	<unknown>
    1b94: 18 3b        	<unknown>
    1b96: 01 00        	<unknown>
    1b98: 00 00        	<unknown>
    1b9a: 00 00        	<unknown>
    1b9c: 2c 21        	<unknown>
    1b9e: 00 00        	<unknown>
    1ba0: 33 00 00 00  	add	zero, zero, zero
    1ba4: 00 00        	<unknown>
    1ba6: 00 00        	<unknown>
    1ba8: 38 21        	<unknown>
    1baa: 00 00        	<unknown>
    1bac: 13 3d 00 00  	sltiu	s10, zero, 0
    1bb0: 00 00        	<unknown>
    1bb2: 00 00        	<unknown>
    1bb4: 38 21        	<unknown>
    1bb6: 00 00        	<unknown>
    1bb8: 33 00 00 00  	add	zero, zero, zero
    1bbc: 00 00        	<unknown>
    1bbe: 00 00        	<unknown>
    1bc0: 5c 21        	<unknown>
    1bc2: 00 00        	<unknown>
    1bc4: 17 3c 00 00  	auipc	s8, 3
    1bc8: 00 00        	<unknown>
    1bca: 00 00        	<unknown>
    1bcc: 5c 21        	<unknown>
    1bce: 00 00        	<unknown>
    1bd0: 33 00 00 00  	add	zero, zero, zero
    1bd4: 00 00        	<unknown>
    1bd6: 00 00        	<unknown>
    1bd8: 60 21        	<unknown>
    1bda: 00 00        	<unknown>
    1bdc: 18 3c        	<unknown>
    1bde: 01 00        	<unknown>
    1be0: 00 00        	<unknown>
    1be2: 00 00        	<unknown>
    1be4: 60 21        	<unknown>
    1be6: 00 00        	<unknown>
    1be8: 33 00 00 00  	add	zero, zero, zero
    1bec: 00 00        	<unknown>
    1bee: 00 00        	<unknown>
    1bf0: 6c 21        	<unknown>
    1bf2: 00 00        	<unknown>
    1bf4: 13 3d 00 00  	sltiu	s10, zero, 0
    1bf8: 00 00        	<unknown>
    1bfa: 00 00        	<unknown>
    1bfc: 6c 21        	<unknown>
    1bfe: 00 00        	<unknown>
    1c00: 33 00 00 00  	add	zero, zero, zero
    1c04: 00 00        	<unknown>
    1c06: 00 00        	<unknown>
    1c08: 80 21        	<unknown>
    1c0a: 00 00        	<unknown>
    1c0c: 17 39 01 00  	auipc	s2, 19
    1c10: 00 00        	<unknown>
    1c12: 00 00        	<unknown>
    1c14: 80 21        	<unknown>
    1c16: 00 00        	<unknown>
    1c18: 33 00 00 00  	add	zero, zero, zero
    1c1c: 00 00        	<unknown>
    1c1e: 00 00        	<unknown>
    1c20: 84 21        	<unknown>
    1c22: 00 00        	<unknown>
    1c24: 18 3d        	<unknown>
    1c26: 01 00        	<unknown>
    1c28: 00 00        	<unknown>
    1c2a: 00 00        	<unknown>
    1c2c: 84 21        	<unknown>
    1c2e: 00 00        	<unknown>
    1c30: 33 00 00 00  	add	zero, zero, zero
    1c34: 00 00        	<unknown>
    1c36: 00 00        	<unknown>
    1c38: a0 21        	<unknown>
    1c3a: 00 00        	<unknown>
    1c3c: 13 3d 00 00  	sltiu	s10, zero, 0
    1c40: 00 00        	<unknown>
    1c42: 00 00        	<unknown>
    1c44: a0 21        	<unknown>
    1c46: 00 00        	<unknown>
    1c48: 33 00 00 00  	add	zero, zero, zero
    1c4c: 00 00        	<unknown>
    1c4e: 00 00        	<unknown>
    1c50: d8 21        	<unknown>
    1c52: 00 00        	<unknown>
    1c54: 17 3f 01 00  	auipc	t5, 19
    1c58: 00 00        	<unknown>
    1c5a: 00 00        	<unknown>
    1c5c: d8 21        	<unknown>
    1c5e: 00 00        	<unknown>
    1c60: 33 00 00 00  	add	zero, zero, zero
    1c64: 00 00        	<unknown>
    1c66: 00 00        	<unknown>
    1c68: dc 21        	<unknown>
    1c6a: 00 00        	<unknown>
    1c6c: 18 3e        	<unknown>
    1c6e: 01 00        	<unknown>
    1c70: 00 00        	<unknown>
    1c72: 00 00        	<unknown>
    1c74: dc 21        	<unknown>
    1c76: 00 00        	<unknown>
    1c78: 33 00 00 00  	add	zero, zero, zero
    1c7c: 00 00        	<unknown>
    1c7e: 00 00        	<unknown>
    1c80: f0 21        	<unknown>
    1c82: 00 00        	<unknown>
    1c84: 13 3d 00 00  	sltiu	s10, zero, 0
    1c88: 00 00        	<unknown>
    1c8a: 00 00        	<unknown>
    1c8c: f0 21        	<unknown>
    1c8e: 00 00        	<unknown>
    1c90: 33 00 00 00  	add	zero, zero, zero
    1c94: 00 00        	<unknown>
    1c96: 00 00        	<unknown>
    1c98: 04 22        	<unknown>
    1c9a: 00 00        	<unknown>
    1c9c: 10 40        	<unknown>
    1c9e: 01 00        	<unknown>
    1ca0: 00 00        	<unknown>
    1ca2: 00 00        	<unknown>
    1ca4: 38 22        	<unknown>
    1ca6: 00 00        	<unknown>
    1ca8: 10 41        	<unknown>
    1caa: 01 00        	<unknown>
    1cac: 00 00        	<unknown>
    1cae: 00 00        	<unknown>
    1cb0: 48 22        	<unknown>
    1cb2: 00 00        	<unknown>
    1cb4: 17 a3 01 00  	auipc	t1, 26
    1cb8: 00 00        	<unknown>
    1cba: 00 00        	<unknown>
    1cbc: 48 22        	<unknown>
    1cbe: 00 00        	<unknown>
    1cc0: 33 00 00 00  	add	zero, zero, zero
    1cc4: 00 00        	<unknown>
    1cc6: 00 00        	<unknown>
    1cc8: 4c 22        	<unknown>
    1cca: 00 00        	<unknown>
    1ccc: 18 42        	<unknown>
    1cce: 01 00        	<unknown>
    1cd0: 00 00        	<unknown>
    1cd2: 00 00        	<unknown>
    1cd4: 4c 22        	<unknown>
    1cd6: 00 00        	<unknown>
    1cd8: 33 00 00 00  	add	zero, zero, zero
    1cdc: 00 00        	<unknown>
    1cde: 00 00        	<unknown>
    1ce0: 50 22        	<unknown>
    1ce2: 00 00        	<unknown>
    1ce4: 17 a4 01 00  	auipc	s0, 26
    1ce8: 00 00        	<unknown>
    1cea: 00 00        	<unknown>
    1cec: 50 22        	<unknown>
    1cee: 00 00        	<unknown>
    1cf0: 33 00 00 00  	add	zero, zero, zero
    1cf4: 00 00        	<unknown>
    1cf6: 00 00        	<unknown>
    1cf8: 54 22        	<unknown>
    1cfa: 00 00        	<unknown>
    1cfc: 18 43        	<unknown>
    1cfe: 01 00        	<unknown>
    1d00: 00 00        	<unknown>
    1d02: 00 00        	<unknown>
    1d04: 54 22        	<unknown>
    1d06: 00 00        	<unknown>
    1d08: 33 00 00 00  	add	zero, zero, zero
    1d0c: 00 00        	<unknown>
    1d0e: 00 00        	<unknown>
    1d10: 5c 22        	<unknown>
    1d12: 00 00        	<unknown>
    1d14: 10 44        	<unknown>
    1d16: 01 00        	<unknown>
    1d18: 00 00        	<unknown>
    1d1a: 00 00        	<unknown>
    1d1c: 78 22        	<unknown>
    1d1e: 00 00        	<unknown>
    1d20: 10 45        	<unknown>
    1d22: 01 00        	<unknown>
    1d24: 00 00        	<unknown>
    1d26: 00 00        	<unknown>
    1d28: 84 22        	<unknown>
    1d2a: 00 00        	<unknown>
    1d2c: 10 46        	<unknown>
    1d2e: 01 00        	<unknown>
    1d30: 00 00        	<unknown>
    1d32: 00 00        	<unknown>
    1d34: 9c 22        	<unknown>
    1d36: 00 00        	<unknown>
    1d38: 11 47        	<unknown>
    1d3a: 01 00        	<unknown>
    1d3c: 00 00        	<unknown>
    1d3e: 00 00        	<unknown>
    1d40: a4 22        	<unknown>
    1d42: 00 00        	<unknown>
    1d44: 10 45        	<unknown>
    1d46: 01 00        	<unknown>
    1d48: 00 00        	<unknown>
    1d4a: 00 00        	<unknown>
    1d4c: b0 22        	<unknown>
    1d4e: 00 00        	<unknown>
    1d50: 10 48        	<unknown>
    1d52: 01 00        	<unknown>
    1d54: 00 00        	<unknown>
    1d56: 00 00        	<unknown>
    1d58: c4 22        	<unknown>
    1d5a: 00 00        	<unknown>
    1d5c: 11 48        	<unknown>
    1d5e: 01 00        	<unknown>
    1d60: 00 00        	<unknown>
    1d62: 00 00        	<unknown>
    1d64: d8 22        	<unknown>
    1d66: 00 00        	<unknown>
    1d68: 10 49        	<unknown>
    1d6a: 01 00        	<unknown>
    1d6c: 00 00        	<unknown>
    1d6e: 00 00        	<unknown>
    1d70: f4 22        	<unknown>
    1d72: 00 00        	<unknown>
    1d74: 17 a5 01 00  	auipc	a0, 26
    1d78: 00 00        	<unknown>
    1d7a: 00 00        	<unknown>
    1d7c: f4 22        	<unknown>
    1d7e: 00 00        	<unknown>
    1d80: 33 00 00 00  	add	zero, zero, zero
    1d84: 00 00        	<unknown>
    1d86: 00 00        	<unknown>
    1d88: f8 22        	<unknown>
    1d8a: 00 00        	<unknown>
    1d8c: 18 4a        	<unknown>
    1d8e: 01 00        	<unknown>
    1d90: 00 00        	<unknown>
    1d92: 00 00        	<unknown>
    1d94: f8 22        	<unknown>
    1d96: 00 00        	<unknown>
    1d98: 33 00 00 00  	add	zero, zero, zero
    1d9c: 00 00        	<unknown>
    1d9e: 00 00        	<unknown>
    1da0: fc 22        	<unknown>
    1da2: 00 00        	<unknown>
    1da4: 17 a6 01 00  	auipc	a2, 26
    1da8: 00 00        	<unknown>
    1daa: 00 00        	<unknown>
    1dac: fc 22        	<unknown>
    1dae: 00 00        	<unknown>
    1db0: 33 00 00 00  	add	zero, zero, zero
    1db4: 00 00        	<unknown>
    1db6: 00 00        	<unknown>
    1db8: 00 23        	<unknown>
    1dba: 00 00        	<unknown>
    1dbc: 18 4b        	<unknown>
    1dbe: 01 00        	<unknown>
    1dc0: 00 00        	<unknown>
    1dc2: 00 00        	<unknown>
    1dc4: 00 23        	<unknown>
    1dc6: 00 00        	<unknown>
    1dc8: 33 00 00 00  	add	zero, zero, zero
    1dcc: 00 00        	<unknown>
    1dce: 00 00        	<unknown>
    1dd0: 14 23        	<unknown>
    1dd2: 00 00        	<unknown>
    1dd4: 10 4c        	<unknown>
    1dd6: 01 00        	<unknown>
    1dd8: 00 00        	<unknown>
    1dda: 00 00        	<unknown>
    1ddc: 2c 23        	<unknown>
    1dde: 00 00        	<unknown>
    1de0: 1d 63        	<unknown>
    1de2: 01 00        	<unknown>
    1de4: 00 00        	<unknown>
    1de6: 00 00        	<unknown>
    1de8: 2c 23        	<unknown>
    1dea: 00 00        	<unknown>
    1dec: 33 00 00 00  	add	zero, zero, zero
    1df0: 00 00        	<unknown>
    1df2: 00 00        	<unknown>
    1df4: 30 23        	<unknown>
    1df6: 00 00        	<unknown>
    1df8: 20 63        	<unknown>
    1dfa: 01 00        	<unknown>
    1dfc: 00 00        	<unknown>
    1dfe: 00 00        	<unknown>
    1e00: 30 23        	<unknown>
    1e02: 00 00        	<unknown>
    1e04: 33 00 00 00  	add	zero, zero, zero
    1e08: 00 00        	<unknown>
    1e0a: 00 00        	<unknown>
    1e0c: 34 23        	<unknown>
    1e0e: 00 00        	<unknown>
    1e10: 17 a7 01 00  	auipc	a4, 26
    1e14: 00 00        	<unknown>
    1e16: 00 00        	<unknown>
    1e18: 34 23        	<unknown>
    1e1a: 00 00        	<unknown>
    1e1c: 33 00 00 00  	add	zero, zero, zero
    1e20: 00 00        	<unknown>
    1e22: 00 00        	<unknown>
    1e24: 38 23        	<unknown>
    1e26: 00 00        	<unknown>
    1e28: 18 4d        	<unknown>
    1e2a: 01 00        	<unknown>
    1e2c: 00 00        	<unknown>
    1e2e: 00 00        	<unknown>
    1e30: 38 23        	<unknown>
    1e32: 00 00        	<unknown>
    1e34: 33 00 00 00  	add	zero, zero, zero
    1e38: 00 00        	<unknown>
    1e3a: 00 00        	<unknown>
    1e3c: 3c 23        	<unknown>
    1e3e: 00 00        	<unknown>
    1e40: 17 a8 01 00  	auipc	a6, 26
    1e44: 00 00        	<unknown>
    1e46: 00 00        	<unknown>
    1e48: 3c 23        	<unknown>
    1e4a: 00 00        	<unknown>
    1e4c: 33 00 00 00  	add	zero, zero, zero
    1e50: 00 00        	<unknown>
    1e52: 00 00        	<unknown>
    1e54: 40 23        	<unknown>
    1e56: 00 00        	<unknown>
    1e58: 18 4e        	<unknown>
    1e5a: 01 00        	<unknown>
    1e5c: 00 00        	<unknown>
    1e5e: 00 00        	<unknown>
    1e60: 40 23        	<unknown>
    1e62: 00 00        	<unknown>
    1e64: 33 00 00 00  	add	zero, zero, zero
    1e68: 00 00        	<unknown>
    1e6a: 00 00        	<unknown>
    1e6c: 48 23        	<unknown>
    1e6e: 00 00        	<unknown>
    1e70: 17 a9 01 00  	auipc	s2, 26
    1e74: 00 00        	<unknown>
    1e76: 00 00        	<unknown>
    1e78: 48 23        	<unknown>
    1e7a: 00 00        	<unknown>
    1e7c: 33 00 00 00  	add	zero, zero, zero
    1e80: 00 00        	<unknown>
    1e82: 00 00        	<unknown>
    1e84: 4c 23        	<unknown>
    1e86: 00 00        	<unknown>
    1e88: 18 4f        	<unknown>
    1e8a: 01 00        	<unknown>
    1e8c: 00 00        	<unknown>
    1e8e: 00 00        	<unknown>
    1e90: 4c 23        	<unknown>
    1e92: 00 00        	<unknown>
    1e94: 33 00 00 00  	add	zero, zero, zero
    1e98: 00 00        	<unknown>
    1e9a: 00 00        	<unknown>
    1e9c: 50 23        	<unknown>
    1e9e: 00 00        	<unknown>
    1ea0: 17 aa 01 00  	auipc	s4, 26
    1ea4: 00 00        	<unknown>
    1ea6: 00 00        	<unknown>
    1ea8: 50 23        	<unknown>
    1eaa: 00 00        	<unknown>
    1eac: 33 00 00 00  	add	zero, zero, zero
    1eb0: 00 00        	<unknown>
    1eb2: 00 00        	<unknown>
    1eb4: 54 23        	<unknown>
    1eb6: 00 00        	<unknown>
    1eb8: 18 50        	<unknown>
    1eba: 01 00        	<unknown>
    1ebc: 00 00        	<unknown>
    1ebe: 00 00        	<unknown>
    1ec0: 54 23        	<unknown>
    1ec2: 00 00        	<unknown>
    1ec4: 33 00 00 00  	add	zero, zero, zero
    1ec8: 00 00        	<unknown>
    1eca: 00 00        	<unknown>
    1ecc: 68 23        	<unknown>
    1ece: 00 00        	<unknown>
    1ed0: 1f 63 01 00  	<unknown>
    1ed4: 00 00        	<unknown>
    1ed6: 00 00        	<unknown>
    1ed8: 68 23        	<unknown>
    1eda: 00 00        	<unknown>
    1edc: 33 00 00 00  	add	zero, zero, zero
    1ee0: 00 00        	<unknown>
    1ee2: 00 00        	<unknown>
    1ee4: 6c 23        	<unknown>
    1ee6: 00 00        	<unknown>
    1ee8: 17 8c 01 00  	auipc	s8, 24
    1eec: 00 00        	<unknown>
    1eee: 00 00        	<unknown>
    1ef0: 6c 23        	<unknown>
    1ef2: 00 00        	<unknown>
    1ef4: 33 00 00 00  	add	zero, zero, zero
    1ef8: 00 00        	<unknown>
    1efa: 00 00        	<unknown>
    1efc: 70 23        	<unknown>
    1efe: 00 00        	<unknown>
    1f00: 18 51        	<unknown>
    1f02: 01 00        	<unknown>
    1f04: 00 00        	<unknown>
    1f06: 00 00        	<unknown>
    1f08: 70 23        	<unknown>
    1f0a: 00 00        	<unknown>
    1f0c: 33 00 00 00  	add	zero, zero, zero
    1f10: 00 00        	<unknown>
    1f12: 00 00        	<unknown>
    1f14: 74 23        	<unknown>
    1f16: 00 00        	<unknown>
    1f18: 10 52        	<unknown>
    1f1a: 01 00        	<unknown>
    1f1c: 00 00        	<unknown>
    1f1e: 00 00        	<unknown>
    1f20: 7c 23        	<unknown>
    1f22: 00 00        	<unknown>
    1f24: 13 ab 01 00  	slti	s6, gp, 0
    1f28: 00 00        	<unknown>
    1f2a: 00 00        	<unknown>
    1f2c: 7c 23        	<unknown>
    1f2e: 00 00        	<unknown>
    1f30: 33 00 00 00  	add	zero, zero, zero
    1f34: 00 00        	<unknown>
    1f36: 00 00        	<unknown>
    1f38: 9c 23        	<unknown>
    1f3a: 00 00        	<unknown>
    1f3c: 10 53        	<unknown>
    1f3e: 01 00        	<unknown>
    1f40: 00 00        	<unknown>
    1f42: 00 00        	<unknown>
    1f44: a0 23        	<unknown>
    1f46: 00 00        	<unknown>
    1f48: 11 54        	<unknown>
    1f4a: 01 00        	<unknown>
    1f4c: 00 00        	<unknown>
    1f4e: 00 00        	<unknown>
    1f50: a4 23        	<unknown>
    1f52: 00 00        	<unknown>
    1f54: 10 55        	<unknown>
    1f56: 01 00        	<unknown>
    1f58: 00 00        	<unknown>
    1f5a: 00 00        	<unknown>
    1f5c: c8 23        	<unknown>
    1f5e: 00 00        	<unknown>
    1f60: 1e 63        	<unknown>
    1f62: 01 00        	<unknown>
    1f64: 00 00        	<unknown>
    1f66: 00 00        	<unknown>
    1f68: c8 23        	<unknown>
    1f6a: 00 00        	<unknown>
    1f6c: 33 00 00 00  	add	zero, zero, zero
    1f70: 00 00        	<unknown>
    1f72: 00 00        	<unknown>
    1f74: cc 23        	<unknown>
    1f76: 00 00        	<unknown>
    1f78: 10 56        	<unknown>
    1f7a: 01 00        	<unknown>
    1f7c: 00 00        	<unknown>
    1f7e: 00 00        	<unknown>
    1f80: 00 24        	<unknown>
    1f82: 00 00        	<unknown>
    1f84: 10 57        	<unknown>
    1f86: 01 00        	<unknown>
    1f88: 00 00        	<unknown>
    1f8a: 00 00        	<unknown>
    1f8c: 1c 24        	<unknown>
    1f8e: 00 00        	<unknown>
    1f90: 17 6a 01 00  	auipc	s4, 22
    1f94: 07 00 00 00  	<unknown>
    1f98: 1c 24        	<unknown>
    1f9a: 00 00        	<unknown>
    1f9c: 33 00 00 00  	add	zero, zero, zero
    1fa0: 00 00        	<unknown>
    1fa2: 00 00        	<unknown>
    1fa4: 20 24        	<unknown>
    1fa6: 00 00        	<unknown>
    1fa8: 18 58        	<unknown>
    1faa: 01 00        	<unknown>
    1fac: 00 00        	<unknown>
    1fae: 00 00        	<unknown>
    1fb0: 20 24        	<unknown>
    1fb2: 00 00        	<unknown>
    1fb4: 33 00 00 00  	add	zero, zero, zero
    1fb8: 00 00        	<unknown>
    1fba: 00 00        	<unknown>
    1fbc: 28 24        	<unknown>
    1fbe: 00 00        	<unknown>
    1fc0: 17 65 01 00  	auipc	a0, 22
    1fc4: 00 00        	<unknown>
    1fc6: 00 00        	<unknown>
    1fc8: 28 24        	<unknown>
    1fca: 00 00        	<unknown>
    1fcc: 33 00 00 00  	add	zero, zero, zero
    1fd0: 00 00        	<unknown>
    1fd2: 00 00        	<unknown>
    1fd4: 2c 24        	<unknown>
    1fd6: 00 00        	<unknown>
    1fd8: 18 59        	<unknown>
    1fda: 01 00        	<unknown>
    1fdc: 00 00        	<unknown>
    1fde: 00 00        	<unknown>
    1fe0: 2c 24        	<unknown>
    1fe2: 00 00        	<unknown>
    1fe4: 33 00 00 00  	add	zero, zero, zero
    1fe8: 00 00        	<unknown>
    1fea: 00 00        	<unknown>
    1fec: 40 24        	<unknown>
    1fee: 00 00        	<unknown>
    1ff0: 13 ab 01 00  	slti	s6, gp, 0
    1ff4: 00 00        	<unknown>
    1ff6: 00 00        	<unknown>
    1ff8: 40 24        	<unknown>
    1ffa: 00 00        	<unknown>
    1ffc: 33 00 00 00  	add	zero, zero, zero
    2000: 00 00        	<unknown>
    2002: 00 00        	<unknown>
    2004: 54 24        	<unknown>
    2006: 00 00        	<unknown>
    2008: 17 88 01 00  	auipc	a6, 24
    200c: 00 00        	<unknown>
    200e: 00 00        	<unknown>
    2010: 54 24        	<unknown>
    2012: 00 00        	<unknown>
    2014: 33 00 00 00  	add	zero, zero, zero
    2018: 00 00        	<unknown>
    201a: 00 00        	<unknown>
    201c: 58 24        	<unknown>
    201e: 00 00        	<unknown>
    2020: 18 5a        	<unknown>
    2022: 01 00        	<unknown>
    2024: 00 00        	<unknown>
    2026: 00 00        	<unknown>
    2028: 58 24        	<unknown>
    202a: 00 00        	<unknown>
    202c: 33 00 00 00  	add	zero, zero, zero
    2030: 00 00        	<unknown>
    2032: 00 00        	<unknown>
    2034: 68 24        	<unknown>
    2036: 00 00        	<unknown>
    2038: 10 5b        	<unknown>
    203a: 01 00        	<unknown>
    203c: 00 00        	<unknown>
    203e: 00 00        	<unknown>
    2040: 70 24        	<unknown>
    2042: 00 00        	<unknown>
    2044: 10 5c        	<unknown>
    2046: 01 00        	<unknown>
    2048: 00 00        	<unknown>
    204a: 00 00        	<unknown>
    204c: 80 24        	<unknown>
    204e: 00 00        	<unknown>
    2050: 10 54        	<unknown>
    2052: 01 00        	<unknown>
    2054: 00 00        	<unknown>
    2056: 00 00        	<unknown>
    2058: a8 24        	<unknown>
    205a: 00 00        	<unknown>
    205c: 17 ac 01 00  	auipc	s8, 26
    2060: 00 00        	<unknown>
    2062: 00 00        	<unknown>
    2064: a8 24        	<unknown>
    2066: 00 00        	<unknown>
    2068: 33 00 00 00  	add	zero, zero, zero
    206c: 00 00        	<unknown>
    206e: 00 00        	<unknown>
    2070: ac 24        	<unknown>
    2072: 00 00        	<unknown>
    2074: 18 5d        	<unknown>
    2076: 01 00        	<unknown>
    2078: 00 00        	<unknown>
    207a: 00 00        	<unknown>
    207c: ac 24        	<unknown>
    207e: 00 00        	<unknown>
    2080: 33 00 00 00  	add	zero, zero, zero
    2084: 00 00        	<unknown>
    2086: 00 00        	<unknown>
    2088: b0 24        	<unknown>
    208a: 00 00        	<unknown>
    208c: 17 ad 01 00  	auipc	s10, 26
    2090: 00 00        	<unknown>
    2092: 00 00        	<unknown>
    2094: b0 24        	<unknown>
    2096: 00 00        	<unknown>
    2098: 33 00 00 00  	add	zero, zero, zero
    209c: 00 00        	<unknown>
    209e: 00 00        	<unknown>
    20a0: b4 24        	<unknown>
    20a2: 00 00        	<unknown>
    20a4: 18 5e        	<unknown>
    20a6: 01 00        	<unknown>
    20a8: 00 00        	<unknown>
    20aa: 00 00        	<unknown>
    20ac: b4 24        	<unknown>
    20ae: 00 00        	<unknown>
    20b0: 33 00 00 00  	add	zero, zero, zero
    20b4: 00 00        	<unknown>
    20b6: 00 00        	<unknown>
    20b8: c8 24        	<unknown>
    20ba: 00 00        	<unknown>
    20bc: 11 5f        	<unknown>
    20be: 01 00        	<unknown>
    20c0: 00 00        	<unknown>
    20c2: 00 00        	<unknown>
    20c4: d0 24        	<unknown>
    20c6: 00 00        	<unknown>
    20c8: 10 41        	<unknown>
    20ca: 01 00        	<unknown>
    20cc: 00 00        	<unknown>
    20ce: 00 00        	<unknown>
    20d0: d8 24        	<unknown>
    20d2: 00 00        	<unknown>
    20d4: 10 60        	<unknown>
    20d6: 01 00        	<unknown>
    20d8: 00 00        	<unknown>
    20da: 00 00        	<unknown>
    20dc: ec 24        	<unknown>
    20de: 00 00        	<unknown>
    20e0: 11 60        	<unknown>
    20e2: 01 00        	<unknown>
    20e4: 00 00        	<unknown>
    20e6: 00 00        	<unknown>
    20e8: 08 25        	<unknown>
    20ea: 00 00        	<unknown>
    20ec: 10 53        	<unknown>
    20ee: 01 00        	<unknown>
    20f0: 00 00        	<unknown>
    20f2: 00 00        	<unknown>
    20f4: 14 25        	<unknown>
    20f6: 00 00        	<unknown>
    20f8: 17 9a 01 00  	auipc	s4, 25
    20fc: 00 00        	<unknown>
    20fe: 00 00        	<unknown>
    2100: 14 25        	<unknown>
    2102: 00 00        	<unknown>
    2104: 33 00 00 00  	add	zero, zero, zero
    2108: 00 00        	<unknown>
    210a: 00 00        	<unknown>
    210c: 18 25        	<unknown>
    210e: 00 00        	<unknown>
    2110: 19 61        	<unknown>
    2112: 01 00        	<unknown>
    2114: 00 00        	<unknown>
    2116: 00 00        	<unknown>
    2118: 18 25        	<unknown>
    211a: 00 00        	<unknown>
    211c: 33 00 00 00  	add	zero, zero, zero
    2120: 00 00        	<unknown>
    2122: 00 00        	<unknown>

Disassembly of section .rodata:

00000000 <.LJTI48_0>:
		...

00000044 <.LJTI48_1>:
		...

0000006c <.LJTI48_2>:
		...

000001c0 <_ftoa.pow10>:
     1c0: 00 00        	<unknown>
     1c2: 00 00        	<unknown>
     1c4: 00 00        	<unknown>
     1c6: f0 3f        	<unknown>
     1c8: 00 00        	<unknown>
     1ca: 00 00        	<unknown>
     1cc: 00 00        	<unknown>
     1ce: 24 40        	<unknown>
     1d0: 00 00        	<unknown>
     1d2: 00 00        	<unknown>
     1d4: 00 00        	<unknown>
     1d6: 59 40        	<unknown>
     1d8: 00 00        	<unknown>
     1da: 00 00        	<unknown>
     1dc: 00 40        	<unknown>
     1de: 8f 40 00 00  	<unknown>
     1e2: 00 00        	<unknown>
     1e4: 00 88        	<unknown>
     1e6: c3 40 00 00  	fmadd.s	ft1, ft0, ft0, ft0, rmm
     1ea: 00 00        	<unknown>
     1ec: 00 6a        	<unknown>
     1ee: f8 40        	<unknown>
     1f0: 00 00        	<unknown>
     1f2: 00 00        	<unknown>
     1f4: 80 84        	<unknown>
     1f6: 2e 41        	<unknown>
     1f8: 00 00        	<unknown>
     1fa: 00 00        	<unknown>
     1fc: d0 12        	<unknown>
     1fe: 63 41 00 00  	bltz	zero, 0x200 <_ftoa.pow10+0x40>
     202: 00 00        	<unknown>
     204: 84 d7        	<unknown>
     206: 97 41 00 00  	auipc	gp, 4
     20a: 00 00        	<unknown>
     20c: 65 cd        	<unknown>
     20e: cd 41        	<unknown>

Disassembly of section .rela.rodata:

00000000 <.rela.rodata>:
       0: 00 00        	<unknown>
       2: 00 00        	<unknown>
       4: 01 4c        	<unknown>
       6: 00 00        	<unknown>
       8: 00 00        	<unknown>
       a: 00 00        	<unknown>
       c: 04 00        	<unknown>
       e: 00 00        	<unknown>
      10: 01 49        	<unknown>
      12: 00 00        	<unknown>
      14: 00 00        	<unknown>
      16: 00 00        	<unknown>
      18: 08 00        	<unknown>
      1a: 00 00        	<unknown>
      1c: 01 49        	<unknown>
      1e: 00 00        	<unknown>
      20: 00 00        	<unknown>
      22: 00 00        	<unknown>
      24: 0c 00        	<unknown>
      26: 00 00        	<unknown>
      28: 01 47        	<unknown>
      2a: 00 00        	<unknown>
      2c: 00 00        	<unknown>
      2e: 00 00        	<unknown>
      30: 10 00        	<unknown>
      32: 00 00        	<unknown>
      34: 01 49        	<unknown>
      36: 00 00        	<unknown>
      38: 00 00        	<unknown>
      3a: 00 00        	<unknown>
      3c: 14 00        	<unknown>
      3e: 00 00        	<unknown>
      40: 01 49        	<unknown>
      42: 00 00        	<unknown>
      44: 00 00        	<unknown>
      46: 00 00        	<unknown>
      48: 18 00        	<unknown>
      4a: 00 00        	<unknown>
      4c: 01 49        	<unknown>
      4e: 00 00        	<unknown>
      50: 00 00        	<unknown>
      52: 00 00        	<unknown>
      54: 1c 00        	<unknown>
      56: 00 00        	<unknown>
      58: 01 49        	<unknown>
      5a: 00 00        	<unknown>
      5c: 00 00        	<unknown>
      5e: 00 00        	<unknown>
      60: 20 00        	<unknown>
      62: 00 00        	<unknown>
      64: 01 49        	<unknown>
      66: 00 00        	<unknown>
      68: 00 00        	<unknown>
      6a: 00 00        	<unknown>
      6c: 24 00        	<unknown>
      6e: 00 00        	<unknown>
      70: 01 49        	<unknown>
      72: 00 00        	<unknown>
      74: 00 00        	<unknown>
      76: 00 00        	<unknown>
      78: 28 00        	<unknown>
      7a: 00 00        	<unknown>
      7c: 01 49        	<unknown>
      7e: 00 00        	<unknown>
      80: 00 00        	<unknown>
      82: 00 00        	<unknown>
      84: 2c 00        	<unknown>
      86: 00 00        	<unknown>
      88: 01 4d        	<unknown>
      8a: 00 00        	<unknown>
      8c: 00 00        	<unknown>
      8e: 00 00        	<unknown>
      90: 30 00        	<unknown>
      92: 00 00        	<unknown>
      94: 01 49        	<unknown>
      96: 00 00        	<unknown>
      98: 00 00        	<unknown>
      9a: 00 00        	<unknown>
      9c: 34 00        	<unknown>
      9e: 00 00        	<unknown>
      a0: 01 4e        	<unknown>
      a2: 00 00        	<unknown>
      a4: 00 00        	<unknown>
      a6: 00 00        	<unknown>
      a8: 38 00        	<unknown>
      aa: 00 00        	<unknown>
      ac: 01 49        	<unknown>
      ae: 00 00        	<unknown>
      b0: 00 00        	<unknown>
      b2: 00 00        	<unknown>
      b4: 3c 00        	<unknown>
      b6: 00 00        	<unknown>
      b8: 01 49        	<unknown>
      ba: 00 00        	<unknown>
      bc: 00 00        	<unknown>
      be: 00 00        	<unknown>
      c0: 40 00        	<unknown>
      c2: 00 00        	<unknown>
      c4: 01 48        	<unknown>
      c6: 00 00        	<unknown>
      c8: 00 00        	<unknown>
      ca: 00 00        	<unknown>
      cc: 44 00        	<unknown>
      ce: 00 00        	<unknown>
      d0: 01 5c        	<unknown>
      d2: 00 00        	<unknown>
      d4: 00 00        	<unknown>
      d6: 00 00        	<unknown>
      d8: 48 00        	<unknown>
      da: 00 00        	<unknown>
      dc: 01 5f        	<unknown>
      de: 00 00        	<unknown>
      e0: 00 00        	<unknown>
      e2: 00 00        	<unknown>
      e4: 4c 00        	<unknown>
      e6: 00 00        	<unknown>
      e8: 01 60        	<unknown>
      ea: 00 00        	<unknown>
      ec: 00 00        	<unknown>
      ee: 00 00        	<unknown>
      f0: 50 00        	<unknown>
      f2: 00 00        	<unknown>
      f4: 01 59        	<unknown>
      f6: 00 00        	<unknown>
      f8: 00 00        	<unknown>
      fa: 00 00        	<unknown>
      fc: 54 00        	<unknown>
      fe: 00 00        	<unknown>
     100: 01 59        	<unknown>
     102: 00 00        	<unknown>
     104: 00 00        	<unknown>
     106: 00 00        	<unknown>
     108: 58 00        	<unknown>
     10a: 00 00        	<unknown>
     10c: 01 59        	<unknown>
     10e: 00 00        	<unknown>
     110: 00 00        	<unknown>
     112: 00 00        	<unknown>
     114: 5c 00        	<unknown>
     116: 00 00        	<unknown>
     118: 01 5e        	<unknown>
     11a: 00 00        	<unknown>
     11c: 00 00        	<unknown>
     11e: 00 00        	<unknown>
     120: 60 00        	<unknown>
     122: 00 00        	<unknown>
     124: 01 59        	<unknown>
     126: 00 00        	<unknown>
     128: 00 00        	<unknown>
     12a: 00 00        	<unknown>
     12c: 64 00        	<unknown>
     12e: 00 00        	<unknown>
     130: 01 59        	<unknown>
     132: 00 00        	<unknown>
     134: 00 00        	<unknown>
     136: 00 00        	<unknown>
     138: 68 00        	<unknown>
     13a: 00 00        	<unknown>
     13c: 01 5e        	<unknown>
     13e: 00 00        	<unknown>
     140: 00 00        	<unknown>
     142: 00 00        	<unknown>
     144: 6c 00        	<unknown>
     146: 00 00        	<unknown>
     148: 01 6f        	<unknown>
     14a: 00 00        	<unknown>
     14c: 00 00        	<unknown>
     14e: 00 00        	<unknown>
     150: 70 00        	<unknown>
     152: 00 00        	<unknown>
     154: 01 62        	<unknown>
     156: 00 00        	<unknown>
     158: 00 00        	<unknown>
     15a: 00 00        	<unknown>
     15c: 74 00        	<unknown>
     15e: 00 00        	<unknown>
     160: 01 62        	<unknown>
     162: 00 00        	<unknown>
     164: 00 00        	<unknown>
     166: 00 00        	<unknown>
     168: 78 00        	<unknown>
     16a: 00 00        	<unknown>
     16c: 01 62        	<unknown>
     16e: 00 00        	<unknown>
     170: 00 00        	<unknown>
     172: 00 00        	<unknown>
     174: 7c 00        	<unknown>
     176: 00 00        	<unknown>
     178: 01 62        	<unknown>
     17a: 00 00        	<unknown>
     17c: 00 00        	<unknown>
     17e: 00 00        	<unknown>
     180: 80 00        	<unknown>
     182: 00 00        	<unknown>
     184: 01 62        	<unknown>
     186: 00 00        	<unknown>
     188: 00 00        	<unknown>
     18a: 00 00        	<unknown>
     18c: 84 00        	<unknown>
     18e: 00 00        	<unknown>
     190: 01 62        	<unknown>
     192: 00 00        	<unknown>
     194: 00 00        	<unknown>
     196: 00 00        	<unknown>
     198: 88 00        	<unknown>
     19a: 00 00        	<unknown>
     19c: 01 62        	<unknown>
     19e: 00 00        	<unknown>
     1a0: 00 00        	<unknown>
     1a2: 00 00        	<unknown>
     1a4: 8c 00        	<unknown>
     1a6: 00 00        	<unknown>
     1a8: 01 62        	<unknown>
     1aa: 00 00        	<unknown>
     1ac: 00 00        	<unknown>
     1ae: 00 00        	<unknown>
     1b0: 90 00        	<unknown>
     1b2: 00 00        	<unknown>
     1b4: 01 62        	<unknown>
     1b6: 00 00        	<unknown>
     1b8: 00 00        	<unknown>
     1ba: 00 00        	<unknown>
     1bc: 94 00        	<unknown>
     1be: 00 00        	<unknown>
     1c0: 01 62        	<unknown>
     1c2: 00 00        	<unknown>
     1c4: 00 00        	<unknown>
     1c6: 00 00        	<unknown>
     1c8: 98 00        	<unknown>
     1ca: 00 00        	<unknown>
     1cc: 01 62        	<unknown>
     1ce: 00 00        	<unknown>
     1d0: 00 00        	<unknown>
     1d2: 00 00        	<unknown>
     1d4: 9c 00        	<unknown>
     1d6: 00 00        	<unknown>
     1d8: 01 62        	<unknown>
     1da: 00 00        	<unknown>
     1dc: 00 00        	<unknown>
     1de: 00 00        	<unknown>
     1e0: a0 00        	<unknown>
     1e2: 00 00        	<unknown>
     1e4: 01 62        	<unknown>
     1e6: 00 00        	<unknown>
     1e8: 00 00        	<unknown>
     1ea: 00 00        	<unknown>
     1ec: a4 00        	<unknown>
     1ee: 00 00        	<unknown>
     1f0: 01 62        	<unknown>
     1f2: 00 00        	<unknown>
     1f4: 00 00        	<unknown>
     1f6: 00 00        	<unknown>
     1f8: a8 00        	<unknown>
     1fa: 00 00        	<unknown>
     1fc: 01 62        	<unknown>
     1fe: 00 00        	<unknown>
     200: 00 00        	<unknown>
     202: 00 00        	<unknown>
     204: ac 00        	<unknown>
     206: 00 00        	<unknown>
     208: 01 62        	<unknown>
     20a: 00 00        	<unknown>
     20c: 00 00        	<unknown>
     20e: 00 00        	<unknown>
     210: b0 00        	<unknown>
     212: 00 00        	<unknown>
     214: 01 62        	<unknown>
     216: 00 00        	<unknown>
     218: 00 00        	<unknown>
     21a: 00 00        	<unknown>
     21c: b4 00        	<unknown>
     21e: 00 00        	<unknown>
     220: 01 62        	<unknown>
     222: 00 00        	<unknown>
     224: 00 00        	<unknown>
     226: 00 00        	<unknown>
     228: b8 00        	<unknown>
     22a: 00 00        	<unknown>
     22c: 01 62        	<unknown>
     22e: 00 00        	<unknown>
     230: 00 00        	<unknown>
     232: 00 00        	<unknown>
     234: bc 00        	<unknown>
     236: 00 00        	<unknown>
     238: 01 62        	<unknown>
     23a: 00 00        	<unknown>
     23c: 00 00        	<unknown>
     23e: 00 00        	<unknown>
     240: c0 00        	<unknown>
     242: 00 00        	<unknown>
     244: 01 62        	<unknown>
     246: 00 00        	<unknown>
     248: 00 00        	<unknown>
     24a: 00 00        	<unknown>
     24c: c4 00        	<unknown>
     24e: 00 00        	<unknown>
     250: 01 62        	<unknown>
     252: 00 00        	<unknown>
     254: 00 00        	<unknown>
     256: 00 00        	<unknown>
     258: c8 00        	<unknown>
     25a: 00 00        	<unknown>
     25c: 01 62        	<unknown>
     25e: 00 00        	<unknown>
     260: 00 00        	<unknown>
     262: 00 00        	<unknown>
     264: cc 00        	<unknown>
     266: 00 00        	<unknown>
     268: 01 62        	<unknown>
     26a: 00 00        	<unknown>
     26c: 00 00        	<unknown>
     26e: 00 00        	<unknown>
     270: d0 00        	<unknown>
     272: 00 00        	<unknown>
     274: 01 62        	<unknown>
     276: 00 00        	<unknown>
     278: 00 00        	<unknown>
     27a: 00 00        	<unknown>
     27c: d4 00        	<unknown>
     27e: 00 00        	<unknown>
     280: 01 62        	<unknown>
     282: 00 00        	<unknown>
     284: 00 00        	<unknown>
     286: 00 00        	<unknown>
     288: d8 00        	<unknown>
     28a: 00 00        	<unknown>
     28c: 01 62        	<unknown>
     28e: 00 00        	<unknown>
     290: 00 00        	<unknown>
     292: 00 00        	<unknown>
     294: dc 00        	<unknown>
     296: 00 00        	<unknown>
     298: 01 62        	<unknown>
     29a: 00 00        	<unknown>
     29c: 00 00        	<unknown>
     29e: 00 00        	<unknown>
     2a0: e0 00        	<unknown>
     2a2: 00 00        	<unknown>
     2a4: 01 62        	<unknown>
     2a6: 00 00        	<unknown>
     2a8: 00 00        	<unknown>
     2aa: 00 00        	<unknown>
     2ac: e4 00        	<unknown>
     2ae: 00 00        	<unknown>
     2b0: 01 62        	<unknown>
     2b2: 00 00        	<unknown>
     2b4: 00 00        	<unknown>
     2b6: 00 00        	<unknown>
     2b8: e8 00        	<unknown>
     2ba: 00 00        	<unknown>
     2bc: 01 62        	<unknown>
     2be: 00 00        	<unknown>
     2c0: 00 00        	<unknown>
     2c2: 00 00        	<unknown>
     2c4: ec 00        	<unknown>
     2c6: 00 00        	<unknown>
     2c8: 01 6c        	<unknown>
     2ca: 00 00        	<unknown>
     2cc: 00 00        	<unknown>
     2ce: 00 00        	<unknown>
     2d0: f0 00        	<unknown>
     2d2: 00 00        	<unknown>
     2d4: 01 69        	<unknown>
     2d6: 00 00        	<unknown>
     2d8: 00 00        	<unknown>
     2da: 00 00        	<unknown>
     2dc: f4 00        	<unknown>
     2de: 00 00        	<unknown>
     2e0: 01 6b        	<unknown>
     2e2: 00 00        	<unknown>
     2e4: 00 00        	<unknown>
     2e6: 00 00        	<unknown>
     2e8: f8 00        	<unknown>
     2ea: 00 00        	<unknown>
     2ec: 01 62        	<unknown>
     2ee: 00 00        	<unknown>
     2f0: 00 00        	<unknown>
     2f2: 00 00        	<unknown>
     2f4: fc 00        	<unknown>
     2f6: 00 00        	<unknown>
     2f8: 01 62        	<unknown>
     2fa: 00 00        	<unknown>
     2fc: 00 00        	<unknown>
     2fe: 00 00        	<unknown>
     300: 00 01        	<unknown>
     302: 00 00        	<unknown>
     304: 01 62        	<unknown>
     306: 00 00        	<unknown>
     308: 00 00        	<unknown>
     30a: 00 00        	<unknown>
     30c: 04 01        	<unknown>
     30e: 00 00        	<unknown>
     310: 01 62        	<unknown>
     312: 00 00        	<unknown>
     314: 00 00        	<unknown>
     316: 00 00        	<unknown>
     318: 08 01        	<unknown>
     31a: 00 00        	<unknown>
     31c: 01 62        	<unknown>
     31e: 00 00        	<unknown>
     320: 00 00        	<unknown>
     322: 00 00        	<unknown>
     324: 0c 01        	<unknown>
     326: 00 00        	<unknown>
     328: 01 62        	<unknown>
     32a: 00 00        	<unknown>
     32c: 00 00        	<unknown>
     32e: 00 00        	<unknown>
     330: 10 01        	<unknown>
     332: 00 00        	<unknown>
     334: 01 62        	<unknown>
     336: 00 00        	<unknown>
     338: 00 00        	<unknown>
     33a: 00 00        	<unknown>
     33c: 14 01        	<unknown>
     33e: 00 00        	<unknown>
     340: 01 62        	<unknown>
     342: 00 00        	<unknown>
     344: 00 00        	<unknown>
     346: 00 00        	<unknown>
     348: 18 01        	<unknown>
     34a: 00 00        	<unknown>
     34c: 01 62        	<unknown>
     34e: 00 00        	<unknown>
     350: 00 00        	<unknown>
     352: 00 00        	<unknown>
     354: 1c 01        	<unknown>
     356: 00 00        	<unknown>
     358: 01 62        	<unknown>
     35a: 00 00        	<unknown>
     35c: 00 00        	<unknown>
     35e: 00 00        	<unknown>
     360: 20 01        	<unknown>
     362: 00 00        	<unknown>
     364: 01 62        	<unknown>
     366: 00 00        	<unknown>
     368: 00 00        	<unknown>
     36a: 00 00        	<unknown>
     36c: 24 01        	<unknown>
     36e: 00 00        	<unknown>
     370: 01 62        	<unknown>
     372: 00 00        	<unknown>
     374: 00 00        	<unknown>
     376: 00 00        	<unknown>
     378: 28 01        	<unknown>
     37a: 00 00        	<unknown>
     37c: 01 62        	<unknown>
     37e: 00 00        	<unknown>
     380: 00 00        	<unknown>
     382: 00 00        	<unknown>
     384: 2c 01        	<unknown>
     386: 00 00        	<unknown>
     388: 01 62        	<unknown>
     38a: 00 00        	<unknown>
     38c: 00 00        	<unknown>
     38e: 00 00        	<unknown>
     390: 30 01        	<unknown>
     392: 00 00        	<unknown>
     394: 01 62        	<unknown>
     396: 00 00        	<unknown>
     398: 00 00        	<unknown>
     39a: 00 00        	<unknown>
     39c: 34 01        	<unknown>
     39e: 00 00        	<unknown>
     3a0: 01 62        	<unknown>
     3a2: 00 00        	<unknown>
     3a4: 00 00        	<unknown>
     3a6: 00 00        	<unknown>
     3a8: 38 01        	<unknown>
     3aa: 00 00        	<unknown>
     3ac: 01 66        	<unknown>
     3ae: 00 00        	<unknown>
     3b0: 00 00        	<unknown>
     3b2: 00 00        	<unknown>
     3b4: 3c 01        	<unknown>
     3b6: 00 00        	<unknown>
     3b8: 01 62        	<unknown>
     3ba: 00 00        	<unknown>
     3bc: 00 00        	<unknown>
     3be: 00 00        	<unknown>
     3c0: 40 01        	<unknown>
     3c2: 00 00        	<unknown>
     3c4: 01 62        	<unknown>
     3c6: 00 00        	<unknown>
     3c8: 00 00        	<unknown>
     3ca: 00 00        	<unknown>
     3cc: 44 01        	<unknown>
     3ce: 00 00        	<unknown>
     3d0: 01 62        	<unknown>
     3d2: 00 00        	<unknown>
     3d4: 00 00        	<unknown>
     3d6: 00 00        	<unknown>
     3d8: 48 01        	<unknown>
     3da: 00 00        	<unknown>
     3dc: 01 62        	<unknown>
     3de: 00 00        	<unknown>
     3e0: 00 00        	<unknown>
     3e2: 00 00        	<unknown>
     3e4: 4c 01        	<unknown>
     3e6: 00 00        	<unknown>
     3e8: 01 62        	<unknown>
     3ea: 00 00        	<unknown>
     3ec: 00 00        	<unknown>
     3ee: 00 00        	<unknown>
     3f0: 50 01        	<unknown>
     3f2: 00 00        	<unknown>
     3f4: 01 62        	<unknown>
     3f6: 00 00        	<unknown>
     3f8: 00 00        	<unknown>
     3fa: 00 00        	<unknown>
     3fc: 54 01        	<unknown>
     3fe: 00 00        	<unknown>
     400: 01 62        	<unknown>
     402: 00 00        	<unknown>
     404: 00 00        	<unknown>
     406: 00 00        	<unknown>
     408: 58 01        	<unknown>
     40a: 00 00        	<unknown>
     40c: 01 62        	<unknown>
     40e: 00 00        	<unknown>
     410: 00 00        	<unknown>
     412: 00 00        	<unknown>
     414: 5c 01        	<unknown>
     416: 00 00        	<unknown>
     418: 01 62        	<unknown>
     41a: 00 00        	<unknown>
     41c: 00 00        	<unknown>
     41e: 00 00        	<unknown>
     420: 60 01        	<unknown>
     422: 00 00        	<unknown>
     424: 01 72        	<unknown>
     426: 00 00        	<unknown>
     428: 00 00        	<unknown>
     42a: 00 00        	<unknown>
     42c: 64 01        	<unknown>
     42e: 00 00        	<unknown>
     430: 01 80        	<unknown>
     432: 00 00        	<unknown>
     434: 00 00        	<unknown>
     436: 00 00        	<unknown>
     438: 68 01        	<unknown>
     43a: 00 00        	<unknown>
     43c: 01 65        	<unknown>
     43e: 00 00        	<unknown>
     440: 00 00        	<unknown>
     442: 00 00        	<unknown>
     444: 6c 01        	<unknown>
     446: 00 00        	<unknown>
     448: 01 6c        	<unknown>
     44a: 00 00        	<unknown>
     44c: 00 00        	<unknown>
     44e: 00 00        	<unknown>
     450: 70 01        	<unknown>
     452: 00 00        	<unknown>
     454: 01 69        	<unknown>
     456: 00 00        	<unknown>
     458: 00 00        	<unknown>
     45a: 00 00        	<unknown>
     45c: 74 01        	<unknown>
     45e: 00 00        	<unknown>
     460: 01 6b        	<unknown>
     462: 00 00        	<unknown>
     464: 00 00        	<unknown>
     466: 00 00        	<unknown>
     468: 78 01        	<unknown>
     46a: 00 00        	<unknown>
     46c: 01 62        	<unknown>
     46e: 00 00        	<unknown>
     470: 00 00        	<unknown>
     472: 00 00        	<unknown>
     474: 7c 01        	<unknown>
     476: 00 00        	<unknown>
     478: 01 65        	<unknown>
     47a: 00 00        	<unknown>
     47c: 00 00        	<unknown>
     47e: 00 00        	<unknown>
     480: 80 01        	<unknown>
     482: 00 00        	<unknown>
     484: 01 62        	<unknown>
     486: 00 00        	<unknown>
     488: 00 00        	<unknown>
     48a: 00 00        	<unknown>
     48c: 84 01        	<unknown>
     48e: 00 00        	<unknown>
     490: 01 62        	<unknown>
     492: 00 00        	<unknown>
     494: 00 00        	<unknown>
     496: 00 00        	<unknown>
     498: 88 01        	<unknown>
     49a: 00 00        	<unknown>
     49c: 01 62        	<unknown>
     49e: 00 00        	<unknown>
     4a0: 00 00        	<unknown>
     4a2: 00 00        	<unknown>
     4a4: 8c 01        	<unknown>
     4a6: 00 00        	<unknown>
     4a8: 01 62        	<unknown>
     4aa: 00 00        	<unknown>
     4ac: 00 00        	<unknown>
     4ae: 00 00        	<unknown>
     4b0: 90 01        	<unknown>
     4b2: 00 00        	<unknown>
     4b4: 01 62        	<unknown>
     4b6: 00 00        	<unknown>
     4b8: 00 00        	<unknown>
     4ba: 00 00        	<unknown>
     4bc: 94 01        	<unknown>
     4be: 00 00        	<unknown>
     4c0: 01 68        	<unknown>
     4c2: 00 00        	<unknown>
     4c4: 00 00        	<unknown>
     4c6: 00 00        	<unknown>
     4c8: 98 01        	<unknown>
     4ca: 00 00        	<unknown>
     4cc: 01 85        	<unknown>
     4ce: 00 00        	<unknown>
     4d0: 00 00        	<unknown>
     4d2: 00 00        	<unknown>
     4d4: 9c 01        	<unknown>
     4d6: 00 00        	<unknown>
     4d8: 01 62        	<unknown>
     4da: 00 00        	<unknown>
     4dc: 00 00        	<unknown>
     4de: 00 00        	<unknown>
     4e0: a0 01        	<unknown>
     4e2: 00 00        	<unknown>
     4e4: 01 62        	<unknown>
     4e6: 00 00        	<unknown>
     4e8: 00 00        	<unknown>
     4ea: 00 00        	<unknown>
     4ec: a4 01        	<unknown>
     4ee: 00 00        	<unknown>
     4f0: 01 87        	<unknown>
     4f2: 00 00        	<unknown>
     4f4: 00 00        	<unknown>
     4f6: 00 00        	<unknown>
     4f8: a8 01        	<unknown>
     4fa: 00 00        	<unknown>
     4fc: 01 62        	<unknown>
     4fe: 00 00        	<unknown>
     500: 00 00        	<unknown>
     502: 00 00        	<unknown>
     504: ac 01        	<unknown>
     506: 00 00        	<unknown>
     508: 01 65        	<unknown>
     50a: 00 00        	<unknown>
     50c: 00 00        	<unknown>
     50e: 00 00        	<unknown>
     510: b0 01        	<unknown>
     512: 00 00        	<unknown>
     514: 01 62        	<unknown>
     516: 00 00        	<unknown>
     518: 00 00        	<unknown>
     51a: 00 00        	<unknown>
     51c: b4 01        	<unknown>
     51e: 00 00        	<unknown>
     520: 01 62        	<unknown>
     522: 00 00        	<unknown>
     524: 00 00        	<unknown>
     526: 00 00        	<unknown>
     528: b8 01        	<unknown>
     52a: 00 00        	<unknown>
     52c: 01 66        	<unknown>
     52e: 00 00        	<unknown>
     530: 00 00        	<unknown>
     532: 00 00        	<unknown>

Disassembly of section .sdata:

00000000 <.LCPI52_0>:
       0: ff ff ff ff  	<unknown>
       4: ff ff ef ff  	<unknown>

00000008 <.LCPI52_1>:
       8: ff ff ff ff  	<unknown>
       c: ff ff ef 7f  	<unknown>

00000010 <.LCPI52_2>:
      10: 00 00        	<unknown>
      12: 00 00        	<unknown>
      14: 65 cd        	<unknown>
      16: cd 41        	<unknown>

00000018 <.LCPI52_3>:
      18: 00 00        	<unknown>
      1a: 00 00        	<unknown>
      1c: 65 cd        	<unknown>
      1e: cd c1        	<unknown>

00000020 <.LCPI52_4>:
      20: 00 00        	<unknown>
      22: 00 00        	<unknown>
      24: 00 00        	<unknown>
      26: e0 3f        	<unknown>

00000028 <.LCPI53_0>:
      28: ff ff ff ff  	<unknown>
      2c: ff ff ef 7f  	<unknown>

00000030 <.LCPI53_1>:
      30: ff ff ff ff  	<unknown>
      34: ff ff ef ff  	<unknown>

00000038 <.LCPI53_2>:
      38: b8 80        	<unknown>
      3a: 76 cf        	<unknown>
      3c: 66 86        	<unknown>
      3e: d0 bf        	<unknown>

00000040 <.LCPI53_3>:
      40: 61 43        	<unknown>
      42: 6f 63 a7 87  	jal	t1, 0xfff760bc <.LCPI53_16+0xfffffffffff76014>
      46: d2 3f        	<unknown>

00000048 <.LCPI53_4>:
      48: fb 79 9f 50  	<unknown>
      4c: 13 44 d3 3f  	xori	s0, t1, 1021

00000050 <.LCPI53_5>:
      50: 00 00        	<unknown>
      52: 00 00        	<unknown>
      54: 00 00        	<unknown>
      56: e0 3f        	<unknown>

00000058 <.LCPI53_6>:
      58: 71 a3        	<unknown>
      5a: 79 09        	<unknown>
      5c: 4f 93 0a 40  	fnmadd.s	ft6, fs5, ft0, fs0, rtz

00000060 <.LCPI53_7>:
      60: ef 39 fa fe  	jal	s3, 0xfffa404e <.LCPI53_16+0xfffffffffffa3fa6>
      64: 42 2e        	<unknown>
      66: e6 bf        	<unknown>

00000068 <.LCPI53_8>:
      68: 16 55        	<unknown>
      6a: b5 bb        	<unknown>
      6c: b1 6b        	<unknown>
      6e: 02 40        	<unknown>

00000070 <.LCPI53_9>:
      70: 00 00        	<unknown>
      72: 00 00        	<unknown>
      74: 00 00        	<unknown>
      76: 00 40        	<unknown>

00000078 <.LCPI53_10>:
      78: 00 00        	<unknown>
      7a: 00 00        	<unknown>
      7c: 00 00        	<unknown>
      7e: 24 40        	<unknown>

00000080 <.LCPI53_11>:
      80: 92 24        	<unknown>
      82: 49 92        	<unknown>
      84: 24 49        	<unknown>
      86: b2 3f        	<unknown>

00000088 <.LCPI53_12>:
      88: 00 00        	<unknown>
      8a: 00 00        	<unknown>
      8c: 00 00        	<unknown>
      8e: 18 40        	<unknown>

00000090 <.LCPI53_13>:
      90: 9a 99        	<unknown>
      92: 99 99        	<unknown>
      94: 99 99        	<unknown>
      96: b9 3f        	<unknown>

00000098 <.LCPI53_14>:
      98: 2d 43        	<unknown>
      9a: 1c eb        	<unknown>
      9c: e2 36        	<unknown>
      9e: 1a 3f        	<unknown>

000000a0 <.LCPI53_15>:
      a0: 00 00        	<unknown>
      a2: 00 00        	<unknown>
      a4: 80 84        	<unknown>
      a6: 2e 41        	<unknown>

000000a8 <.LCPI53_16>:
      a8: 00 00        	<unknown>
      aa: 00 00        	<unknown>
      ac: 00 00        	<unknown>
      ae: f0 3f        	<unknown>

Disassembly of section .bss:

00000000 <l3_allocator>:
...

Disassembly of section .tbss:

00000000 <_cls_ptr>:
...

00000004 <eu_p>:
...

Disassembly of section .cbss:

00000000 <_cls>:
		...

Disassembly of section .sbss:

00000000 <eu_p_global>:
...

00000004 <_snrt_mutex>:
...

00000008 <_snrt_barrier>:
...

00000010 <_reduction_result>:
...

Disassembly of section .rodata.str1.1:

00000000 <.L.str.2>:
       0: 66 6e        	<unknown>
       2: 69 2b        	<unknown>
       4: 00 66        	<unknown>

00000005 <.L.str.3>:
       5: 66 6e        	<unknown>
       7: 69 00        	<unknown>

Disassembly of section .comment:

00000000 <.comment>:
       0: 00 55        	<unknown>
       2: 62 75        	<unknown>
       4: 6e 74        	<unknown>
       6: 75 20        	<unknown>
       8: 63 6c 61 6e  	bltu	sp, t1, 0x700 <.comment+0x700>
       c: 67 20 76 65  	<unknown>
      10: 72 73        	<unknown>
      12: 69 6f        	<unknown>
      14: 6e 20        	<unknown>
      16: 31 37        	<unknown>
      18: 2e 30        	<unknown>
      1a: 2e 36        	<unknown>
      1c: 20 28        	<unknown>
      1e: 39 75        	<unknown>
      20: 62 75        	<unknown>
      22: 6e 74        	<unknown>
      24: 75 31        	<unknown>
      26: 29 00        	<unknown>

Disassembly of section .riscv.attributes:

00000000 <.riscv.attributes>:
       0: 41 3f        	<unknown>
       2: 00 00        	<unknown>
       4: 00 72        	<unknown>
       6: 69 73        	<unknown>
       8: 63 76 00 01  	bgeu	zero, a6, 0x14 <.riscv.attributes+0x14>
       c: 35 00        	<unknown>
       e: 00 00        	<unknown>
      10: 04 10        	<unknown>
      12: 05 72        	<unknown>
      14: 76 33        	<unknown>
      16: 32 69        	<unknown>
      18: 32 70        	<unknown>
      1a: 31 5f        	<unknown>
      1c: 6d 32        	<unknown>
      1e: 70 30        	<unknown>
      20: 5f 61 32 70  	<unknown>
      24: 31 5f        	<unknown>
      26: 66 32        	<unknown>
      28: 70 32        	<unknown>
      2a: 5f 64 32 70  	<unknown>
      2e: 32 5f        	<unknown>
      30: 7a 69        	<unknown>
      32: 63 73 72 32  	bgeu	tp, t2, 0x358 <.riscv.attributes+0x358>
      36: 70 30        	<unknown>
      38: 5f 7a 66 68  	<unknown>
      3c: 31 70        	<unknown>
      3e: 30 00        	<unknown>

Disassembly of section .llvm_addrsig:

00000000 <.llvm_addrsig>:
       0: 3c 41        	<unknown>
       2: b9 02        	<unknown>
       4: bf 02 f6 02  	<unknown>
       8: 82 03        	<unknown>
       a: 88 03        	<unknown>
       c: 8c 03        	<unknown>
       e: ea 02        	<unknown>
      10: 9a 03        	<unknown>
      12: 9b 03 a4 03  	<unknown>
      16: a3 03 ad 03  	sb	s10, 39(s10)
      1a: ac 03        	<unknown>
      1c: a6 03        	<unknown>
      1e: a5 03        	<unknown>
      20: a8 03        	<unknown>
      22: a7 03 a9 03  	<unknown>
      26: aa 03        	<unknown>

Disassembly of section .symtab:

00000000 <.symtab>:
		...
      10: f8 04        	<unknown>
		...
      1a: 00 00        	<unknown>
      1c: 04 00        	<unknown>
      1e: f1 ff        	<unknown>
      20: 05 12        	<unknown>
      22: 00 00        	<unknown>
      24: 14 00        	<unknown>
		...
      2e: 02 00        	<unknown>
      30: 7e 10        	<unknown>
      32: 00 00        	<unknown>
      34: 48 00        	<unknown>
		...
      3e: 02 00        	<unknown>
      40: f6 0e        	<unknown>
      42: 00 00        	<unknown>
      44: cc 00        	<unknown>
		...
      4e: 02 00        	<unknown>
      50: c5 0e        	<unknown>
      52: 00 00        	<unknown>
      54: ac 00        	<unknown>
		...
      5e: 02 00        	<unknown>
      60: 49 0d        	<unknown>
      62: 00 00        	<unknown>
      64: b8 00        	<unknown>
		...
      6e: 02 00        	<unknown>
      70: 8a 10        	<unknown>
      72: 00 00        	<unknown>
      74: fc 00        	<unknown>
		...
      7e: 02 00        	<unknown>
      80: 75 0f        	<unknown>
      82: 00 00        	<unknown>
      84: 38 01        	<unknown>
		...
      8e: 02 00        	<unknown>
      90: 6c 0f        	<unknown>
      92: 00 00        	<unknown>
      94: 64 01        	<unknown>
		...
      9e: 02 00        	<unknown>
      a0: 3f 0f 00 00  	<unknown>
      a4: 88 01        	<unknown>
		...
      ae: 02 00        	<unknown>
      b0: 23 0f 00 00  	sb	zero, 30(zero)
      b4: c8 01        	<unknown>
		...
      be: 02 00        	<unknown>
      c0: fe 11        	<unknown>
      c2: 00 00        	<unknown>
      c4: d0 01        	<unknown>
		...
      ce: 02 00        	<unknown>
      d0: 77 10 00 00  	<unknown>
      d4: e0 01        	<unknown>
		...
      de: 02 00        	<unknown>
      e0: 9d 0b        	<unknown>
      e2: 00 00        	<unknown>
      e4: 18 02        	<unknown>
		...
      ee: 02 00        	<unknown>
      f0: 7f 0b 00 00  	<unknown>
      f4: f8 01        	<unknown>
		...
      fe: 02 00        	<unknown>
     100: ed 0e        	<unknown>
     102: 00 00        	<unknown>
     104: fc 01        	<unknown>
		...
     10e: 02 00        	<unknown>
     110: 00 0a        	<unknown>
     112: 00 00        	<unknown>
     114: d0 02        	<unknown>
		...
     11e: 02 00        	<unknown>
     120: 44 10        	<unknown>
     122: 00 00        	<unknown>
     124: 9c 03        	<unknown>
		...
     12e: 02 00        	<unknown>
     130: 1e 0a        	<unknown>
     132: 00 00        	<unknown>
     134: 34 03        	<unknown>
		...
     13e: 02 00        	<unknown>
     140: 7a 06        	<unknown>
     142: 00 00        	<unknown>
     144: 6c 03        	<unknown>
		...
     14e: 02 00        	<unknown>
     150: 94 0b        	<unknown>
     152: 00 00        	<unknown>
     154: 28 03        	<unknown>
		...
     15e: 02 00        	<unknown>
     160: 7b 05 00 00  	<unknown>
     164: 8c 03        	<unknown>
		...
     16e: 02 00        	<unknown>
     170: 9c 11        	<unknown>
     172: 00 00        	<unknown>
     174: 98 03        	<unknown>
		...
     17e: 02 00        	<unknown>
     180: d3 08 00 00  	fadd.s	fa7, ft0, ft0, rne
     184: 38 03        	<unknown>
		...
     18e: 02 00        	<unknown>
     190: 15 13        	<unknown>
     192: 00 00        	<unknown>
     194: 90 03        	<unknown>
		...
     19e: 02 00        	<unknown>
     1a0: 76 0e        	<unknown>
     1a2: 00 00        	<unknown>
     1a4: a0 03        	<unknown>
		...
     1ae: 02 00        	<unknown>
     1b0: 3a 0b        	<unknown>
     1b2: 00 00        	<unknown>
     1b4: b4 03        	<unknown>
		...
     1be: 02 00        	<unknown>
     1c0: 63 0f 00 00  	beqz	zero, 0x1de <.symtab+0x1de>
     1c4: 98 04        	<unknown>
		...
     1ce: 02 00        	<unknown>
     1d0: b9 10        	<unknown>
     1d2: 00 00        	<unknown>
     1d4: 6c 04        	<unknown>
		...
     1de: 02 00        	<unknown>
     1e0: 02 0c        	<unknown>
     1e2: 00 00        	<unknown>
     1e4: e4 04        	<unknown>
		...
     1ee: 02 00        	<unknown>
     1f0: b1 0d        	<unknown>
     1f2: 00 00        	<unknown>
     1f4: b0 04        	<unknown>
		...
     1fe: 02 00        	<unknown>
     200: b0 10        	<unknown>
     202: 00 00        	<unknown>
     204: 1c 05        	<unknown>
		...
     20e: 02 00        	<unknown>
     210: bb 11 00 00  	<unknown>
     214: f0 05        	<unknown>
		...
     21e: 02 00        	<unknown>
     220: d4 0b        	<unknown>
     222: 00 00        	<unknown>
     224: 88 05        	<unknown>
		...
     22e: 02 00        	<unknown>
     230: af 07 00 00  	<unknown>
     234: c0 05        	<unknown>
		...
     23e: 02 00        	<unknown>
     240: 83 0d 00 00  	lb	s11, 0(zero)
     244: 7c 05        	<unknown>
		...
     24e: 02 00        	<unknown>
     250: 96 06        	<unknown>
     252: 00 00        	<unknown>
     254: e0 05        	<unknown>
		...
     25e: 02 00        	<unknown>
     260: 2a 13        	<unknown>
     262: 00 00        	<unknown>
     264: ec 05        	<unknown>
		...
     26e: 02 00        	<unknown>
     270: 3a 0a        	<unknown>
     272: 00 00        	<unknown>
     274: 8c 05        	<unknown>
		...
     27e: 02 00        	<unknown>
     280: 8e 05        	<unknown>
     282: 00 00        	<unknown>
     284: e4 05        	<unknown>
		...
     28e: 02 00        	<unknown>
     290: be 0e        	<unknown>
     292: 00 00        	<unknown>
     294: 18 06        	<unknown>
		...
     29e: 02 00        	<unknown>
     2a0: c7 08 00 00  	fmsub.s	fa7, ft0, ft0, ft0, rne
     2a4: 3c 06        	<unknown>
		...
     2ae: 02 00        	<unknown>
     2b0: 42 0d        	<unknown>
     2b2: 00 00        	<unknown>
     2b4: 4c 06        	<unknown>
		...
     2be: 02 00        	<unknown>
     2c0: 78 0b        	<unknown>
     2c2: 00 00        	<unknown>
     2c4: 58 06        	<unknown>
		...
     2ce: 02 00        	<unknown>
     2d0: f9 09        	<unknown>
     2d2: 00 00        	<unknown>
     2d4: 64 06        	<unknown>
		...
     2de: 02 00        	<unknown>
     2e0: a8 0d        	<unknown>
     2e2: 00 00        	<unknown>
     2e4: bc 06        	<unknown>
		...
     2ee: 02 00        	<unknown>
     2f0: 90 07        	<unknown>
     2f2: 00 00        	<unknown>
     2f4: 9c 06        	<unknown>
		...
     2fe: 02 00        	<unknown>
     300: f9 0b        	<unknown>
     302: 00 00        	<unknown>
     304: c4 06        	<unknown>
		...
     30e: 02 00        	<unknown>
     310: 5a 0f        	<unknown>
     312: 00 00        	<unknown>
     314: b4 06        	<unknown>
		...
     31e: 02 00        	<unknown>
     320: 36 0f        	<unknown>
     322: 00 00        	<unknown>
     324: fc 06        	<unknown>
		...
     32e: 02 00        	<unknown>
     330: cb 0b 00 00  	fnmsub.s	fs7, ft0, ft0, ft0, rne
     334: 48 07        	<unknown>
		...
     33e: 02 00        	<unknown>
     340: 7a 0d        	<unknown>
     342: 00 00        	<unknown>
     344: 40 07        	<unknown>
		...
     34e: 02 00        	<unknown>
     350: c0 08        	<unknown>
     352: 00 00        	<unknown>
     354: 40 07        	<unknown>
		...
     35e: 02 00        	<unknown>
     360: 65 06        	<unknown>
     362: 00 00        	<unknown>
     364: 50 07        	<unknown>
		...
     36e: 02 00        	<unknown>
     370: 67 0d 00 00  	jalr	s10, zero
     374: 98 07        	<unknown>
		...
     37e: 02 00        	<unknown>
     380: 66 05        	<unknown>
     382: 00 00        	<unknown>
     384: 78 07        	<unknown>
		...
     38e: 02 00        	<unknown>
     390: af 0b 00 00  	<unknown>
     394: a4 07        	<unknown>
		...
     39e: 02 00        	<unknown>
     3a0: 07 0f 00 00  	<unknown>
     3a4: 90 07        	<unknown>
		...
     3ae: 02 00        	<unknown>
     3b0: fe 12        	<unknown>
     3b2: 00 00        	<unknown>
     3b4: 98 08        	<unknown>
		...
     3be: 02 00        	<unknown>
     3c0: 4d 02        	<unknown>
     3c2: 00 00        	<unknown>
     3c4: e4 10        	<unknown>
     3c6: 00 00        	<unknown>
     3c8: a0 00        	<unknown>
     3ca: 00 00        	<unknown>
     3cc: 02 00        	<unknown>
     3ce: 02 00        	<unknown>
     3d0: da 03        	<unknown>
     3d2: 00 00        	<unknown>
     3d4: c4 08        	<unknown>
     3d6: 00 00        	<unknown>
     3d8: 20 08        	<unknown>
     3da: 00 00        	<unknown>
     3dc: 02 00        	<unknown>
     3de: 02 00        	<unknown>
     3e0: db 0e 00 00  	<unknown>
     3e4: 18 09        	<unknown>
		...
     3ee: 02 00        	<unknown>
     3f0: 5e 0d        	<unknown>
     3f2: 00 00        	<unknown>
     3f4: 20 09        	<unknown>
		...
     3fe: 02 00        	<unknown>
     400: 8f 11 00 00  	<unknown>
     404: 18 09        	<unknown>
		...
     40e: 02 00        	<unknown>
     410: 4a 03        	<unknown>
     412: 00 00        	<unknown>
     414: 84 11        	<unknown>
     416: 00 00        	<unknown>
     418: 04 00        	<unknown>
     41a: 00 00        	<unknown>
     41c: 02 00        	<unknown>
     41e: 02 00        	<unknown>
     420: 8b 0b 00 00  	<unknown>
     424: 40 09        	<unknown>
		...
     42e: 02 00        	<unknown>
     430: aa 08        	<unknown>
     432: 00 00        	<unknown>
     434: 88 10        	<unknown>
		...
     43e: 02 00        	<unknown>
     440: 15 0a        	<unknown>
     442: 00 00        	<unknown>
     444: 4c 09        	<unknown>
		...
     44e: 02 00        	<unknown>
     450: 9c 07        	<unknown>
     452: 00 00        	<unknown>
     454: 7c 09        	<unknown>
		...
     45e: 02 00        	<unknown>
     460: 0b 13 00 00  	<unknown>
     464: 90 09        	<unknown>
		...
     46e: 02 00        	<unknown>
     470: 71 06        	<unknown>
     472: 00 00        	<unknown>
     474: 84 09        	<unknown>
		...
     47e: 02 00        	<unknown>
     480: 72 05        	<unknown>
     482: 00 00        	<unknown>
     484: 88 09        	<unknown>
		...
     48e: 02 00        	<unknown>
     490: 30 0b        	<unknown>
     492: 00 00        	<unknown>
     494: d0 09        	<unknown>
		...
     49e: 02 00        	<unknown>
     4a0: 2d 10        	<unknown>
     4a2: 00 00        	<unknown>
     4a4: a0 09        	<unknown>
		...
     4ae: 02 00        	<unknown>
     4b0: 11 12        	<unknown>
		...
     4be: 04 00        	<unknown>
     4c0: 3a 10        	<unknown>
     4c2: 00 00        	<unknown>
     4c4: b8 09        	<unknown>
		...
     4ce: 02 00        	<unknown>
     4d0: 6c 0e        	<unknown>
     4d2: 00 00        	<unknown>
     4d4: c0 09        	<unknown>
		...
     4de: 02 00        	<unknown>
     4e0: f9 0c        	<unknown>
     4e2: 00 00        	<unknown>
     4e4: c8 09        	<unknown>
		...
     4ee: 02 00        	<unknown>
     4f0: 05 10        	<unknown>
     4f2: 00 00        	<unknown>
     4f4: 54 0a        	<unknown>
		...
     4fe: 02 00        	<unknown>
     500: 78 08        	<unknown>
     502: 00 00        	<unknown>
     504: e4 09        	<unknown>
		...
     50e: 02 00        	<unknown>
     510: 4d 08        	<unknown>
     512: 00 00        	<unknown>
     514: d4 0a        	<unknown>
		...
     51e: 02 00        	<unknown>
     520: 32 06        	<unknown>
     522: 00 00        	<unknown>
     524: 10 0a        	<unknown>
		...
     52e: 02 00        	<unknown>
     530: ba 0c        	<unknown>
     532: 00 00        	<unknown>
     534: 98 0a        	<unknown>
		...
     53e: 02 00        	<unknown>
     540: 71 11        	<unknown>
     542: 00 00        	<unknown>
     544: 2c 0a        	<unknown>
		...
     54e: 02 00        	<unknown>
     550: 11 06        	<unknown>
     552: 00 00        	<unknown>
     554: e0 0a        	<unknown>
		...
     55e: 02 00        	<unknown>
     560: 8f 09 00 00  	<unknown>
     564: c8 0a        	<unknown>
		...
     56e: 02 00        	<unknown>
     570: 49 07        	<unknown>
     572: 00 00        	<unknown>
     574: dc 0a        	<unknown>
		...
     57e: 02 00        	<unknown>
     580: a9 12        	<unknown>
     582: 00 00        	<unknown>
     584: e4 0a        	<unknown>
		...
     58e: 02 00        	<unknown>
     590: 1e 07        	<unknown>
     592: 00 00        	<unknown>
     594: 58 0b        	<unknown>
		...
     59e: 02 00        	<unknown>
     5a0: 5f 0e 00 00  	<unknown>
     5a4: fc 0a        	<unknown>
		...
     5ae: 02 00        	<unknown>
     5b0: 92 10        	<unknown>
     5b2: 00 00        	<unknown>
     5b4: 44 00        	<unknown>
		...
     5be: 04 00        	<unknown>
     5c0: da 0f        	<unknown>
     5c2: 00 00        	<unknown>
     5c4: 18 0b        	<unknown>
		...
     5ce: 02 00        	<unknown>
     5d0: fd 06        	<unknown>
     5d2: 00 00        	<unknown>
     5d4: 68 0c        	<unknown>
		...
     5de: 02 00        	<unknown>
     5e0: 36 08        	<unknown>
     5e2: 00 00        	<unknown>
     5e4: 4c 0b        	<unknown>
		...
     5ee: 02 00        	<unknown>
     5f0: 99 0c        	<unknown>
     5f2: 00 00        	<unknown>
     5f4: 30 0b        	<unknown>
		...
     5fe: 02 00        	<unknown>
     600: da 0a        	<unknown>
     602: 00 00        	<unknown>
     604: 38 0b        	<unknown>
		...
     60e: 02 00        	<unknown>
     610: d9 05        	<unknown>
     612: 00 00        	<unknown>
     614: 74 0c        	<unknown>
		...
     61e: 02 00        	<unknown>
     620: fa 10        	<unknown>
     622: 00 00        	<unknown>
     624: 8c 0c        	<unknown>
		...
     62e: 02 00        	<unknown>
     630: ec 0c        	<unknown>
     632: 00 00        	<unknown>
     634: 68 0b        	<unknown>
		...
     63e: 02 00        	<unknown>
     640: d1 0e        	<unknown>
     642: 00 00        	<unknown>
     644: 6c 00        	<unknown>
		...
     64e: 04 00        	<unknown>
     650: 92 12        	<unknown>
     652: 00 00        	<unknown>
     654: 84 0b        	<unknown>
		...
     65e: 02 00        	<unknown>
     660: 25 11        	<unknown>
     662: 00 00        	<unknown>
     664: 8c 0b        	<unknown>
		...
     66e: 02 00        	<unknown>
     670: 98 0a        	<unknown>
     672: 00 00        	<unknown>
     674: b0 0c        	<unknown>
		...
     67e: 02 00        	<unknown>
     680: 4d 0c        	<unknown>
     682: 00 00        	<unknown>
     684: a8 0c        	<unknown>
		...
     68e: 02 00        	<unknown>
     690: 13 0e 00 00  	li	t3, 0
     694: b4 0b        	<unknown>
		...
     69e: 02 00        	<unknown>
     6a0: 23 05 00 00  	sb	zero, 10(zero)
     6a4: 20 15        	<unknown>
     6a6: 00 00        	<unknown>
     6a8: 70 06        	<unknown>
     6aa: 00 00        	<unknown>
     6ac: 02 00        	<unknown>
     6ae: 02 00        	<unknown>
     6b0: 6e 0c        	<unknown>
     6b2: 00 00        	<unknown>
     6b4: 08 0c        	<unknown>
		...
     6be: 02 00        	<unknown>
     6c0: af 0a 00 00  	<unknown>
     6c4: 10 0c        	<unknown>
		...
     6ce: 02 00        	<unknown>
     6d0: 0b 08 00 00  	<unknown>
     6d4: 20 0c        	<unknown>
		...
     6de: 02 00        	<unknown>
     6e0: 29 05        	<unknown>
     6e2: 00 00        	<unknown>
     6e4: 90 1b        	<unknown>
     6e6: 00 00        	<unknown>
     6e8: 64 04        	<unknown>
     6ea: 00 00        	<unknown>
     6ec: 02 00        	<unknown>
     6ee: 02 00        	<unknown>
     6f0: 71 12        	<unknown>
     6f2: 00 00        	<unknown>
     6f4: 80 0c        	<unknown>
		...
     6fe: 02 00        	<unknown>
     700: a2 0f        	<unknown>
     702: 00 00        	<unknown>
     704: 90 0c        	<unknown>
		...
     70e: 02 00        	<unknown>
     710: 2c 0d        	<unknown>
     712: 00 00        	<unknown>
     714: 6c 10        	<unknown>
		...
     71e: 02 00        	<unknown>
     720: f2 0d        	<unknown>
     722: 00 00        	<unknown>
     724: a4 0c        	<unknown>
		...
     72e: 02 00        	<unknown>
     730: f4 07        	<unknown>
     732: 00 00        	<unknown>
     734: bc 0c        	<unknown>
		...
     73e: 02 00        	<unknown>
     740: c2 05        	<unknown>
     742: 00 00        	<unknown>
     744: cc 0c        	<unknown>
		...
     74e: 02 00        	<unknown>
     750: 77 0a 00 00  	<unknown>
     754: 04 0d        	<unknown>
		...
     75e: 02 00        	<unknown>
     760: 6d 0b        	<unknown>
     762: 00 00        	<unknown>
     764: 70 10        	<unknown>
		...
     76e: 02 00        	<unknown>
     770: d6 10        	<unknown>
     772: 00 00        	<unknown>
     774: 3c 0d        	<unknown>
		...
     77e: 02 00        	<unknown>
     780: ba 0d        	<unknown>
     782: 00 00        	<unknown>
     784: 0c 0f        	<unknown>
		...
     78e: 02 00        	<unknown>
     790: 36 0c        	<unknown>
     792: 00 00        	<unknown>
     794: fc 0c        	<unknown>
		...
     79e: 02 00        	<unknown>
     7a0: 0b 0c 00 00  	<unknown>
     7a4: 14 0f        	<unknown>
		...
     7ae: 02 00        	<unknown>
     7b0: 4c 0a        	<unknown>
     7b2: 00 00        	<unknown>
     7b4: 40 0f        	<unknown>
		...
     7be: 02 00        	<unknown>
     7c0: 97 05 00 00  	auipc	a1, 0
     7c4: 90 0f        	<unknown>
		...
     7ce: 02 00        	<unknown>
     7d0: 39 12        	<unknown>
     7d2: 00 00        	<unknown>
     7d4: 34 0d        	<unknown>
		...
     7de: 02 00        	<unknown>
     7e0: 53 13 00 00  	fadd.s	ft6, ft0, ft0, rtz
     7e4: 98 0f        	<unknown>
		...
     7ee: 02 00        	<unknown>
     7f0: 01 09        	<unknown>
     7f2: 00 00        	<unknown>
     7f4: 60 0f        	<unknown>
		...
     7fe: 02 00        	<unknown>
     800: 7e 0f        	<unknown>
     802: 00 00        	<unknown>
     804: 6c 0d        	<unknown>
		...
     80e: 02 00        	<unknown>
     810: 15 09        	<unknown>
     812: 00 00        	<unknown>
     814: a8 0d        	<unknown>
		...
     81e: 02 00        	<unknown>
     820: 56 0a        	<unknown>
     822: 00 00        	<unknown>
     824: 88 0d        	<unknown>
		...
     82e: 02 00        	<unknown>
     830: b1 06        	<unknown>
     832: 00 00        	<unknown>
     834: 80 0f        	<unknown>
		...
     83e: 02 00        	<unknown>
     840: c5 06        	<unknown>
     842: 00 00        	<unknown>
     844: e4 0d        	<unknown>
		...
     84e: 02 00        	<unknown>
     850: 2f 12 00 00  	<unknown>
     854: 10 0e        	<unknown>
		...
     85e: 02 00        	<unknown>
     860: d3 07 00 00  	fadd.s	fa5, ft0, ft0, rne
     864: 68 0f        	<unknown>
		...
     86e: 02 00        	<unknown>
     870: cc 10        	<unknown>
     872: 00 00        	<unknown>
     874: 44 0e        	<unknown>
		...
     87e: 02 00        	<unknown>
     880: 15 0c        	<unknown>
     882: 00 00        	<unknown>
     884: 8c 0e        	<unknown>
		...
     88e: 02 00        	<unknown>
     890: c4 0d        	<unknown>
     892: 00 00        	<unknown>
     894: 6c 0e        	<unknown>
		...
     89e: 02 00        	<unknown>
     8a0: dd 07        	<unknown>
     8a2: 00 00        	<unknown>
     8a4: b8 0e        	<unknown>
		...
     8ae: 02 00        	<unknown>
     8b0: bb 06 00 00  	<unknown>
     8b4: c4 0e        	<unknown>
		...
     8be: 02 00        	<unknown>
     8c0: 0b 09 00 00  	<unknown>
     8c4: a8 0e        	<unknown>
		...
     8ce: 02 00        	<unknown>
     8d0: a1 05        	<unknown>
     8d2: 00 00        	<unknown>
     8d4: d4 0e        	<unknown>
		...
     8de: 02 00        	<unknown>
     8e0: aa 0e        	<unknown>
     8e2: 00 00        	<unknown>
     8e4: d4 0f        	<unknown>
		...
     8ee: 02 00        	<unknown>
     8f0: 63 10 00 00  	bnez	zero, 0x8f0 <.symtab+0x8f0>
     8f4: d0 0f        	<unknown>
		...
     8fe: 02 00        	<unknown>
     900: c2 10        	<unknown>
     902: 00 00        	<unknown>
     904: e4 0e        	<unknown>
		...
     90e: 02 00        	<unknown>
     910: 37 0d 00 00  	lui	s10, 0
     914: d8 0f        	<unknown>
		...
     91e: 02 00        	<unknown>
     920: e4 11        	<unknown>
     922: 00 00        	<unknown>
     924: b4 0f        	<unknown>
		...
     92e: 02 00        	<unknown>
     930: b7 03 00 00  	lui	t2, 0
     934: 88 11        	<unknown>
     936: 00 00        	<unknown>
     938: 98 03        	<unknown>
     93a: 00 00        	<unknown>
     93c: 02 00        	<unknown>
     93e: 02 00        	<unknown>
     940: 48 13        	<unknown>
     942: 00 00        	<unknown>
     944: 1c 10        	<unknown>
		...
     94e: 02 00        	<unknown>
     950: 7e 07        	<unknown>
     952: 00 00        	<unknown>
     954: 10 10        	<unknown>
		...
     95e: 02 00        	<unknown>
     960: ee 09        	<unknown>
     962: 00 00        	<unknown>
     964: e4 0f        	<unknown>
		...
     96e: 02 00        	<unknown>
     970: b5 08        	<unknown>
     972: 00 00        	<unknown>
     974: e8 0f        	<unknown>
		...
     97e: 02 00        	<unknown>
     980: d9 11        	<unknown>
     982: 00 00        	<unknown>
     984: 20 10        	<unknown>
		...
     98e: 02 00        	<unknown>
     990: e3 09 00 00  	beqz	zero, 0x11a2 <.symtab+0x11a2>
     994: 78 10        	<unknown>
		...
     99e: 02 00        	<unknown>
     9a0: 9f 0e 00 00  	<unknown>
     9a4: 4c 10        	<unknown>
		...
     9ae: 02 00        	<unknown>
     9b0: 5a 06        	<unknown>
     9b2: 00 00        	<unknown>
     9b4: 94 10        	<unknown>
		...
     9be: 02 00        	<unknown>
     9c0: 0c 0a        	<unknown>
     9c2: 00 00        	<unknown>
     9c4: 80 11        	<unknown>
		...
     9ce: 02 00        	<unknown>
     9d0: 23 0b 00 00  	sb	zero, 22(zero)
     9d4: f4 10        	<unknown>
		...
     9de: 02 00        	<unknown>
     9e0: b7 09 00 00  	lui	s3, 0
     9e4: 64 11        	<unknown>
		...
     9ee: 02 00        	<unknown>
     9f0: 6b 08 00 00  	<unknown>
     9f4: 6c 11        	<unknown>
		...
     9fe: 02 00        	<unknown>
     a00: 55 0d        	<unknown>
     a02: 00 00        	<unknown>
     a04: 70 11        	<unknown>
		...
     a0e: 02 00        	<unknown>
     a10: 51 0f        	<unknown>
     a12: 00 00        	<unknown>
     a14: dc 11        	<unknown>
		...
     a1e: 02 00        	<unknown>
     a20: ca 07        	<unknown>
     a22: 00 00        	<unknown>
     a24: 54 12        	<unknown>
		...
     a2e: 02 00        	<unknown>
     a30: 43 0a 00 00  	fmadd.s	fs4, ft0, ft0, ft0, rne
     a34: 34 12        	<unknown>
		...
     a3e: 02 00        	<unknown>
     a40: f0 0b        	<unknown>
     a42: 00 00        	<unknown>
     a44: 08 12        	<unknown>
		...
     a4e: 02 00        	<unknown>
     a50: a8 06        	<unknown>
     a52: 00 00        	<unknown>
     a54: 58 12        	<unknown>
		...
     a5e: 02 00        	<unknown>
     a60: d9 09        	<unknown>
     a62: 00 00        	<unknown>
     a64: a4 12        	<unknown>
		...
     a6e: 02 00        	<unknown>
     a70: 59 10        	<unknown>
     a72: 00 00        	<unknown>
     a74: 7c 12        	<unknown>
		...
     a7e: 02 00        	<unknown>
     a80: 74 07        	<unknown>
     a82: 00 00        	<unknown>
     a84: b8 12        	<unknown>
		...
     a8e: 02 00        	<unknown>
     a90: 50 06        	<unknown>
     a92: 00 00        	<unknown>
     a94: c0 12        	<unknown>
		...
     a9e: 02 00        	<unknown>
     aa0: 22 0d        	<unknown>
     aa2: 00 00        	<unknown>
     aa4: 8c 12        	<unknown>
		...
     aae: 02 00        	<unknown>
     ab0: 23 10 00 00  	sh	zero, 0(zero)
     ab4: f0 12        	<unknown>
		...
     abe: 02 00        	<unknown>
     ac0: 63 0b 00 00  	beqz	zero, 0xad6 <.symtab+0xad6>
     ac4: 98 12        	<unknown>
		...
     ace: 02 00        	<unknown>
     ad0: 55 0e        	<unknown>
     ad2: 00 00        	<unknown>
     ad4: 00 13        	<unknown>
		...
     ade: 02 00        	<unknown>
     ae0: ad 09        	<unknown>
     ae2: 00 00        	<unknown>
     ae4: 2c 13        	<unknown>
		...
     aee: 02 00        	<unknown>
     af0: a0 08        	<unknown>
     af2: 00 00        	<unknown>
     af4: ac 12        	<unknown>
		...
     afe: 02 00        	<unknown>
     b00: 32 07        	<unknown>
     b02: 00 00        	<unknown>
     b04: f4 13        	<unknown>
		...
     b0e: 02 00        	<unknown>
     b10: c3 0f 00 00  	fmadd.s	ft11, ft0, ft0, ft0, rne
     b14: 24 14        	<unknown>
		...
     b1e: 02 00        	<unknown>
     b20: e8 12        	<unknown>
     b22: 00 00        	<unknown>
     b24: d0 12        	<unknown>
		...
     b2e: 02 00        	<unknown>
     b30: e2 0c        	<unknown>
     b32: 00 00        	<unknown>
     b34: 10 13        	<unknown>
		...
     b3e: 02 00        	<unknown>
     b40: 5a 11        	<unknown>
     b42: 00 00        	<unknown>
     b44: 74 13        	<unknown>
		...
     b4e: 02 00        	<unknown>
     b50: c7 12 00 00  	fmsub.s	ft5, ft0, ft0, ft0, rtz
     b54: 70 13        	<unknown>
		...
     b5e: 02 00        	<unknown>
     b60: a3 0c 00 00  	sb	zero, 25(zero)
     b64: a8 13        	<unknown>
		...
     b6e: 02 00        	<unknown>
     b70: ee 0a        	<unknown>
     b72: 00 00        	<unknown>
     b74: c0 13        	<unknown>
		...
     b7e: 02 00        	<unknown>
     b80: 78 09        	<unknown>
     b82: 00 00        	<unknown>
     b84: d0 13        	<unknown>
		...
     b8e: 02 00        	<unknown>
     b90: 39 11        	<unknown>
     b92: 00 00        	<unknown>
     b94: 14 14        	<unknown>
		...
     b9e: 02 00        	<unknown>
     ba0: c3 0a 00 00  	fmadd.s	fs5, ft0, ft0, ft0, rne
     ba4: 64 14        	<unknown>
		...
     bae: 02 00        	<unknown>
     bb0: 82 0c        	<unknown>
     bb2: 00 00        	<unknown>
     bb4: 44 14        	<unknown>
		...
     bbe: 02 00        	<unknown>
     bc0: 07 07 00 00  	<unknown>
     bc4: 9c 14        	<unknown>
		...
     bce: 02 00        	<unknown>
     bd0: 1f 08 00 00  	<unknown>
     bd4: 6c 14        	<unknown>
		...
     bde: 02 00        	<unknown>
     be0: ed 05        	<unknown>
     be2: 00 00        	<unknown>
     be4: a0 14        	<unknown>
		...
     bee: 02 00        	<unknown>
     bf0: ac 0f        	<unknown>
     bf2: 00 00        	<unknown>
     bf4: e0 14        	<unknown>
		...
     bfe: 02 00        	<unknown>
     c00: 0e 11        	<unknown>
     c02: 00 00        	<unknown>
     c04: b8 14        	<unknown>
		...
     c0e: 02 00        	<unknown>
     c10: fc 0d        	<unknown>
     c12: 00 00        	<unknown>
     c14: e4 14        	<unknown>
		...
     c1e: 02 00        	<unknown>
     c20: 25 12        	<unknown>
		...
     c2e: 06 00        	<unknown>
     c30: a6 10        	<unknown>
     c32: 00 00        	<unknown>
     c34: 08 00        	<unknown>
		...
     c3e: 06 00        	<unknown>
     c40: 2c 0f        	<unknown>
     c42: 00 00        	<unknown>
     c44: 10 00        	<unknown>
		...
     c4e: 06 00        	<unknown>
     c50: 95 0d        	<unknown>
     c52: 00 00        	<unknown>
     c54: 18 00        	<unknown>
		...
     c5e: 06 00        	<unknown>
     c60: dd 0b        	<unknown>
     c62: 00 00        	<unknown>
     c64: 20 00        	<unknown>
		...
     c6e: 06 00        	<unknown>
     c70: 5d 07        	<unknown>
     c72: 00 00        	<unknown>
     c74: 50 15        	<unknown>
		...
     c7e: 02 00        	<unknown>
     c80: c1 07        	<unknown>
     c82: 00 00        	<unknown>
     c84: 5c 16        	<unknown>
		...
     c8e: 02 00        	<unknown>
     c90: e7 0b 00 00  	jalr	s7, zero
     c94: bc 15        	<unknown>
		...
     c9e: 02 00        	<unknown>
     ca0: 9f 0d 00 00  	<unknown>
     ca4: 9c 15        	<unknown>
		...
     cae: 02 00        	<unknown>
     cb0: 3e 13        	<unknown>
     cb2: 00 00        	<unknown>
     cb4: 84 16        	<unknown>
		...
     cbe: 02 00        	<unknown>
     cc0: f8 08        	<unknown>
     cc2: 00 00        	<unknown>
     cc4: 34 16        	<unknown>
		...
     cce: 02 00        	<unknown>
     cd0: 60 0a        	<unknown>
     cd2: 00 00        	<unknown>
     cd4: 58 1b        	<unknown>
		...
     cde: 02 00        	<unknown>
     ce0: 25 06        	<unknown>
     ce2: 00 00        	<unknown>
     ce4: 5c 16        	<unknown>
		...
     cee: 02 00        	<unknown>
     cf0: cf 11 00 00  	fnmadd.s	ft3, ft0, ft0, ft0, rtz
     cf4: 8c 16        	<unknown>
		...
     cfe: 02 00        	<unknown>
     d00: 95 0e        	<unknown>
     d02: 00 00        	<unknown>
     d04: fc 16        	<unknown>
		...
     d0e: 02 00        	<unknown>
     d10: 64 11        	<unknown>
     d12: 00 00        	<unknown>
     d14: 78 16        	<unknown>
		...
     d1e: 02 00        	<unknown>
     d20: 6e 10        	<unknown>
     d22: 00 00        	<unknown>
     d24: 00 00        	<unknown>
     d26: 00 00        	<unknown>
     d28: 05 00        	<unknown>
     d2a: 00 00        	<unknown>
     d2c: 01 00        	<unknown>
     d2e: 0b 00 18 0d  	<unknown>
     d32: 00 00        	<unknown>
     d34: 04 17        	<unknown>
		...
     d3e: 02 00        	<unknown>
     d40: f8 0f        	<unknown>
     d42: 00 00        	<unknown>
     d44: 8c 16        	<unknown>
		...
     d4e: 02 00        	<unknown>
     d50: 3e 0e        	<unknown>
     d52: 00 00        	<unknown>
     d54: 94 16        	<unknown>
		...
     d5e: 02 00        	<unknown>
     d60: 19 10        	<unknown>
     d62: 00 00        	<unknown>
     d64: b8 17        	<unknown>
		...
     d6e: 02 00        	<unknown>
     d70: d1 12        	<unknown>
     d72: 00 00        	<unknown>
     d74: fc 16        	<unknown>
		...
     d7e: 02 00        	<unknown>
     d80: b5 0e        	<unknown>
     d82: 00 00        	<unknown>
     d84: 05 00        	<unknown>
     d86: 00 00        	<unknown>
     d88: 04 00        	<unknown>
     d8a: 00 00        	<unknown>
     d8c: 01 00        	<unknown>
     d8e: 0b 00 96 08  	<unknown>
     d92: 00 00        	<unknown>
     d94: 48 17        	<unknown>
		...
     d9e: 02 00        	<unknown>
     da0: cf 09 00 00  	fnmadd.s	fs3, ft0, ft0, ft0, rne
     da4: 28 17        	<unknown>
		...
     dae: 02 00        	<unknown>
     db0: 6a 07        	<unknown>
     db2: 00 00        	<unknown>
     db4: 50 17        	<unknown>
		...
     dbe: 02 00        	<unknown>
     dc0: 1f 0c 00 00  	<unknown>
     dc4: 54 1b        	<unknown>
		...
     dce: 02 00        	<unknown>
     dd0: 85 11        	<unknown>
     dd2: 00 00        	<unknown>
     dd4: 90 17        	<unknown>
		...
     dde: 02 00        	<unknown>
     de0: d8 0c        	<unknown>
     de2: 00 00        	<unknown>
     de4: d8 17        	<unknown>
		...
     dee: 02 00        	<unknown>
     df0: 19 0b        	<unknown>
     df2: 00 00        	<unknown>
     df4: e8 17        	<unknown>
		...
     dfe: 02 00        	<unknown>
     e00: a3 09 00 00  	sb	zero, 19(zero)
     e04: ec 17        	<unknown>
		...
     e0e: 02 00        	<unknown>
     e10: ee 0f        	<unknown>
     e12: 00 00        	<unknown>
     e14: 34 18        	<unknown>
		...
     e1e: 02 00        	<unknown>
     e20: 1b 06 00 00  	<unknown>
     e24: 04 18        	<unknown>
		...
     e2e: 02 00        	<unknown>
     e30: bd 12        	<unknown>
     e32: 00 00        	<unknown>
     e34: 14 18        	<unknown>
		...
     e3e: 02 00        	<unknown>
     e40: 34 0e        	<unknown>
     e42: 00 00        	<unknown>
     e44: 3c 18        	<unknown>
		...
     e4e: 02 00        	<unknown>
     e50: ad 0c        	<unknown>
     e52: 00 00        	<unknown>
     e54: 40 18        	<unknown>
		...
     e5e: 02 00        	<unknown>
     e60: f2 12        	<unknown>
     e62: 00 00        	<unknown>
     e64: c0 01        	<unknown>
     e66: 00 00        	<unknown>
     e68: 50 00        	<unknown>
     e6a: 00 00        	<unknown>
     e6c: 01 00        	<unknown>
     e6e: 04 00        	<unknown>
     e70: f8 0a        	<unknown>
     e72: 00 00        	<unknown>
     e74: 60 18        	<unknown>
		...
     e7e: 02 00        	<unknown>
     e80: 6e 09        	<unknown>
     e82: 00 00        	<unknown>
     e84: 98 18        	<unknown>
		...
     e8e: 02 00        	<unknown>
     e90: 28 07        	<unknown>
     e92: 00 00        	<unknown>
     e94: b0 18        	<unknown>
		...
     e9e: 02 00        	<unknown>
     ea0: 78 0c        	<unknown>
     ea2: 00 00        	<unknown>
     ea4: 2c 19        	<unknown>
		...
     eae: 02 00        	<unknown>
     eb0: 04 11        	<unknown>
     eb2: 00 00        	<unknown>
     eb4: fc 19        	<unknown>
		...
     ebe: 02 00        	<unknown>
     ec0: 2f 11 00 00  	<unknown>
     ec4: d0 18        	<unknown>
		...
     ece: 02 00        	<unknown>
     ed0: b9 0a        	<unknown>
     ed2: 00 00        	<unknown>
     ed4: 50 19        	<unknown>
		...
     ede: 02 00        	<unknown>
     ee0: 15 08        	<unknown>
     ee2: 00 00        	<unknown>
     ee4: 84 19        	<unknown>
		...
     eee: 02 00        	<unknown>
     ef0: e3 05 00 00  	beqz	zero, 0x16fa <.symtab+0x16fa>
     ef4: a8 19        	<unknown>
		...
     efe: 02 00        	<unknown>
     f00: 4d 09        	<unknown>
     f02: 00 00        	<unknown>
     f04: 5c 19        	<unknown>
		...
     f0e: 02 00        	<unknown>
     f10: 7b 12 00 00  	<unknown>
     f14: b8 19        	<unknown>
		...
     f1e: 02 00        	<unknown>
     f20: 5a 12        	<unknown>
     f22: 00 00        	<unknown>
     f24: 5c 1a        	<unknown>
		...
     f2e: 02 00        	<unknown>
     f30: 57 0c 00 00  	<unknown>
     f34: 24 1a        	<unknown>
		...
     f3e: 02 00        	<unknown>
     f40: 36 09        	<unknown>
     f42: 00 00        	<unknown>
     f44: 34 1a        	<unknown>
		...
     f4e: 02 00        	<unknown>
     f50: e6 06        	<unknown>
     f52: 00 00        	<unknown>
     f54: 48 1a        	<unknown>
		...
     f5e: 02 00        	<unknown>
     f60: 1f 09 00 00  	<unknown>
     f64: a8 1a        	<unknown>
		...
     f6e: 02 00        	<unknown>
     f70: 81 0a        	<unknown>
     f72: 00 00        	<unknown>
     f74: 98 1a        	<unknown>
		...
     f7e: 02 00        	<unknown>
     f80: ab 05 00 00  	<unknown>
     f84: e4 1a        	<unknown>
		...
     f8e: 02 00        	<unknown>
     f90: cf 06 00 00  	fnmadd.s	fa3, ft0, ft0, ft0, rne
     f94: c4 1a        	<unknown>
		...
     f9e: 02 00        	<unknown>
     fa0: 43 12 00 00  	fmadd.s	ft4, ft0, ft0, ft0, rtz
     fa4: ec 1a        	<unknown>
		...
     fae: 02 00        	<unknown>
     fb0: ce 0d        	<unknown>
     fb2: 00 00        	<unknown>
     fb4: 2c 1b        	<unknown>
		...
     fbe: 02 00        	<unknown>
     fc0: 1b 12 00 00  	<unknown>
     fc4: 28 00        	<unknown>
		...
     fce: 06 00        	<unknown>
     fd0: 9c 10        	<unknown>
     fd2: 00 00        	<unknown>
     fd4: 30 00        	<unknown>
		...
     fde: 06 00        	<unknown>
     fe0: 10 0f        	<unknown>
     fe2: 00 00        	<unknown>
     fe4: 38 00        	<unknown>
		...
     fee: 06 00        	<unknown>
     ff0: 70 0d        	<unknown>
     ff2: 00 00        	<unknown>
     ff4: 40 00        	<unknown>
		...
     ffe: 06 00        	<unknown>
    1000: b8 0b        	<unknown>
    1002: 00 00        	<unknown>
    1004: 48 00        	<unknown>
		...
    100e: 06 00        	<unknown>
    1010: 27 0a 00 00  	<unknown>
    1014: 50 00        	<unknown>
		...
    101e: 06 00        	<unknown>
    1020: dc 08        	<unknown>
    1022: 00 00        	<unknown>
    1024: 58 00        	<unknown>
		...
    102e: 06 00        	<unknown>
    1030: a5 07        	<unknown>
    1032: 00 00        	<unknown>
    1034: 60 00        	<unknown>
		...
    103e: 06 00        	<unknown>
    1040: 83 06 00 00  	lb	a3, 0(zero)
    1044: 68 00        	<unknown>
		...
    104e: 06 00        	<unknown>
    1050: 84 05        	<unknown>
    1052: 00 00        	<unknown>
    1054: 70 00        	<unknown>
		...
    105e: 06 00        	<unknown>
    1060: 1f 13 00 00  	<unknown>
    1064: 78 00        	<unknown>
		...
    106e: 06 00        	<unknown>
    1070: a6 11        	<unknown>
    1072: 00 00        	<unknown>
    1074: 80 00        	<unknown>
		...
    107e: 06 00        	<unknown>
    1080: 4e 10        	<unknown>
    1082: 00 00        	<unknown>
    1084: 88 00        	<unknown>
		...
    108e: 06 00        	<unknown>
    1090: 80 0e        	<unknown>
    1092: 00 00        	<unknown>
    1094: 90 00        	<unknown>
		...
    109e: 06 00        	<unknown>
    10a0: 03 0d 00 00  	lb	s10, 0(zero)
    10a4: 98 00        	<unknown>
		...
    10ae: 06 00        	<unknown>
    10b0: 44 0b        	<unknown>
    10b2: 00 00        	<unknown>
    10b4: a0 00        	<unknown>
		...
    10be: 06 00        	<unknown>
    10c0: c4 09        	<unknown>
    10c2: 00 00        	<unknown>
    10c4: a8 00        	<unknown>
		...
    10ce: 06 00        	<unknown>
    10d0: 82 09        	<unknown>
    10d2: 00 00        	<unknown>
    10d4: c0 1b        	<unknown>
		...
    10de: 02 00        	<unknown>
    10e0: 40 08        	<unknown>
    10e2: 00 00        	<unknown>
    10e4: c8 1b        	<unknown>
		...
    10ee: 02 00        	<unknown>
    10f0: 1a 0f        	<unknown>
    10f2: 00 00        	<unknown>
    10f4: 50 1c        	<unknown>
		...
    10fe: 02 00        	<unknown>
    1100: c2 0b        	<unknown>
    1102: 00 00        	<unknown>
    1104: 70 1c        	<unknown>
		...
    110e: 02 00        	<unknown>
    1110: 31 0a        	<unknown>
    1112: 00 00        	<unknown>
    1114: 80 1c        	<unknown>
		...
    111e: 02 00        	<unknown>
    1120: e6 08        	<unknown>
    1122: 00 00        	<unknown>
    1124: 84 1c        	<unknown>
		...
    112e: 02 00        	<unknown>
    1130: 3c 07        	<unknown>
    1132: 00 00        	<unknown>
    1134: b0 1c        	<unknown>
		...
    113e: 02 00        	<unknown>
    1140: 04 06        	<unknown>
    1142: 00 00        	<unknown>
    1144: b8 1c        	<unknown>
		...
    114e: 02 00        	<unknown>
    1150: 9c 12        	<unknown>
    1152: 00 00        	<unknown>
    1154: d0 1c        	<unknown>
		...
    115e: 02 00        	<unknown>
    1160: 43 11 00 00  	fmadd.s	ft2, ft0, ft0, ft0, rtz
    1164: d8 1c        	<unknown>
		...
    116e: 02 00        	<unknown>
    1170: cd 0f        	<unknown>
    1172: 00 00        	<unknown>
    1174: e0 1c        	<unknown>
		...
    117e: 02 00        	<unknown>
    1180: 1d 0e        	<unknown>
    1182: 00 00        	<unknown>
    1184: f8 1c        	<unknown>
		...
    118e: 02 00        	<unknown>
    1190: 8c 0c        	<unknown>
    1192: 00 00        	<unknown>
    1194: 00 1d        	<unknown>
		...
    119e: 02 00        	<unknown>
    11a0: 57 09 00 00  	<unknown>
    11a4: 2c 1d        	<unknown>
		...
    11ae: 02 00        	<unknown>
    11b0: 29 08        	<unknown>
    11b2: 00 00        	<unknown>
    11b4: 34 1d        	<unknown>
		...
    11be: 02 00        	<unknown>
    11c0: cd 0a        	<unknown>
    11c2: 00 00        	<unknown>
    11c4: 40 1d        	<unknown>
		...
    11ce: 02 00        	<unknown>
    11d0: 11 07        	<unknown>
    11d2: 00 00        	<unknown>
    11d4: 4c 1d        	<unknown>
		...
    11de: 02 00        	<unknown>
    11e0: 8d 06        	<unknown>
    11e2: 00 00        	<unknown>
    11e4: 88 1d        	<unknown>
		...
    11ee: 02 00        	<unknown>
    11f0: f7 05 00 00  	<unknown>
    11f4: 7c 1d        	<unknown>
		...
    11fe: 02 00        	<unknown>
    1200: 4f 0b 00 00  	fnmadd.s	fs6, ft0, ft0, ft0, rne
    1204: f8 1d        	<unknown>
		...
    120e: 02 00        	<unknown>
    1210: 85 12        	<unknown>
    1212: 00 00        	<unknown>
    1214: a0 1d        	<unknown>
		...
    121e: 02 00        	<unknown>
    1220: 18 11        	<unknown>
    1222: 00 00        	<unknown>
    1224: a8 1d        	<unknown>
		...
    122e: 02 00        	<unknown>
    1230: b1 11        	<unknown>
    1232: 00 00        	<unknown>
    1234: e4 1d        	<unknown>
		...
    123e: 02 00        	<unknown>
    1240: 0e 0d        	<unknown>
    1242: 00 00        	<unknown>
    1244: f4 1d        	<unknown>
		...
    124e: 02 00        	<unknown>
    1250: 82 08        	<unknown>
    1252: 00 00        	<unknown>
    1254: 2c 1e        	<unknown>
		...
    125e: 02 00        	<unknown>
    1260: b6 0f        	<unknown>
    1262: 00 00        	<unknown>
    1264: 24 1e        	<unknown>
		...
    126e: 02 00        	<unknown>
    1270: 3c 06        	<unknown>
    1272: 00 00        	<unknown>
    1274: 3c 1e        	<unknown>
		...
    127e: 02 00        	<unknown>
    1280: 64 09        	<unknown>
    1282: 00 00        	<unknown>
    1284: bc 1f        	<unknown>
		...
    128e: 02 00        	<unknown>
    1290: 7b 11 00 00  	<unknown>
    1294: a4 1e        	<unknown>
		...
    129e: 02 00        	<unknown>
    12a0: 50 11        	<unknown>
    12a2: 00 00        	<unknown>
    12a4: 88 1f        	<unknown>
		...
    12ae: 02 00        	<unknown>
    12b0: e4 0f        	<unknown>
    12b2: 00 00        	<unknown>
    12b4: 90 1f        	<unknown>
		...
    12be: 02 00        	<unknown>
    12c0: c4 0c        	<unknown>
    12c2: 00 00        	<unknown>
    12c4: ec 1e        	<unknown>
		...
    12ce: 02 00        	<unknown>
    12d0: 99 09        	<unknown>
    12d2: 00 00        	<unknown>
    12d4: 10 1f        	<unknown>
		...
    12de: 02 00        	<unknown>
    12e0: 05 0b        	<unknown>
    12e2: 00 00        	<unknown>
    12e4: f4 1e        	<unknown>
		...
    12ee: 02 00        	<unknown>
    12f0: 57 08 00 00  	<unknown>
    12f4: 24 1f        	<unknown>
		...
    12fe: 02 00        	<unknown>
    1300: e4 0a        	<unknown>
    1302: 00 00        	<unknown>
    1304: b8 1f        	<unknown>
		...
    130e: 02 00        	<unknown>
    1310: b3 12 00 00  	sll	t0, zero, zero
    1314: 60 1f        	<unknown>
		...
    131e: 02 00        	<unknown>
    1320: 2a 0e        	<unknown>
    1322: 00 00        	<unknown>
    1324: 98 1f        	<unknown>
		...
    132e: 02 00        	<unknown>
    1330: 06 0e        	<unknown>
    1332: 00 00        	<unknown>
    1334: 00 20        	<unknown>
		...
    133e: 02 00        	<unknown>
    1340: a6 0b        	<unknown>
    1342: 00 00        	<unknown>
    1344: 8c 20        	<unknown>
		...
    134e: 02 00        	<unknown>
    1350: 61 0c        	<unknown>
    1352: 00 00        	<unknown>
    1354: 70 20        	<unknown>
		...
    135e: 02 00        	<unknown>
    1360: a2 0a        	<unknown>
    1362: 00 00        	<unknown>
    1364: 78 20        	<unknown>
		...
    136e: 02 00        	<unknown>
    1370: fe 0e        	<unknown>
    1372: 00 00        	<unknown>
    1374: 7c 20        	<unknown>
		...
    137e: 02 00        	<unknown>
    1380: 40 09        	<unknown>
    1382: 00 00        	<unknown>
    1384: c0 20        	<unknown>
		...
    138e: 02 00        	<unknown>
    1390: 34 02        	<unknown>
    1392: 00 00        	<unknown>
    1394: e8 20        	<unknown>
    1396: 00 00        	<unknown>
    1398: 10 00        	<unknown>
    139a: 00 00        	<unknown>
    139c: 02 00        	<unknown>
    139e: 02 00        	<unknown>
    13a0: e4 0e        	<unknown>
    13a2: 00 00        	<unknown>
    13a4: f4 20        	<unknown>
		...
    13ae: 02 00        	<unknown>
    13b0: fe 07        	<unknown>
    13b2: 00 00        	<unknown>
    13b4: 28 21        	<unknown>
		...
    13be: 02 00        	<unknown>
    13c0: f0 06        	<unknown>
    13c2: 00 00        	<unknown>
    13c4: 5c 21        	<unknown>
		...
    13ce: 02 00        	<unknown>
    13d0: cc 05        	<unknown>
    13d2: 00 00        	<unknown>
    13d4: 80 21        	<unknown>
		...
    13de: 02 00        	<unknown>
    13e0: 64 12        	<unknown>
    13e2: 00 00        	<unknown>
    13e4: d8 21        	<unknown>
		...
    13ee: 02 00        	<unknown>
    13f0: 3f 01 00 00  	<unknown>
    13f4: 04 22        	<unknown>
    13f6: 00 00        	<unknown>
    13f8: 14 00        	<unknown>
    13fa: 00 00        	<unknown>
    13fc: 02 00        	<unknown>
    13fe: 02 00        	<unknown>
    1400: 48 0f        	<unknown>
    1402: 00 00        	<unknown>
    1404: 14 22        	<unknown>
		...
    140e: 02 00        	<unknown>
    1410: c5 11        	<unknown>
    1412: 00 00        	<unknown>
    1414: dc 22        	<unknown>
		...
    141e: 02 00        	<unknown>
    1420: ed 10        	<unknown>
    1422: 00 00        	<unknown>
    1424: 48 22        	<unknown>
		...
    142e: 02 00        	<unknown>
    1430: 95 0f        	<unknown>
    1432: 00 00        	<unknown>
    1434: 50 22        	<unknown>
		...
    143e: 02 00        	<unknown>
    1440: 8c 0d        	<unknown>
    1442: 00 00        	<unknown>
    1444: 74 22        	<unknown>
		...
    144e: 02 00        	<unknown>
    1450: 34 13        	<unknown>
    1452: 00 00        	<unknown>
    1454: c8 22        	<unknown>
		...
    145e: 02 00        	<unknown>
    1460: ef 08 00 00  	jal	a7, 0x1460 <.symtab+0x1460>
    1464: 8c 22        	<unknown>
		...
    146e: 02 00        	<unknown>
    1470: 9f 06 00 00  	<unknown>
    1474: a8 22        	<unknown>
		...
    147e: 02 00        	<unknown>
    1480: b8 07        	<unknown>
    1482: 00 00        	<unknown>
    1484: a0 22        	<unknown>
		...
    148e: 02 00        	<unknown>
    1490: 4b 0e 00 00  	fnmsub.s	ft8, ft0, ft0, ft0, rne
    1494: 94 24        	<unknown>
		...
    149e: 02 00        	<unknown>
    14a0: 8b 0a 00 00  	<unknown>
    14a4: f4 22        	<unknown>
		...
    14ae: 02 00        	<unknown>
    14b0: 29 09        	<unknown>
    14b2: 00 00        	<unknown>
    14b4: fc 22        	<unknown>
		...
    14be: 02 00        	<unknown>
    14c0: 8b 0e 00 00  	<unknown>
    14c4: 2c 23        	<unknown>
		...
    14ce: 02 00        	<unknown>
    14d0: e7 07 00 00  	jalr	a5, zero
    14d4: 34 23        	<unknown>
		...
    14de: 02 00        	<unknown>
    14e0: d9 06        	<unknown>
    14e2: 00 00        	<unknown>
    14e4: 3c 23        	<unknown>
		...
    14ee: 02 00        	<unknown>
    14f0: b5 05        	<unknown>
    14f2: 00 00        	<unknown>
    14f4: 48 23        	<unknown>
		...
    14fe: 02 00        	<unknown>
    1500: 4d 12        	<unknown>
    1502: 00 00        	<unknown>
    1504: 50 23        	<unknown>
		...
    150e: 02 00        	<unknown>
    1510: e0 10        	<unknown>
    1512: 00 00        	<unknown>
    1514: 6c 23        	<unknown>
		...
    151e: 02 00        	<unknown>
    1520: 59 0b        	<unknown>
    1522: 00 00        	<unknown>
    1524: a4 23        	<unknown>
		...
    152e: 02 00        	<unknown>
    1530: 0f 10 00 00  	fence.i
    1534: 84 24        	<unknown>
		...
    153e: 02 00        	<unknown>
    1540: 53 07 00 00  	fadd.s	fa4, ft0, ft0, rne
    1544: 0c 25        	<unknown>
		...
    154e: 02 00        	<unknown>
    1550: 8c 08        	<unknown>
    1552: 00 00        	<unknown>
    1554: c4 23        	<unknown>
		...
    155e: 02 00        	<unknown>
    1560: 46 06        	<unknown>
    1562: 00 00        	<unknown>
    1564: fc 23        	<unknown>
		...
    156e: 02 00        	<unknown>
    1570: 89 07        	<unknown>
    1572: 00 00        	<unknown>
    1574: fc 23        	<unknown>
		...
    157e: 02 00        	<unknown>
    1580: 88 0f        	<unknown>
    1582: 00 00        	<unknown>
    1584: 1c 24        	<unknown>
		...
    158e: 02 00        	<unknown>
    1590: d8 0d        	<unknown>
    1592: 00 00        	<unknown>
    1594: 28 24        	<unknown>
		...
    159e: 02 00        	<unknown>
    15a0: 29 0c        	<unknown>
    15a2: 00 00        	<unknown>
    15a4: 54 24        	<unknown>
		...
    15ae: 02 00        	<unknown>
    15b0: 61 08        	<unknown>
    15b2: 00 00        	<unknown>
    15b4: f0 24        	<unknown>
		...
    15be: 02 00        	<unknown>
    15c0: de 12        	<unknown>
    15c2: 00 00        	<unknown>
    15c4: 6c 24        	<unknown>
		...
    15ce: 02 00        	<unknown>
    15d0: e5 0d        	<unknown>
    15d2: 00 00        	<unknown>
    15d4: a8 24        	<unknown>
		...
    15de: 02 00        	<unknown>
    15e0: 40 0c        	<unknown>
    15e2: 00 00        	<unknown>
    15e4: b0 24        	<unknown>
		...
    15ee: 02 00        	<unknown>
    15f0: 0f 0b 00 00  	<unknown>
    15f4: d4 24        	<unknown>
		...
    15fe: 02 00        	<unknown>
    1600: ce 0c        	<unknown>
    1602: 00 00        	<unknown>
    1604: cc 24        	<unknown>
		...
    160e: 02 00        	<unknown>
    1610: 6a 0a        	<unknown>
    1612: 00 00        	<unknown>
    1614: 14 25        	<unknown>
		...
    161e: 02 00        	<unknown>
    1620: 82 00        	<unknown>
    1622: 00 00        	<unknown>
    1624: 00 00        	<unknown>
    1626: 00 00        	<unknown>
    1628: 14 00        	<unknown>
    162a: 00 00        	<unknown>
    162c: 12 00        	<unknown>
    162e: 02 00        	<unknown>
    1630: ba 01        	<unknown>
    1632: 00 00        	<unknown>
    1634: 00 00        	<unknown>
    1636: 00 00        	<unknown>
    1638: 04 00        	<unknown>
    163a: 00 00        	<unknown>
    163c: 16 00        	<unknown>
    163e: 08 00        	<unknown>
    1640: 75 00        	<unknown>
    1642: 00 00        	<unknown>
    1644: 14 00        	<unknown>
    1646: 00 00        	<unknown>
    1648: 0c 00        	<unknown>
    164a: 00 00        	<unknown>
    164c: 12 00        	<unknown>
    164e: 02 00        	<unknown>
    1650: c3 01 00 00  	fmadd.s	ft3, ft0, ft0, ft0, rne
    1654: 00 00        	<unknown>
    1656: 00 00        	<unknown>
    1658: 0c 00        	<unknown>
    165a: 00 00        	<unknown>
    165c: 11 00        	<unknown>
    165e: 07 00 eb 04  	<unknown>
    1662: 00 00        	<unknown>
    1664: 20 00        	<unknown>
    1666: 00 00        	<unknown>
    1668: 28 00        	<unknown>
    166a: 00 00        	<unknown>
    166c: 12 00        	<unknown>
    166e: 02 00        	<unknown>
    1670: de 04        	<unknown>
    1672: 00 00        	<unknown>
    1674: 48 00        	<unknown>
    1676: 00 00        	<unknown>
    1678: 18 00        	<unknown>
    167a: 00 00        	<unknown>
    167c: 12 00        	<unknown>
    167e: 02 00        	<unknown>
    1680: 61 00        	<unknown>
    1682: 00 00        	<unknown>
    1684: 60 00        	<unknown>
    1686: 00 00        	<unknown>
    1688: 14 00        	<unknown>
    168a: 00 00        	<unknown>
    168c: 12 00        	<unknown>
    168e: 02 00        	<unknown>
    1690: 0c 01        	<unknown>
    1692: 00 00        	<unknown>
    1694: 74 00        	<unknown>
    1696: 00 00        	<unknown>
    1698: 5c 00        	<unknown>
    169a: 00 00        	<unknown>
    169c: 12 00        	<unknown>
    169e: 02 00        	<unknown>
    16a0: 43 03 00 00  	fmadd.s	ft6, ft0, ft0, ft0, rne
		...
    16ac: 10 00        	<unknown>
    16ae: 00 00        	<unknown>
    16b0: 2a 01        	<unknown>
    16b2: 00 00        	<unknown>
    16b4: d0 00        	<unknown>
    16b6: 00 00        	<unknown>
    16b8: 0c 00        	<unknown>
    16ba: 00 00        	<unknown>
    16bc: 12 00        	<unknown>
    16be: 02 00        	<unknown>
    16c0: d0 01        	<unknown>
    16c2: 00 00        	<unknown>
    16c4: dc 00        	<unknown>
    16c6: 00 00        	<unknown>
    16c8: 0c 00        	<unknown>
    16ca: 00 00        	<unknown>
    16cc: 12 00        	<unknown>
    16ce: 02 00        	<unknown>
    16d0: 8e 02        	<unknown>
    16d2: 00 00        	<unknown>
    16d4: e8 00        	<unknown>
    16d6: 00 00        	<unknown>
    16d8: 24 00        	<unknown>
    16da: 00 00        	<unknown>
    16dc: 12 00        	<unknown>
    16de: 02 00        	<unknown>
    16e0: 7c 02        	<unknown>
    16e2: 00 00        	<unknown>
    16e4: 0c 01        	<unknown>
    16e6: 00 00        	<unknown>
    16e8: 18 00        	<unknown>
    16ea: 00 00        	<unknown>
    16ec: 12 00        	<unknown>
    16ee: 02 00        	<unknown>
    16f0: a0 01        	<unknown>
    16f2: 00 00        	<unknown>
    16f4: 24 01        	<unknown>
    16f6: 00 00        	<unknown>
    16f8: 1c 00        	<unknown>
    16fa: 00 00        	<unknown>
    16fc: 12 00        	<unknown>
    16fe: 02 00        	<unknown>
    1700: cc 04        	<unknown>
    1702: 00 00        	<unknown>
    1704: 40 01        	<unknown>
    1706: 00 00        	<unknown>
    1708: 2c 00        	<unknown>
    170a: 00 00        	<unknown>
    170c: 12 00        	<unknown>
    170e: 02 00        	<unknown>
    1710: 86 01        	<unknown>
    1712: 00 00        	<unknown>
    1714: 6c 01        	<unknown>
    1716: 00 00        	<unknown>
    1718: 24 00        	<unknown>
    171a: 00 00        	<unknown>
    171c: 12 00        	<unknown>
    171e: 02 00        	<unknown>
    1720: ba 04        	<unknown>
    1722: 00 00        	<unknown>
    1724: 90 01        	<unknown>
    1726: 00 00        	<unknown>
    1728: 40 00        	<unknown>
    172a: 00 00        	<unknown>
    172c: 12 00        	<unknown>
    172e: 02 00        	<unknown>
    1730: 1c 01        	<unknown>
    1732: 00 00        	<unknown>
    1734: d0 01        	<unknown>
    1736: 00 00        	<unknown>
    1738: 10 00        	<unknown>
    173a: 00 00        	<unknown>
    173c: 12 00        	<unknown>
    173e: 02 00        	<unknown>
    1740: 54 03        	<unknown>
    1742: 00 00        	<unknown>
    1744: e0 01        	<unknown>
    1746: 00 00        	<unknown>
    1748: 0c 00        	<unknown>
    174a: 00 00        	<unknown>
    174c: 12 00        	<unknown>
    174e: 02 00        	<unknown>
    1750: 04 01        	<unknown>
    1752: 00 00        	<unknown>
    1754: ec 01        	<unknown>
    1756: 00 00        	<unknown>
    1758: f0 00        	<unknown>
    175a: 00 00        	<unknown>
    175c: 12 00        	<unknown>
    175e: 02 00        	<unknown>
    1760: 66 03        	<unknown>
    1762: 00 00        	<unknown>
    1764: 00 00        	<unknown>
    1766: 00 00        	<unknown>
    1768: 04 00        	<unknown>
    176a: 00 00        	<unknown>
    176c: 11 00        	<unknown>
    176e: 0a 00        	<unknown>
    1770: a0 02        	<unknown>
    1772: 00 00        	<unknown>
    1774: 04 00        	<unknown>
    1776: 00 00        	<unknown>
    1778: 04 00        	<unknown>
    177a: 00 00        	<unknown>
    177c: 16 00        	<unknown>
    177e: 08 00        	<unknown>
    1780: fc 00        	<unknown>
    1782: 00 00        	<unknown>
    1784: dc 02        	<unknown>
    1786: 00 00        	<unknown>
    1788: 1c 01        	<unknown>
    178a: 00 00        	<unknown>
    178c: 12 00        	<unknown>
    178e: 02 00        	<unknown>
    1790: 65 02        	<unknown>
    1792: 00 00        	<unknown>
    1794: f8 03        	<unknown>
    1796: 00 00        	<unknown>
    1798: 14 00        	<unknown>
    179a: 00 00        	<unknown>
    179c: 12 00        	<unknown>
    179e: 02 00        	<unknown>
    17a0: 90 03        	<unknown>
    17a2: 00 00        	<unknown>
    17a4: 0c 04        	<unknown>
    17a6: 00 00        	<unknown>
    17a8: 14 00        	<unknown>
    17aa: 00 00        	<unknown>
    17ac: 12 00        	<unknown>
    17ae: 02 00        	<unknown>
    17b0: 48 01        	<unknown>
    17b2: 00 00        	<unknown>
    17b4: 20 04        	<unknown>
    17b6: 00 00        	<unknown>
    17b8: 04 00        	<unknown>
    17ba: 00 00        	<unknown>
    17bc: 12 00        	<unknown>
    17be: 02 00        	<unknown>
    17c0: 57 02 00 00  	<unknown>
    17c4: 24 04        	<unknown>
    17c6: 00 00        	<unknown>
    17c8: e4 00        	<unknown>
    17ca: 00 00        	<unknown>
    17cc: 12 00        	<unknown>
    17ce: 02 00        	<unknown>
    17d0: a6 03        	<unknown>
    17d2: 00 00        	<unknown>
    17d4: 08 05        	<unknown>
    17d6: 00 00        	<unknown>
    17d8: 3c 00        	<unknown>
    17da: 00 00        	<unknown>
    17dc: 12 00        	<unknown>
    17de: 02 00        	<unknown>
    17e0: 01 00        	<unknown>
    17e2: 00 00        	<unknown>
    17e4: 44 05        	<unknown>
    17e6: 00 00        	<unknown>
    17e8: c0 00        	<unknown>
    17ea: 00 00        	<unknown>
    17ec: 12 00        	<unknown>
    17ee: 02 00        	<unknown>
    17f0: 72 03        	<unknown>
    17f2: 00 00        	<unknown>
    17f4: 04 06        	<unknown>
    17f6: 00 00        	<unknown>
    17f8: 20 00        	<unknown>
    17fa: 00 00        	<unknown>
    17fc: 12 00        	<unknown>
    17fe: 02 00        	<unknown>
    1800: e5 03        	<unknown>
    1802: 00 00        	<unknown>
    1804: 24 06        	<unknown>
    1806: 00 00        	<unknown>
    1808: 18 00        	<unknown>
    180a: 00 00        	<unknown>
    180c: 12 00        	<unknown>
    180e: 02 00        	<unknown>
    1810: 0f 00 00 00  	fence	0, 0
    1814: 3c 06        	<unknown>
    1816: 00 00        	<unknown>
    1818: 0c 00        	<unknown>
    181a: 00 00        	<unknown>
    181c: 12 00        	<unknown>
    181e: 02 00        	<unknown>
    1820: 0e 00        	<unknown>
    1822: 00 00        	<unknown>
    1824: 04 00        	<unknown>
    1826: 00 00        	<unknown>
    1828: 04 00        	<unknown>
    182a: 00 00        	<unknown>
    182c: 11 00        	<unknown>
    182e: 0a 00        	<unknown>
    1830: 2e 04        	<unknown>
    1832: 00 00        	<unknown>
    1834: 48 06        	<unknown>
    1836: 00 00        	<unknown>
    1838: 10 00        	<unknown>
    183a: 00 00        	<unknown>
    183c: 12 00        	<unknown>
    183e: 02 00        	<unknown>
    1840: 41 04        	<unknown>
    1842: 00 00        	<unknown>
    1844: 58 06        	<unknown>
    1846: 00 00        	<unknown>
    1848: 18 00        	<unknown>
    184a: 00 00        	<unknown>
    184c: 12 00        	<unknown>
    184e: 02 00        	<unknown>
    1850: f6 03        	<unknown>
    1852: 00 00        	<unknown>
    1854: 70 06        	<unknown>
    1856: 00 00        	<unknown>
    1858: 08 00        	<unknown>
    185a: 00 00        	<unknown>
    185c: 12 00        	<unknown>
    185e: 02 00        	<unknown>
    1860: e5 01        	<unknown>
    1862: 00 00        	<unknown>
    1864: 78 06        	<unknown>
    1866: 00 00        	<unknown>
    1868: 08 00        	<unknown>
    186a: 00 00        	<unknown>
    186c: 12 00        	<unknown>
    186e: 02 00        	<unknown>
    1870: 20 02        	<unknown>
    1872: 00 00        	<unknown>
    1874: 80 06        	<unknown>
    1876: 00 00        	<unknown>
    1878: 58 00        	<unknown>
    187a: 00 00        	<unknown>
    187c: 12 00        	<unknown>
    187e: 02 00        	<unknown>
    1880: fd 01        	<unknown>
    1882: 00 00        	<unknown>
    1884: 08 00        	<unknown>
    1886: 00 00        	<unknown>
    1888: 08 00        	<unknown>
    188a: 00 00        	<unknown>
    188c: 11 00        	<unknown>
    188e: 0a 00        	<unknown>
    1890: 0b 02 00 00  	<unknown>
    1894: d8 06        	<unknown>
    1896: 00 00        	<unknown>
    1898: 30 00        	<unknown>
    189a: 00 00        	<unknown>
    189c: 12 00        	<unknown>
    189e: 02 00        	<unknown>
    18a0: 2f 05 00 00  	<unknown>
    18a4: 08 07        	<unknown>
    18a6: 00 00        	<unknown>
    18a8: 48 00        	<unknown>
    18aa: 00 00        	<unknown>
    18ac: 12 00        	<unknown>
    18ae: 02 00        	<unknown>
    18b0: a5 02        	<unknown>
    18b2: 00 00        	<unknown>
    18b4: 50 07        	<unknown>
    18b6: 00 00        	<unknown>
    18b8: 6c 00        	<unknown>
    18ba: 00 00        	<unknown>
    18bc: 12 00        	<unknown>
    18be: 02 00        	<unknown>
    18c0: ea 00        	<unknown>
    18c2: 00 00        	<unknown>
    18c4: 10 00        	<unknown>
    18c6: 00 00        	<unknown>
    18c8: 04 00        	<unknown>
    18ca: 00 00        	<unknown>
    18cc: 11 00        	<unknown>
    18ce: 0a 00        	<unknown>
    18d0: 91 04        	<unknown>
    18d2: 00 00        	<unknown>
    18d4: bc 07        	<unknown>
    18d6: 00 00        	<unknown>
    18d8: 08 00        	<unknown>
    18da: 00 00        	<unknown>
    18dc: 12 00        	<unknown>
    18de: 02 00        	<unknown>
    18e0: 9d 04        	<unknown>
    18e2: 00 00        	<unknown>
    18e4: c4 07        	<unknown>
    18e6: 00 00        	<unknown>
    18e8: 08 00        	<unknown>
    18ea: 00 00        	<unknown>
    18ec: 12 00        	<unknown>
    18ee: 02 00        	<unknown>
    18f0: 41 00        	<unknown>
    18f2: 00 00        	<unknown>
    18f4: cc 07        	<unknown>
    18f6: 00 00        	<unknown>
    18f8: 08 00        	<unknown>
    18fa: 00 00        	<unknown>
    18fc: 12 00        	<unknown>
    18fe: 02 00        	<unknown>
    1900: 10 03        	<unknown>
    1902: 00 00        	<unknown>
    1904: d4 07        	<unknown>
    1906: 00 00        	<unknown>
    1908: 0c 00        	<unknown>
    190a: 00 00        	<unknown>
    190c: 12 00        	<unknown>
    190e: 02 00        	<unknown>
    1910: 1a 00        	<unknown>
    1912: 00 00        	<unknown>
    1914: e0 07        	<unknown>
    1916: 00 00        	<unknown>
    1918: 10 00        	<unknown>
    191a: 00 00        	<unknown>
    191c: 12 00        	<unknown>
    191e: 02 00        	<unknown>
    1920: d0 02        	<unknown>
    1922: 00 00        	<unknown>
    1924: f0 07        	<unknown>
    1926: 00 00        	<unknown>
    1928: 08 00        	<unknown>
    192a: 00 00        	<unknown>
    192c: 12 00        	<unknown>
    192e: 02 00        	<unknown>
    1930: 2b 00 00 00  	<unknown>
    1934: f8 07        	<unknown>
    1936: 00 00        	<unknown>
    1938: 10 00        	<unknown>
    193a: 00 00        	<unknown>
    193c: 12 00        	<unknown>
    193e: 02 00        	<unknown>
    1940: e1 02        	<unknown>
    1942: 00 00        	<unknown>
    1944: 08 08        	<unknown>
    1946: 00 00        	<unknown>
    1948: 0c 00        	<unknown>
    194a: 00 00        	<unknown>
    194c: 12 00        	<unknown>
    194e: 02 00        	<unknown>
    1950: 25 03        	<unknown>
    1952: 00 00        	<unknown>
    1954: 14 08        	<unknown>
    1956: 00 00        	<unknown>
    1958: 10 00        	<unknown>
    195a: 00 00        	<unknown>
    195c: 12 00        	<unknown>
    195e: 02 00        	<unknown>
    1960: 19 04        	<unknown>
    1962: 00 00        	<unknown>
    1964: 24 08        	<unknown>
    1966: 00 00        	<unknown>
    1968: 1c 00        	<unknown>
    196a: 00 00        	<unknown>
    196c: 12 00        	<unknown>
    196e: 02 00        	<unknown>
    1970: 09 04        	<unknown>
    1972: 00 00        	<unknown>
    1974: 40 08        	<unknown>
    1976: 00 00        	<unknown>
    1978: 20 00        	<unknown>
    197a: 00 00        	<unknown>
    197c: 12 00        	<unknown>
    197e: 02 00        	<unknown>
    1980: f7 02 00 00  	<unknown>
    1984: 60 08        	<unknown>
    1986: 00 00        	<unknown>
    1988: 08 00        	<unknown>
    198a: 00 00        	<unknown>
    198c: 12 00        	<unknown>
    198e: 02 00        	<unknown>
    1990: 5e 05        	<unknown>
    1992: 00 00        	<unknown>
    1994: 68 08        	<unknown>
    1996: 00 00        	<unknown>
    1998: 5c 00        	<unknown>
    199a: 00 00        	<unknown>
    199c: 12 00        	<unknown>
    199e: 02 00        	<unknown>
    19a0: 8f 00 00 00  	<unknown>
		...
    19ac: 10 00        	<unknown>
    19ae: 00 00        	<unknown>
    19b0: 96 00        	<unknown>
		...
    19ba: 00 00        	<unknown>
    19bc: 10 00        	<unknown>
    19be: 00 00        	<unknown>
    19c0: 40 02        	<unknown>
    19c2: 00 00        	<unknown>
    19c4: f4 1f        	<unknown>
    19c6: 00 00        	<unknown>
    19c8: 9c 00        	<unknown>
    19ca: 00 00        	<unknown>
    19cc: 12 00        	<unknown>
    19ce: 02 00        	<unknown>
    19d0: 52 05        	<unknown>
    19d2: 00 00        	<unknown>
    19d4: 90 20        	<unknown>
    19d6: 00 00        	<unknown>
    19d8: 58 00        	<unknown>
    19da: 00 00        	<unknown>
    19dc: 12 00        	<unknown>
    19de: 02 00        	<unknown>
    19e0: 5c 05        	<unknown>
    19e2: 00 00        	<unknown>
    19e4: f8 20        	<unknown>
    19e6: 00 00        	<unknown>
    19e8: 54 00        	<unknown>
    19ea: 00 00        	<unknown>
    19ec: 12 00        	<unknown>
    19ee: 02 00        	<unknown>
    19f0: 49 05        	<unknown>
    19f2: 00 00        	<unknown>
    19f4: 4c 21        	<unknown>
    19f6: 00 00        	<unknown>
    19f8: 34 00        	<unknown>
    19fa: 00 00        	<unknown>
    19fc: 12 00        	<unknown>
    19fe: 02 00        	<unknown>
    1a00: 5b 05 00 00  	<unknown>
    1a04: 80 21        	<unknown>
    1a06: 00 00        	<unknown>
    1a08: 28 00        	<unknown>
    1a0a: 00 00        	<unknown>
    1a0c: 12 00        	<unknown>
    1a0e: 02 00        	<unknown>
    1a10: d0 03        	<unknown>
    1a12: 00 00        	<unknown>
    1a14: a8 21        	<unknown>
    1a16: 00 00        	<unknown>
    1a18: 5c 00        	<unknown>
    1a1a: 00 00        	<unknown>
    1a1c: 12 00        	<unknown>
    1a1e: 02 00        	<unknown>
    1a20: c6 02        	<unknown>
    1a22: 00 00        	<unknown>
    1a24: 18 22        	<unknown>
    1a26: 00 00        	<unknown>
    1a28: 14 03        	<unknown>
    1a2a: 00 00        	<unknown>
    1a2c: 12 00        	<unknown>
    1a2e: 02 00        	<unknown>
    1a30: c5 00        	<unknown>
		...
    1a3a: 00 00        	<unknown>
    1a3c: 10 00        	<unknown>
    1a3e: 00 00        	<unknown>
    1a40: 79 04        	<unknown>
		...
    1a4a: 00 00        	<unknown>
    1a4c: 10 00        	<unknown>
    1a4e: 00 00        	<unknown>
    1a50: b9 00        	<unknown>
		...
    1a5a: 00 00        	<unknown>
    1a5c: 10 00        	<unknown>
    1a5e: 00 00        	<unknown>
    1a60: 6f 04 00 00  	jal	s0, 0x1a60 <.symtab+0x1a60>
		...
    1a6c: 10 00        	<unknown>
    1a6e: 00 00        	<unknown>
    1a70: d3 00 00 00  	fadd.s	ft1, ft0, ft0, rne
		...
    1a7c: 10 00        	<unknown>
    1a7e: 00 00        	<unknown>
    1a80: 85 04        	<unknown>
		...
    1a8a: 00 00        	<unknown>
    1a8c: 10 00        	<unknown>
    1a8e: 00 00        	<unknown>
    1a90: 64 04        	<unknown>
		...
    1a9a: 00 00        	<unknown>
    1a9c: 10 00        	<unknown>
    1a9e: 00 00        	<unknown>
    1aa0: ac 00        	<unknown>
		...
    1aaa: 00 00        	<unknown>
    1aac: 10 00        	<unknown>
    1aae: 00 00        	<unknown>
    1ab0: cb 02 00 00  	fnmsub.s	ft5, ft0, ft0, ft0, rne
		...
    1abc: 10 00        	<unknown>
    1abe: 00 00        	<unknown>
    1ac0: 9f 00 00 00  	<unknown>
		...
    1acc: 10 00        	<unknown>
    1ace: 00 00        	<unknown>
    1ad0: 59 04        	<unknown>
		...
    1ada: 00 00        	<unknown>
    1adc: 10 00        	<unknown>
    1ade: 00 00        	<unknown>
    1ae0: 6f 01 00 00  	jal	sp, 0x1ae0 <.symtab+0x1ae0>
    1ae4: 00 00        	<unknown>
    1ae6: 00 00        	<unknown>
    1ae8: 10 00        	<unknown>
    1aea: 00 00        	<unknown>
    1aec: 11 00        	<unknown>
    1aee: 09 00        	<unknown>
